(isosRequests
SOS
p1
(dp2
S'accessConstraints'
p3
S''
sS'name'
p4
S'RIVM SOS Service Air Quality'
p5
sS'resourceDescriptionFormat'
p6
c__builtin__
set
p7
((lp8
S'\n        '
p9
atRp10
sS'url'
p11
S'http://inspire.rivm.nl/sos/eaq/service?'
p12
sS'responseFormat'
p13
g7
((lp14
S'http://www.opengis.net/waterml/2.0'
p15
aS'application/json'
p16
aS'http://www.opengis.net/om/2.0'
p17
aS'http://dd.eionet.europa.eu/schemaset/id2011850eu-1.0'
p18
aS'http://www.opengis.net/waterml-dr/2.0'
p19
atRp20
sS'organisation'
p21
S'RIVM'
p22
sS'costs'
p23
S'NONE'
p24
sS'version'
p25
g7
((lp26
S'1.0.0'
p27
atRp28
sS'error'
p29
I00
sS'featureofinterest'
p30
(dp31
S'NL.RIVM.AQ/SPO_F-NL00131_00046_101_101'
p32
(dp33
S'offerings'
p34
(lp35
sS'coords'
p36
(lp37
S'51.540520037824535 5.853069999999999'
p38
aS'http://www.opengis.net/def/crs/EPSG/0/4326'
p39
assS'NL.RIVM.AQ/SPO_F-NL00445_00038_100_101'
p40
(dp41
g34
(lp42
S'NL.RIVM.AQ/STA-NL00445/38'
p43
asg36
(lp44
S'52.075071037310146 4.315872'
p45
aS'http://www.opengis.net/def/crs/EPSG/0/4326'
p46
assS'NL.RIVM.AQ/SPO_F-NL00017_00021_100_100'
p47
(dp48
g34
(lp49
sg36
(lp50
S'52.358039037023744 4.8997'
p51
aS'http://www.opengis.net/def/crs/EPSG/0/4326'
p52
assS'NL.RIVM.AQ/SPO_F-NL00230_06001_100_101'
p53
(dp54
g34
(lp55
S'NL.RIVM.AQ/STA-NL00230/6001'
p56
asg36
(lp57
S'51.518440037845004 5.1484499999999995'
p58
aS'http://www.opengis.net/def/crs/EPSG/0/4326'
p59
assS'NL.RIVM.AQ/SPO_F-NL00240_00008_100_100'
p60
(dp61
g34
(lp62
S'NL.RIVM.AQ/STA-NL00240/8'
p63
asg36
(lp64
S'51.5935330377751 4.824944'
p65
aS'http://www.opengis.net/def/crs/EPSG/0/4326'
p66
assS'NL.RIVM.AQ/SPO_F-NL00245_00009_100_100'
p67
(dp68
g34
(lp69
sg36
(lp70
S'51.69938903767535 4.623598000000001'
p71
aS'http://www.opengis.net/def/crs/EPSG/0/4326'
p72
assS'NL.RIVM.AQ/SPO_F-NL00641_06001_100_100'
p73
(dp74
g34
(lp75
S'NL.RIVM.AQ/STA-NL00641/6001'
p76
asg36
(lp77
S'52.20153003718333 4.987444000000001'
p78
aS'http://www.opengis.net/def/crs/EPSG/0/4326'
p79
assS'NL.RIVM.AQ/SPO_F-NL00937_00038_100_101'
p80
(dp81
g34
(lp82
S'NL.RIVM.AQ/STA-NL00937/38'
p83
asg36
(lp84
S'53.217796036096054 6.578900999999999'
p85
aS'http://www.opengis.net/def/crs/EPSG/0/4326'
p86
assS'NL.RIVM.AQ/SPO_F-NL00918_00007_101_102'
p87
(dp88
g34
(lp89
S'NL.RIVM.AQ/STA-NL00918/7'
p90
asg36
(lp91
S'52.91691592643034 5.573491569999999'
p92
aS'http://www.opengis.net/def/crs/EPSG/0/4326'
p93
assS'NL.RIVM.AQ/SPO_F-NL00444_00005_100_101'
p94
(dp95
g34
(lp96
S'NL.RIVM.AQ/STA-NL00444/5'
p97
asg36
(lp98
S'52.2965560370868 4.510817'
p99
aS'http://www.opengis.net/def/crs/EPSG/0/4326'
p100
assS'NL.RIVM.AQ/SPO_F-NL00627_00629_101_101'
p101
(dp102
g34
(lp103
sg36
(lp104
S'52.12083303726448 5.195567'
p105
aS'http://www.opengis.net/def/crs/EPSG/0/4326'
p106
assS'NL.RIVM.AQ/SPO_F-NL00631_00007_111_112'
p107
(dp108
g34
(lp109
S'NL.RIVM.AQ/STA-NL00631/7'
p110
asg36
(lp111
S'52.448710036929945 5.619210000000001'
p112
aS'http://www.opengis.net/def/crs/EPSG/0/4326'
p113
assS'NL.RIVM.AQ/SPO_F-NL00643_00038_100_100'
p114
(dp115
g34
(lp116
S'NL.RIVM.AQ/STA-NL00643/38'
p117
asg36
(lp118
S'52.101308037284014 5.128183'
p119
aS'http://www.opengis.net/def/crs/EPSG/0/4326'
p120
assS'NL.RIVM.AQ/SPO_F-NL00537_00038_101_102'
p121
(dp122
g34
(lp123
sg36
(lp124
S'52.38104003700004 4.64759'
p125
aS'http://www.opengis.net/def/crs/EPSG/0/4326'
p126
assS'NL.RIVM.AQ/SPO_F-NL00631_00009_111_103'
p127
(dp128
g34
(lp129
sg36
(lp130
S'52.448710036929945 5.619210000000001'
p131
aS'http://www.opengis.net/def/crs/EPSG/0/4326'
p132
assS'NL.RIVM.AQ/SPO_F-NL00107_00007_101_102'
p133
(dp134
g34
(lp135
S'NL.RIVM.AQ/STA-NL00107/7'
p136
asg36
(lp137
S'51.11919403820476 6.0423990000000005'
p138
aS'http://www.opengis.net/def/crs/EPSG/0/4326'
p139
assS'NL.RIVM.AQ/SPO_F-NL00014_00038_100_100'
p140
(dp141
g34
(lp142
sg36
(lp143
S'52.359714037022016 4.866208'
p144
aS'http://www.opengis.net/def/crs/EPSG/0/4326'
p145
assS'NL.RIVM.AQ/SPO_F-NL00929_00045_101_101'
p146
(dp147
g34
(lp148
sg36
(lp149
S'52.87572503647533 6.932432000000001'
p150
aS'http://www.opengis.net/def/crs/EPSG/0/4326'
p151
assS'NL.RIVM.AQ/SPO_F-NL00131_00659_100_100'
p152
(dp153
g34
(lp154
sg36
(lp155
S'51.540520037824535 5.853069999999999'
p156
aS'http://www.opengis.net/def/crs/EPSG/0/4326'
p157
assS'NL.RIVM.AQ/SPO_F-NL00235_00007_111_112'
p158
(dp159
g34
(lp160
S'NL.RIVM.AQ/STA-NL00235/7'
p161
asg36
(lp162
S'51.43444303792239 4.359835'
p163
aS'http://www.opengis.net/def/crs/EPSG/0/4326'
p164
assS'NL.RIVM.AQ/SPO_F-NL00631_00008_111_113'
p165
(dp166
g34
(lp167
S'NL.RIVM.AQ/STA-NL00631/8'
p168
asg36
(lp169
S'52.448710036929945 5.619210000000001'
p170
aS'http://www.opengis.net/def/crs/EPSG/0/4326'
p171
assS'NL.RIVM.AQ/SPO_F-NL00561_06001_100_100'
p172
(dp173
g34
(lp174
sg36
(lp175
S'52.33400303704845 4.774006'
p176
aS'http://www.opengis.net/def/crs/EPSG/0/4326'
p177
assS'NL.RIVM.AQ/SPO_F-NL00131_00045_101_101'
p178
(dp179
g34
(lp180
sg36
(lp181
S'51.540520037824535 5.853069999999999'
p182
aS'http://www.opengis.net/def/crs/EPSG/0/4326'
p183
assS'NL.RIVM.AQ/SPO_F-NL00012_00038_101_101'
p184
(dp185
g34
(lp186
sg36
(lp187
S'52.38998303699083 4.887811'
p188
aS'http://www.opengis.net/def/crs/EPSG/0/4326'
p189
assS'NL.RIVM.AQ/SPO_F-NL00137_00008_100_101'
p190
(dp191
g34
(lp192
sg36
(lp193
S'50.88487003840636 5.977283'
p194
aS'http://www.opengis.net/def/crs/EPSG/0/4326'
p195
assS'NL.RIVM.AQ/SPO_F-NL00807_00007_101_102'
p196
(dp197
g34
(lp198
S'NL.RIVM.AQ/STA-NL00807/7'
p199
asg36
(lp200
S'52.388272036992596 6.402933000000001'
p201
aS'http://www.opengis.net/def/crs/EPSG/0/4326'
p202
assS'NL.RIVM.AQ/SPO_F-NL00496_00001_100_100'
p203
(dp204
g34
(lp205
sg36
(lp206
S'51.97780303740636 4.121944000000001'
p207
aS'http://www.opengis.net/def/crs/EPSG/0/4326'
p208
assS'NL.RIVM.AQ/SPO_F-NL00738_00038_100_101'
p209
(dp210
g34
(lp211
S'NL.RIVM.AQ/STA-NL00738/38'
p212
asg36
(lp213
S'52.111621037273686 5.708418999999999'
p214
aS'http://www.opengis.net/def/crs/EPSG/0/4326'
p215
assS'NL.RIVM.AQ/SPO_F-NL00627_00015_101_101'
p216
(dp217
g34
(lp218
sg36
(lp219
S'52.12083303726448 5.195567'
p220
aS'http://www.opengis.net/def/crs/EPSG/0/4326'
p221
assS'NL.RIVM.AQ/SPO_F-NL00561_00010_100_100'
p222
(dp223
g34
(lp224
sg36
(lp225
S'52.33400303704845 4.774006'
p226
aS'http://www.opengis.net/def/crs/EPSG/0/4326'
p227
assS'NL.RIVM.AQ/SPO_F-NL00487_00005_100_100'
p228
(dp229
g34
(lp230
sg36
(lp231
S'51.89114703749109 4.480690000000001'
p232
aS'http://www.opengis.net/def/crs/EPSG/0/4326'
p233
assS'NL.RIVM.AQ/SPO_F-NL00485_00008_100_100'
p234
(dp235
g34
(lp236
sg36
(lp237
S'51.867411037514145 4.355241999999999'
p238
aS'http://www.opengis.net/def/crs/EPSG/0/4326'
p239
assS'NL.RIVM.AQ/SPO_F-NL00230_00038_101_102'
p240
(dp241
g34
(lp242
S'NL.RIVM.AQ/STA-NL00230/38'
p243
asg36
(lp244
S'51.518440037845004 5.1484499999999995'
p245
aS'http://www.opengis.net/def/crs/EPSG/0/4326'
p246
assS'NL.RIVM.AQ/SPO_F-NL00639_00005_100_101'
p247
(dp248
g34
(lp249
S'NL.RIVM.AQ/STA-NL00639/5'
p250
asg36
(lp251
S'52.06774803731743 5.120507000000001'
p252
aS'http://www.opengis.net/def/crs/EPSG/0/4326'
p253
assS'NL.RIVM.AQ/SPO_F-NL00017_00038_101_101'
p254
(dp255
g34
(lp256
sg36
(lp257
S'52.358039037023744 4.8997'
p258
aS'http://www.opengis.net/def/crs/EPSG/0/4326'
p259
assS'NL.RIVM.AQ/SPO_F-NL00437_00005_100_101'
p260
(dp261
g34
(lp262
S'NL.RIVM.AQ/STA-NL00437/5'
p263
asg36
(lp264
S'51.78657903759214 4.450529000000001'
p265
aS'http://www.opengis.net/def/crs/EPSG/0/4326'
p266
assS'NL.RIVM.AQ/SPO_F-NL00627_00014_102_102'
p267
(dp268
g34
(lp269
sg36
(lp270
S'52.12083303726448 5.195567'
p271
aS'http://www.opengis.net/def/crs/EPSG/0/4326'
p272
assS'NL.RIVM.AQ/SPO_F-NL00236_00007_101_102'
p273
(dp274
g34
(lp275
S'NL.RIVM.AQ/STA-NL00236/7'
p276
asg36
(lp277
S'51.46866203789098 5.47235'
p278
aS'http://www.opengis.net/def/crs/EPSG/0/4326'
p279
assS'NL.RIVM.AQ/SPO_F-NL00318_00008_111_112'
p280
(dp281
g34
(lp282
S'NL.RIVM.AQ/STA-NL00318/8'
p283
asg36
(lp284
S'51.294498038049305 3.749483999999999'
p285
aS'http://www.opengis.net/def/crs/EPSG/0/4326'
p286
assS'NL.RIVM.AQ/SPO_F-NL00633_00482_102_102'
p287
(dp288
g34
(lp289
sg36
(lp290
S'52.13795003724734 4.83819'
p291
aS'http://www.opengis.net/def/crs/EPSG/0/4326'
p292
assS'NL.RIVM.AQ/SPO_F-NL00487_06001_100_100'
p293
(dp294
g34
(lp295
sg36
(lp296
S'51.89114703749109 4.480690000000001'
p297
aS'http://www.opengis.net/def/crs/EPSG/0/4326'
p298
assS'NL.RIVM.AQ/SPO_F-NL00012_06001_100_100'
p299
(dp300
g34
(lp301
sg36
(lp302
S'52.38998303699083 4.887811'
p303
aS'http://www.opengis.net/def/crs/EPSG/0/4326'
p304
assS'NL.RIVM.AQ/SPO_F-NL00014_00010_100_100'
p305
(dp306
g34
(lp307
sg36
(lp308
S'52.359714037022016 4.866208'
p309
aS'http://www.opengis.net/def/crs/EPSG/0/4326'
p310
assS'NL.RIVM.AQ/SPO_F-NL00244_00035_100_100'
p311
(dp312
g34
(lp313
sg36
(lp314
S'51.535901037828836 5.808593'
p315
aS'http://www.opengis.net/def/crs/EPSG/0/4326'
p316
assS'NL.RIVM.AQ/SPO_F-NL00020_00038_101_101'
p317
(dp318
g34
(lp319
sg36
(lp320
S'52.3747860370065 4.860319'
p321
aS'http://www.opengis.net/def/crs/EPSG/0/4326'
p322
assS'NL.RIVM.AQ/SPO_F-NL00631_00038_111_113'
p323
(dp324
g34
(lp325
S'NL.RIVM.AQ/STA-NL00631/38'
p326
asg36
(lp327
S'52.448710036929945 5.619210000000001'
p328
aS'http://www.opengis.net/def/crs/EPSG/0/4326'
p329
assS'NL.RIVM.AQ/SPO_F-NL00433_00018_101_101'
p330
(dp331
g34
(lp332
sg36
(lp333
S'51.910474037472305 4.326303'
p334
aS'http://www.opengis.net/def/crs/EPSG/0/4326'
p335
assS'NL.RIVM.AQ/SPO_F-NL00639_00038_101_102'
p336
(dp337
g34
(lp338
S'NL.RIVM.AQ/STA-NL00639/38'
p339
asg36
(lp340
S'52.06774803731743 5.120507000000001'
p341
aS'http://www.opengis.net/def/crs/EPSG/0/4326'
p342
assS'NL.RIVM.AQ/SPO_F-NL00418_00038_111_112'
p343
(dp344
g34
(lp345
S'NL.RIVM.AQ/STA-NL00418/38'
p346
asg36
(lp347
S'51.914233037468634 4.479923'
p348
aS'http://www.opengis.net/def/crs/EPSG/0/4326'
p349
assS'NL.RIVM.AQ/SPO_F-NL00485_00038_100_100'
p350
(dp351
g34
(lp352
sg36
(lp353
S'51.867411037514145 4.355241999999999'
p354
aS'http://www.opengis.net/def/crs/EPSG/0/4326'
p355
assS'NL.RIVM.AQ/SPO_F-NL00722_00008_111_112'
p356
(dp357
g34
(lp358
S'NL.RIVM.AQ/STA-NL00722/8'
p359
asg36
(lp360
S'52.09180103729347 6.605367'
p361
aS'http://www.opengis.net/def/crs/EPSG/0/4326'
p362
assS'NL.RIVM.AQ/SPO_F-NL00444_00631_101_101'
p363
(dp364
g34
(lp365
sg36
(lp366
S'52.2965560370868 4.510817'
p367
aS'http://www.opengis.net/def/crs/EPSG/0/4326'
p368
assS'NL.RIVM.AQ/SPO_F-NL00551_00038_100_100'
p369
(dp370
g34
(lp371
sg36
(lp372
S'52.46303903691505 4.6018419999999995'
p373
aS'http://www.opengis.net/def/crs/EPSG/0/4326'
p374
assS'NL.RIVM.AQ/SPO_F-NL00703_00009_100_100'
p375
(dp376
g34
(lp377
sg36
(lp378
S'52.39843703698208 4.728581'
p379
aS'http://www.opengis.net/def/crs/EPSG/0/4326'
p380
assS'NL.RIVM.AQ/SPO_F-NL00937_00008_100_101'
p381
(dp382
g34
(lp383
S'NL.RIVM.AQ/STA-NL00937/8'
p384
asg36
(lp385
S'53.217796036096054 6.578900999999999'
p386
aS'http://www.opengis.net/def/crs/EPSG/0/4326'
p387
assS'NL.RIVM.AQ/SPO_F-NL00486_00038_100_100'
p388
(dp389
g34
(lp390
sg36
(lp391
S'51.8878690374943 4.388808000000001'
p392
aS'http://www.opengis.net/def/crs/EPSG/0/4326'
p393
assS'NL.RIVM.AQ/SPO_F-NL00444_00038_100_101'
p394
(dp395
g34
(lp396
S'NL.RIVM.AQ/STA-NL00444/38'
p397
asg36
(lp398
S'52.2965560370868 4.510817'
p399
aS'http://www.opengis.net/def/crs/EPSG/0/4326'
p400
assS'NL.RIVM.AQ/SPO_F-NL00448_00006_100_100'
p401
(dp402
g34
(lp403
sg36
(lp404
S'51.927110037456046 4.461340000000001'
p405
aS'http://www.opengis.net/def/crs/EPSG/0/4326'
p406
assS'NL.RIVM.AQ/SPO_F-NL00237_00008_101_102'
p407
(dp408
g34
(lp409
S'NL.RIVM.AQ/STA-NL00237/8'
p410
asg36
(lp411
S'51.44415703791349 5.444833000000001'
p412
aS'http://www.opengis.net/def/crs/EPSG/0/4326'
p413
assS'NL.RIVM.AQ/SPO_F-NL00496_00020_100_100'
p414
(dp415
g34
(lp416
sg36
(lp417
S'51.97780303740636 4.121944000000001'
p418
aS'http://www.opengis.net/def/crs/EPSG/0/4326'
p419
assS'NL.RIVM.AQ/SPO_F-NL00488_06001_100_100'
p420
(dp421
g34
(lp422
sg36
(lp423
S'51.893617037488696 4.487528'
p424
aS'http://www.opengis.net/def/crs/EPSG/0/4326'
p425
assS'NL.RIVM.AQ/SPO_F-NL00241_00038_100_101'
p426
(dp427
g34
(lp428
S'NL.RIVM.AQ/STA-NL00241/38'
p429
asg36
(lp430
S'51.60308003776617 4.781016000000001'
p431
aS'http://www.opengis.net/def/crs/EPSG/0/4326'
p432
assS'NL.RIVM.AQ/SPO_F-NL00003_00038_101_101'
p433
(dp434
g34
(lp435
sg36
(lp436
S'52.38931403699149 4.943822'
p437
aS'http://www.opengis.net/def/crs/EPSG/0/4326'
p438
assS'NL.RIVM.AQ/SPO_F-NL00107_00038_101_102'
p439
(dp440
g34
(lp441
S'NL.RIVM.AQ/STA-NL00107/38'
p442
asg36
(lp443
S'51.11919403820476 6.0423990000000005'
p444
aS'http://www.opengis.net/def/crs/EPSG/0/4326'
p445
assS'NL.RIVM.AQ/SPO_F-NL00546_00005_100_100'
p446
(dp447
g34
(lp448
sg36
(lp449
S'52.420230036959516 4.83206'
p450
aS'http://www.opengis.net/def/crs/EPSG/0/4326'
p451
assS'NL.RIVM.AQ/SPO_F-NL00131_00015_101_101'
p452
(dp453
g34
(lp454
sg36
(lp455
S'51.540520037824535 5.853069999999999'
p456
aS'http://www.opengis.net/def/crs/EPSG/0/4326'
p457
assS'NL.RIVM.AQ/SPO_F-NL00929_00009_100_101'
p458
(dp459
g34
(lp460
sg36
(lp461
S'52.87572503647533 6.932432000000001'
p462
aS'http://www.opengis.net/def/crs/EPSG/0/4326'
p463
assS'NL.RIVM.AQ/SPO_F-NL00546_00021_100_100'
p464
(dp465
g34
(lp466
sg36
(lp467
S'52.420230036959516 4.83206'
p468
aS'http://www.opengis.net/def/crs/EPSG/0/4326'
p469
assS'NL.RIVM.AQ/SPO_F-NL00639_00008_101_102'
p470
(dp471
g34
(lp472
S'NL.RIVM.AQ/STA-NL00639/8'
p473
asg36
(lp474
S'52.06774803731743 5.120507000000001'
p475
aS'http://www.opengis.net/def/crs/EPSG/0/4326'
p476
assS'NL.RIVM.AQ/SPO_F-NL00485_00007_100_100'
p477
(dp478
g34
(lp479
sg36
(lp480
S'51.867411037514145 4.355241999999999'
p481
aS'http://www.opengis.net/def/crs/EPSG/0/4326'
p482
assS'NL.RIVM.AQ/SPO_F-NL00022_00009_101_101'
p483
(dp484
g34
(lp485
sg36
(lp486
S'52.36681103701471 4.793344000000001'
p487
aS'http://www.opengis.net/def/crs/EPSG/0/4326'
p488
assS'NL.RIVM.AQ/SPO_F-NL00538_00006_112_112'
p489
(dp490
g34
(lp491
sg36
(lp492
S'52.803657036553524 5.050509'
p493
aS'http://www.opengis.net/def/crs/EPSG/0/4326'
p494
assS'NL.RIVM.AQ/SPO_F-NL00631_00005_100_100'
p495
(dp496
g34
(lp497
S'NL.RIVM.AQ/STA-NL00631/5'
p498
asg36
(lp499
S'52.448710036929945 5.619210000000001'
p500
aS'http://www.opengis.net/def/crs/EPSG/0/4326'
p501
assS'NL.RIVM.AQ/SPO_F-NL00934_00001_101_101'
p502
(dp503
g34
(lp504
S'NL.RIVM.AQ/STA-NL00934/1'
p505
asg36
(lp506
S'53.330425035968325 6.276815'
p507
aS'http://www.opengis.net/def/crs/EPSG/0/4326'
p508
assS'NL.RIVM.AQ/SPO_F-NL00131_00629_101_101'
p509
(dp510
g34
(lp511
sg36
(lp512
S'51.540520037824535 5.853069999999999'
p513
aS'http://www.opengis.net/def/crs/EPSG/0/4326'
p514
assS'NL.RIVM.AQ/SPO_F-NL00131_00008_111_112'
p515
(dp516
g34
(lp517
S'NL.RIVM.AQ/STA-NL00131/8'
p518
asg36
(lp519
S'51.540520037824535 5.853069999999999'
p520
aS'http://www.opengis.net/def/crs/EPSG/0/4326'
p521
assS'NL.RIVM.AQ/SPO_F-NL00131_00009_101_102'
p522
(dp523
g34
(lp524
sg36
(lp525
S'51.540520037824535 5.853069999999999'
p526
aS'http://www.opengis.net/def/crs/EPSG/0/4326'
p527
assS'NL.RIVM.AQ/SPO_F-NL00012_00010_100_100'
p528
(dp529
g34
(lp530
sg36
(lp531
S'52.38998303699083 4.887811'
p532
aS'http://www.opengis.net/def/crs/EPSG/0/4326'
p533
assS'NL.RIVM.AQ/SPO_F-NL00488_00008_100_100'
p534
(dp535
g34
(lp536
sg36
(lp537
S'51.893617037488696 4.487528'
p538
aS'http://www.opengis.net/def/crs/EPSG/0/4326'
p539
assS'NL.RIVM.AQ/SPO_F-NL00488_00009_100_100'
p540
(dp541
g34
(lp542
sg36
(lp543
S'51.893617037488696 4.487528'
p544
aS'http://www.opengis.net/def/crs/EPSG/0/4326'
p545
assS'NL.RIVM.AQ/SPO_F-NL00561_00038_100_100'
p546
(dp547
g34
(lp548
sg36
(lp549
S'52.33400303704845 4.774006'
p550
aS'http://www.opengis.net/def/crs/EPSG/0/4326'
p551
assS'NL.RIVM.AQ/SPO_F-NL00537_00008_101_102'
p552
(dp553
g34
(lp554
sg36
(lp555
S'52.38104003700004 4.64759'
p556
aS'http://www.opengis.net/def/crs/EPSG/0/4326'
p557
assS'NL.RIVM.AQ/SPO_F-NL00133_00038_101_102'
p558
(dp559
g34
(lp560
S'NL.RIVM.AQ/STA-NL00133/38'
p561
asg36
(lp562
S'50.902281038391635 5.881748000000001'
p563
aS'http://www.opengis.net/def/crs/EPSG/0/4326'
p564
assS'NL.RIVM.AQ/SPO_F-NL00561_00008_100_100'
p565
(dp566
g34
(lp567
sg36
(lp568
S'52.33400303704845 4.774006'
p569
aS'http://www.opengis.net/def/crs/EPSG/0/4326'
p570
assS'NL.RIVM.AQ/SPO_F-NL00241_00005_100_101'
p571
(dp572
g34
(lp573
S'NL.RIVM.AQ/STA-NL00241/5'
p574
asg36
(lp575
S'51.60308003776617 4.781016000000001'
p576
aS'http://www.opengis.net/def/crs/EPSG/0/4326'
p577
assS'NL.RIVM.AQ/SPO_F-NL00495_00005_100_100'
p578
(dp579
g34
(lp580
sg36
(lp581
S'51.932039037451226 4.228024999999998'
p582
aS'http://www.opengis.net/def/crs/EPSG/0/4326'
p583
assS'NL.RIVM.AQ/SPO_F-NL00131_00012_101_101'
p584
(dp585
g34
(lp586
sg36
(lp587
S'51.540520037824535 5.853069999999999'
p588
aS'http://www.opengis.net/def/crs/EPSG/0/4326'
p589
assS'NL.RIVM.AQ/SPO_F-NL00491_00009_100_100'
p590
(dp591
g34
(lp592
sg36
(lp593
S'51.93847203744493 4.430692'
p594
aS'http://www.opengis.net/def/crs/EPSG/0/4326'
p595
assS'NL.RIVM.AQ/SPO_F-NL00644_00010_100_100'
p596
(dp597
g34
(lp598
S'NL.RIVM.AQ/STA-NL00644/10'
p599
asg36
(lp600
S'51.97448903740961 4.923301'
p601
aS'http://www.opengis.net/def/crs/EPSG/0/4326'
p602
assS'NL.RIVM.AQ/SPO_F-NL00538_06001_100_100'
p603
(dp604
g34
(lp605
S'NL.RIVM.AQ/STA-NL00538/6001'
p606
asg36
(lp607
S'52.803657036553524 5.050509'
p608
aS'http://www.opengis.net/def/crs/EPSG/0/4326'
p609
assS'NL.RIVM.AQ/SPO_F-NL00444_00046_101_101'
p610
(dp611
g34
(lp612
sg36
(lp613
S'52.2965560370868 4.510817'
p614
aS'http://www.opengis.net/def/crs/EPSG/0/4326'
p615
assS'NL.RIVM.AQ/SPO_F-NL00230_00009_101_102'
p616
(dp617
g34
(lp618
sg36
(lp619
S'51.518440037845004 5.1484499999999995'
p620
aS'http://www.opengis.net/def/crs/EPSG/0/4326'
p621
assS'NL.RIVM.AQ/SPO_F-NL00564_00008_100_100'
p622
(dp623
g34
(lp624
sg36
(lp625
S'52.28745003709609 4.766614000000001'
p626
aS'http://www.opengis.net/def/crs/EPSG/0/4326'
p627
assS'NL.RIVM.AQ/SPO_F-NL00546_00009_100_100'
p628
(dp629
g34
(lp630
sg36
(lp631
S'52.420230036959516 4.83206'
p632
aS'http://www.opengis.net/def/crs/EPSG/0/4326'
p633
assS'NL.RIVM.AQ/SPO_F-NL00485_00005_100_100'
p634
(dp635
g34
(lp636
sg36
(lp637
S'51.867411037514145 4.355241999999999'
p638
aS'http://www.opengis.net/def/crs/EPSG/0/4326'
p639
assS'NL.RIVM.AQ/SPO_F-NL00934_00007_111_112'
p640
(dp641
g34
(lp642
S'NL.RIVM.AQ/STA-NL00934/7'
p643
asg36
(lp644
S'53.330425035968325 6.276815'
p645
aS'http://www.opengis.net/def/crs/EPSG/0/4326'
p646
assS'NL.RIVM.AQ/SPO_F-NL00934_00659_100_100'
p647
(dp648
g34
(lp649
sg36
(lp650
S'53.330425035968325 6.276815'
p651
aS'http://www.opengis.net/def/crs/EPSG/0/4326'
p652
assS'NL.RIVM.AQ/SPO_F-NL00433_00007_101_102'
p653
(dp654
g34
(lp655
S'NL.RIVM.AQ/STA-NL00433/7'
p656
asg36
(lp657
S'51.910474037472305 4.326303'
p658
aS'http://www.opengis.net/def/crs/EPSG/0/4326'
p659
assS'NL.RIVM.AQ/SPO_F-NL00245_00038_100_100'
p660
(dp661
g34
(lp662
sg36
(lp663
S'51.69938903767535 4.623598000000001'
p664
aS'http://www.opengis.net/def/crs/EPSG/0/4326'
p665
assS'NL.RIVM.AQ/SPO_F-NL00547_00008_100_100'
p666
(dp667
g34
(lp668
S'NL.RIVM.AQ/STA-NL00547/8'
p669
asg36
(lp670
S'52.23508303714937 5.181552'
p671
aS'http://www.opengis.net/def/crs/EPSG/0/4326'
p672
assS'NL.RIVM.AQ/SPO_F-NL00014_00008_100_100'
p673
(dp674
g34
(lp675
sg36
(lp676
S'52.359714037022016 4.866208'
p677
aS'http://www.opengis.net/def/crs/EPSG/0/4326'
p678
assS'NL.RIVM.AQ/SPO_F-NL00538_00009_101_102'
p679
(dp680
g34
(lp681
sg36
(lp682
S'52.803657036553524 5.050509'
p683
aS'http://www.opengis.net/def/crs/EPSG/0/4326'
p684
assS'NL.RIVM.AQ/SPO_F-NL00444_00008_100_101'
p685
(dp686
g34
(lp687
S'NL.RIVM.AQ/STA-NL00444/8'
p688
asg36
(lp689
S'52.2965560370868 4.510817'
p690
aS'http://www.opengis.net/def/crs/EPSG/0/4326'
p691
assS'NL.RIVM.AQ/SPO_F-NL00633_00020_102_102'
p692
(dp693
g34
(lp694
sg36
(lp695
S'52.13795003724734 4.83819'
p696
aS'http://www.opengis.net/def/crs/EPSG/0/4326'
p697
assS'NL.RIVM.AQ/SPO_F-NL00241_00008_100_101'
p698
(dp699
g34
(lp700
S'NL.RIVM.AQ/STA-NL00241/8'
p701
asg36
(lp702
S'51.60308003776617 4.781016000000001'
p703
aS'http://www.opengis.net/def/crs/EPSG/0/4326'
p704
assS'NL.RIVM.AQ/SPO_F-NL00938_06001_100_101'
p705
(dp706
g34
(lp707
S'NL.RIVM.AQ/STA-NL00938/6001'
p708
asg36
(lp709
S'53.2465350360636 6.608937'
p710
aS'http://www.opengis.net/def/crs/EPSG/0/4326'
p711
assS'NL.RIVM.AQ/SPO_F-NL00003_00008_101_101'
p712
(dp713
g34
(lp714
sg36
(lp715
S'52.38931403699149 4.943822'
p716
aS'http://www.opengis.net/def/crs/EPSG/0/4326'
p717
assS'NL.RIVM.AQ/SPO_F-NL00247_00008_100_100'
p718
(dp719
g34
(lp720
S'NL.RIVM.AQ/STA-NL00247/8'
p721
asg36
(lp722
S'51.40736503794714 5.3933279999999995'
p723
aS'http://www.opengis.net/def/crs/EPSG/0/4326'
p724
assS'NL.RIVM.AQ/SPO_F-NL00017_00009_101_101'
p725
(dp726
g34
(lp727
sg36
(lp728
S'52.358039037023744 4.8997'
p729
aS'http://www.opengis.net/def/crs/EPSG/0/4326'
p730
assS'NL.RIVM.AQ/SPO_F-NL00704_00001_100_100'
p731
(dp732
g34
(lp733
sg36
(lp734
S'52.428017036951445 4.773478'
p735
aS'http://www.opengis.net/def/crs/EPSG/0/4326'
p736
assS'NL.RIVM.AQ/SPO_F-NL00131_00035_100_100'
p737
(dp738
g34
(lp739
S'NL.RIVM.AQ/STA-NL00131/35'
p740
asg36
(lp741
S'51.540520037824535 5.853069999999999'
p742
aS'http://www.opengis.net/def/crs/EPSG/0/4326'
p743
assS'NL.RIVM.AQ/SPO_F-NL00741_00010_100_100'
p744
(dp745
g34
(lp746
S'NL.RIVM.AQ/STA-NL00741/10'
p747
asg36
(lp748
S'51.841372037539365 5.857777'
p749
aS'http://www.opengis.net/def/crs/EPSG/0/4326'
p750
assS'NL.RIVM.AQ/SPO_F-NL00633_00007_111_112'
p751
(dp752
g34
(lp753
S'NL.RIVM.AQ/STA-NL00633/7'
p754
asg36
(lp755
S'52.13795003724734 4.83819'
p756
aS'http://www.opengis.net/def/crs/EPSG/0/4326'
p757
assS'NL.RIVM.AQ/SPO_F-NL00934_00629_101_101'
p758
(dp759
g34
(lp760
sg36
(lp761
S'53.330425035968325 6.276815'
p762
aS'http://www.opengis.net/def/crs/EPSG/0/4326'
p763
assS'NL.RIVM.AQ/SPO_F-NL00495_06001_100_100'
p764
(dp765
g34
(lp766
sg36
(lp767
S'51.932039037451226 4.228024999999998'
p768
aS'http://www.opengis.net/def/crs/EPSG/0/4326'
p769
assS'NL.RIVM.AQ/SPO_F-NL00131_00631_101_101'
p770
(dp771
g34
(lp772
sg36
(lp773
S'51.540520037824535 5.853069999999999'
p774
aS'http://www.opengis.net/def/crs/EPSG/0/4326'
p775
assS'NL.RIVM.AQ/SPO_F-NL00003_00007_100_100'
p776
(dp777
g34
(lp778
sg36
(lp779
S'52.38931403699149 4.943822'
p780
aS'http://www.opengis.net/def/crs/EPSG/0/4326'
p781
assS'NL.RIVM.AQ/SPO_F-NL00484_00001_100_100'
p782
(dp783
g34
(lp784
sg36
(lp785
S'51.88888903749329 4.312500000000001'
p786
aS'http://www.opengis.net/def/crs/EPSG/0/4326'
p787
assS'NL.RIVM.AQ/SPO_F-NL00241_00007_100_101'
p788
(dp789
g34
(lp790
S'NL.RIVM.AQ/STA-NL00241/7'
p791
asg36
(lp792
S'51.60308003776617 4.781016000000001'
p793
aS'http://www.opengis.net/def/crs/EPSG/0/4326'
p794
assS'NL.RIVM.AQ/SPO_F-NL00545_00005_100_100'
p795
(dp796
g34
(lp797
S'NL.RIVM.AQ/STA-NL00545/5'
p798
asg36
(lp799
S'52.339496647042814 4.84102249'
p800
aS'http://www.opengis.net/def/crs/EPSG/0/4326'
p801
assS'NL.RIVM.AQ/SPO_F-NL00741_00005_100_101'
p802
(dp803
g34
(lp804
S'NL.RIVM.AQ/STA-NL00741/5'
p805
asg36
(lp806
S'51.841372037539365 5.857777'
p807
aS'http://www.opengis.net/def/crs/EPSG/0/4326'
p808
assS'NL.RIVM.AQ/SPO_F-NL00486_00001_100_100'
p809
(dp810
g34
(lp811
sg36
(lp812
S'51.8878690374943 4.388808000000001'
p813
aS'http://www.opengis.net/def/crs/EPSG/0/4326'
p814
assS'NL.RIVM.AQ/SPO_F-NL00491_06001_100_100'
p815
(dp816
g34
(lp817
sg36
(lp818
S'51.93847203744493 4.430692'
p819
aS'http://www.opengis.net/def/crs/EPSG/0/4326'
p820
assS'NL.RIVM.AQ/SPO_F-NL00538_00005_100_101'
p821
(dp822
g34
(lp823
S'NL.RIVM.AQ/STA-NL00538/5'
p824
asg36
(lp825
S'52.803657036553524 5.050509'
p826
aS'http://www.opengis.net/def/crs/EPSG/0/4326'
p827
assS'NL.RIVM.AQ/SPO_F-NL00938_00008_100_101'
p828
(dp829
g34
(lp830
S'NL.RIVM.AQ/STA-NL00938/8'
p831
asg36
(lp832
S'53.2465350360636 6.608937'
p833
aS'http://www.opengis.net/def/crs/EPSG/0/4326'
p834
assS'NL.RIVM.AQ/SPO_F-NL00489_00038_100_100'
p835
(dp836
g34
(lp837
sg36
(lp838
S'51.869431037512186 4.580058'
p839
aS'http://www.opengis.net/def/crs/EPSG/0/4326'
p840
assS'NL.RIVM.AQ/SPO_F-NL00448_06001_100_101'
p841
(dp842
g34
(lp843
S'NL.RIVM.AQ/STA-NL00448/6001'
p844
asg36
(lp845
S'51.927110037456046 4.461340000000001'
p846
aS'http://www.opengis.net/def/crs/EPSG/0/4326'
p847
assS'NL.RIVM.AQ/SPO_F-NL00003_00009_101_101'
p848
(dp849
g34
(lp850
sg36
(lp851
S'52.38931403699149 4.943822'
p852
aS'http://www.opengis.net/def/crs/EPSG/0/4326'
p853
assS'NL.RIVM.AQ/SPO_F-NL00633_00021_101_101'
p854
(dp855
g34
(lp856
sg36
(lp857
S'52.13795003724734 4.83819'
p858
aS'http://www.opengis.net/def/crs/EPSG/0/4326'
p859
assS'NL.RIVM.AQ/SPO_F-NL00639_00021_100_101'
p860
(dp861
g34
(lp862
sg36
(lp863
S'52.06774803731743 5.120507000000001'
p864
aS'http://www.opengis.net/def/crs/EPSG/0/4326'
p865
assS'NL.RIVM.AQ/SPO_F-NL00137_00009_100_101'
p866
(dp867
g34
(lp868
sg36
(lp869
S'50.88487003840636 5.977283'
p870
aS'http://www.opengis.net/def/crs/EPSG/0/4326'
p871
assS'NL.RIVM.AQ/SPO_F-NL00012_00008_101_101'
p872
(dp873
g34
(lp874
sg36
(lp875
S'52.38998303699083 4.887811'
p876
aS'http://www.opengis.net/def/crs/EPSG/0/4326'
p877
assS'NL.RIVM.AQ/SPO_F-NL00301_00038_101_102'
p878
(dp879
g34
(lp880
S'NL.RIVM.AQ/STA-NL00301/38'
p881
asg36
(lp882
S'51.634706037736464 3.9166229999999995'
p883
aS'http://www.opengis.net/def/crs/EPSG/0/4326'
p884
assS'NL.RIVM.AQ/SPO_F-NL00433_00629_101_101'
p885
(dp886
g34
(lp887
sg36
(lp888
S'51.910474037472305 4.326303'
p889
aS'http://www.opengis.net/def/crs/EPSG/0/4326'
p890
assS'NL.RIVM.AQ/SPO_F-NL00564_00007_100_100'
p891
(dp892
g34
(lp893
sg36
(lp894
S'52.28745003709609 4.766614000000001'
p895
aS'http://www.opengis.net/def/crs/EPSG/0/4326'
p896
assS'NL.RIVM.AQ/SPO_F-NL00547_00009_100_100'
p897
(dp898
g34
(lp899
sg36
(lp900
S'52.23508303714937 5.181552'
p901
aS'http://www.opengis.net/def/crs/EPSG/0/4326'
p902
assS'NL.RIVM.AQ/SPO_F-NL00131_00018_101_101'
p903
(dp904
g34
(lp905
sg36
(lp906
S'51.540520037824535 5.853069999999999'
p907
aS'http://www.opengis.net/def/crs/EPSG/0/4326'
p908
assS'NL.RIVM.AQ/SPO_F-NL00442_00005_100_100'
p909
(dp910
g34
(lp911
S'NL.RIVM.AQ/STA-NL00442/5'
p912
asg36
(lp913
S'51.80065803757861 4.708238999999999'
p914
aS'http://www.opengis.net/def/crs/EPSG/0/4326'
p915
assS'NL.RIVM.AQ/SPO_F-NL00741_00038_100_101'
p916
(dp917
g34
(lp918
S'NL.RIVM.AQ/STA-NL00741/38'
p919
asg36
(lp920
S'51.841372037539365 5.857777'
p921
aS'http://www.opengis.net/def/crs/EPSG/0/4326'
p922
assS'NL.RIVM.AQ/SPO_F-NL00002_00038_101_101'
p923
(dp924
g34
(lp925
sg36
(lp926
S'52.385422036995514 4.87575'
p927
aS'http://www.opengis.net/def/crs/EPSG/0/4326'
p928
assS'NL.RIVM.AQ/SPO_F-NL00494_00005_100_100'
p929
(dp930
g34
(lp931
sg36
(lp932
S'51.92138903746164 4.401388999999999'
p933
aS'http://www.opengis.net/def/crs/EPSG/0/4326'
p934
assS'NL.RIVM.AQ/SPO_F-NL00633_00431_102_102'
p935
(dp936
g34
(lp937
sg36
(lp938
S'52.13795003724734 4.83819'
p939
aS'http://www.opengis.net/def/crs/EPSG/0/4326'
p940
assS'NL.RIVM.AQ/SPO_F-NL00131_06001_100_101'
p941
(dp942
g34
(lp943
S'NL.RIVM.AQ/STA-NL00131/6001'
p944
asg36
(lp945
S'51.540520037824535 5.853069999999999'
p946
aS'http://www.opengis.net/def/crs/EPSG/0/4326'
p947
assS'NL.RIVM.AQ/SPO_F-NL00538_00007_111_112'
p948
(dp949
g34
(lp950
S'NL.RIVM.AQ/STA-NL00538/7'
p951
asg36
(lp952
S'52.803657036553524 5.050509'
p953
aS'http://www.opengis.net/def/crs/EPSG/0/4326'
p954
assS'NL.RIVM.AQ/SPO_F-NL00918_00009_101_102'
p955
(dp956
g34
(lp957
sg36
(lp958
S'52.91691592643034 5.573491569999999'
p959
aS'http://www.opengis.net/def/crs/EPSG/0/4326'
p960
assS'NL.RIVM.AQ/SPO_F-NL00002_00009_101_101'
p961
(dp962
g34
(lp963
sg36
(lp964
S'52.385422036995514 4.87575'
p965
aS'http://www.opengis.net/def/crs/EPSG/0/4326'
p966
assS'NL.RIVM.AQ/SPO_F-NL00433_00015_101_101'
p967
(dp968
g34
(lp969
sg36
(lp970
S'51.910474037472305 4.326303'
p971
aS'http://www.opengis.net/def/crs/EPSG/0/4326'
p972
assS'NL.RIVM.AQ/SPO_F-NL00236_00005_100_101'
p973
(dp974
g34
(lp975
S'NL.RIVM.AQ/STA-NL00236/5'
p976
asg36
(lp977
S'51.46866203789098 5.47235'
p978
aS'http://www.opengis.net/def/crs/EPSG/0/4326'
p979
assS'NL.RIVM.AQ/SPO_F-NL00240_00005_100_101'
p980
(dp981
g34
(lp982
S'NL.RIVM.AQ/STA-NL00240/5'
p983
asg36
(lp984
S'51.5935330377751 4.824944'
p985
aS'http://www.opengis.net/def/crs/EPSG/0/4326'
p986
assS'NL.RIVM.AQ/SPO_F-NL00014_00009_100_100'
p987
(dp988
g34
(lp989
sg36
(lp990
S'52.359714037022016 4.866208'
p991
aS'http://www.opengis.net/def/crs/EPSG/0/4326'
p992
assS'NL.RIVM.AQ/SPO_F-NL00442_00007_100_100'
p993
(dp994
g34
(lp995
S'NL.RIVM.AQ/STA-NL00442/7'
p996
asg36
(lp997
S'51.80065803757861 4.708238999999999'
p998
aS'http://www.opengis.net/def/crs/EPSG/0/4326'
p999
assS'NL.RIVM.AQ/SPO_F-NL00240_00006_100_100'
p1000
(dp1001
g34
(lp1002
sg36
(lp1003
S'51.5935330377751 4.824944'
p1004
aS'http://www.opengis.net/def/crs/EPSG/0/4326'
p1005
assS'NL.RIVM.AQ/SPO_F-NL00627_00668_100_100'
p1006
(dp1007
g34
(lp1008
sg36
(lp1009
S'52.12083303726448 5.195567'
p1010
aS'http://www.opengis.net/def/crs/EPSG/0/4326'
p1011
assS'NL.RIVM.AQ/SPO_F-NL00496_06001_100_100'
p1012
(dp1013
g34
(lp1014
sg36
(lp1015
S'51.97780303740636 4.121944000000001'
p1016
aS'http://www.opengis.net/def/crs/EPSG/0/4326'
p1017
assS'NL.RIVM.AQ/SPO_F-NL00444_00007_100_101'
p1018
(dp1019
g34
(lp1020
S'NL.RIVM.AQ/STA-NL00444/7'
p1021
asg36
(lp1022
S'52.2965560370868 4.510817'
p1023
aS'http://www.opengis.net/def/crs/EPSG/0/4326'
p1024
assS'NL.RIVM.AQ/SPO_F-NL00639_00431_100_101'
p1025
(dp1026
g34
(lp1027
sg36
(lp1028
S'52.06774803731743 5.120507000000001'
p1029
aS'http://www.opengis.net/def/crs/EPSG/0/4326'
p1030
assS'NL.RIVM.AQ/SPO_F-NL00738_06001_100_100'
p1031
(dp1032
g34
(lp1033
S'NL.RIVM.AQ/STA-NL00738/6001'
p1034
asg36
(lp1035
S'52.111621037273686 5.708418999999999'
p1036
aS'http://www.opengis.net/def/crs/EPSG/0/4326'
p1037
assS'NL.RIVM.AQ/SPO_F-NL00312_00005_100_100'
p1038
(dp1039
g34
(lp1040
sg36
(lp1041
S'51.28452803805824 3.9153460000000004'
p1042
aS'http://www.opengis.net/def/crs/EPSG/0/4326'
p1043
assS'NL.RIVM.AQ/SPO_F-NL00136_00038_100_101'
p1044
(dp1045
g34
(lp1046
S'NL.RIVM.AQ/STA-NL00136/38'
p1047
asg36
(lp1048
S'50.88795903840375 5.970496'
p1049
aS'http://www.opengis.net/def/crs/EPSG/0/4326'
p1050
assS'NL.RIVM.AQ/SPO_F-NL00538_00047_101_101'
p1051
(dp1052
g34
(lp1053
sg36
(lp1054
S'52.803657036553524 5.050509'
p1055
aS'http://www.opengis.net/def/crs/EPSG/0/4326'
p1056
assS'NL.RIVM.AQ/SPO_F-NL00818_00007_100_101'
p1057
(dp1058
g34
(lp1059
S'NL.RIVM.AQ/STA-NL00818/7'
p1060
asg36
(lp1061
S'52.65414403671388 6.017571'
p1062
aS'http://www.opengis.net/def/crs/EPSG/0/4326'
p1063
assS'NL.RIVM.AQ/SPO_F-NL00404_00007_111_112'
p1064
(dp1065
g34
(lp1066
S'NL.RIVM.AQ/STA-NL00404/7'
p1067
asg36
(lp1068
S'52.07714803730809 4.289185000000001'
p1069
aS'http://www.opengis.net/def/crs/EPSG/0/4326'
p1070
assS'NL.RIVM.AQ/SPO_F-NL00722_00001_111_111'
p1071
(dp1072
g34
(lp1073
S'NL.RIVM.AQ/STA-NL00722/1'
p1074
asg36
(lp1075
S'52.09180103729347 6.605367'
p1076
aS'http://www.opengis.net/def/crs/EPSG/0/4326'
p1077
assS'NL.RIVM.AQ/SPO_F-NL00022_00038_101_101'
p1078
(dp1079
g34
(lp1080
sg36
(lp1081
S'52.36681103701471 4.793344000000001'
p1082
aS'http://www.opengis.net/def/crs/EPSG/0/4326'
p1083
assS'NL.RIVM.AQ/SPO_F-NL00016_00005_100_100'
p1084
(dp1085
g34
(lp1086
sg36
(lp1087
S'52.39397203698668 4.870157000000001'
p1088
aS'http://www.opengis.net/def/crs/EPSG/0/4326'
p1089
assS'NL.RIVM.AQ/SPO_F-NL00564_00009_100_100'
p1090
(dp1091
g34
(lp1092
sg36
(lp1093
S'52.28745003709609 4.766614000000001'
p1094
aS'http://www.opengis.net/def/crs/EPSG/0/4326'
p1095
assS'NL.RIVM.AQ/SPO_F-NL00556_00005_100_100'
p1096
(dp1097
g34
(lp1098
sg36
(lp1099
S'52.56359003680973 4.8617'
p1100
aS'http://www.opengis.net/def/crs/EPSG/0/4326'
p1101
assS'NL.RIVM.AQ/SPO_F-NL00742_06001_100_100'
p1102
(dp1103
g34
(lp1104
S'NL.RIVM.AQ/STA-NL00742/6001'
p1105
asg36
(lp1106
S'51.83822103754241 5.856938'
p1107
aS'http://www.opengis.net/def/crs/EPSG/0/4326'
p1108
assS'NL.RIVM.AQ/SPO_F-NL00821_06001_100_100'
p1109
(dp1110
g34
(lp1111
S'NL.RIVM.AQ/STA-NL00821/6001'
p1112
asg36
(lp1113
S'52.23450403714996 6.919493999999999'
p1114
aS'http://www.opengis.net/def/crs/EPSG/0/4326'
p1115
assS'NL.RIVM.AQ/SPO_F-NL00722_00005_100_101'
p1116
(dp1117
g34
(lp1118
S'NL.RIVM.AQ/STA-NL00722/5'
p1119
asg36
(lp1120
S'52.09180103729347 6.605367'
p1121
aS'http://www.opengis.net/def/crs/EPSG/0/4326'
p1122
assS'NL.RIVM.AQ/SPO_F-NL00551_00005_100_100'
p1123
(dp1124
g34
(lp1125
sg36
(lp1126
S'52.46303903691505 4.6018419999999995'
p1127
aS'http://www.opengis.net/def/crs/EPSG/0/4326'
p1128
assS'NL.RIVM.AQ/SPO_F-NL00446_00009_100_100'
p1129
(dp1130
g34
(lp1131
sg36
(lp1132
S'52.03902303734593 4.359376000000001'
p1133
aS'http://www.opengis.net/def/crs/EPSG/0/4326'
p1134
assS'NL.RIVM.AQ/SPO_F-NL00319_00005_100_100'
p1135
(dp1136
g34
(lp1137
sg36
(lp1138
S'51.46445703789485 3.744999'
p1139
aS'http://www.opengis.net/def/crs/EPSG/0/4326'
p1140
assS'NL.RIVM.AQ/SPO_F-NL00246_00005_100_100'
p1141
(dp1142
g34
(lp1143
S'NL.RIVM.AQ/STA-NL00246/5'
p1144
asg36
(lp1145
S'51.65372903771855 4.515271'
p1146
aS'http://www.opengis.net/def/crs/EPSG/0/4326'
p1147
assS'NL.RIVM.AQ/SPO_F-NL00485_00021_100_100'
p1148
(dp1149
g34
(lp1150
sg36
(lp1151
S'51.867411037514145 4.355241999999999'
p1152
aS'http://www.opengis.net/def/crs/EPSG/0/4326'
p1153
assS'NL.RIVM.AQ/SPO_F-NL00418_00005_100_101'
p1154
(dp1155
g34
(lp1156
S'NL.RIVM.AQ/STA-NL00418/5'
p1157
asg36
(lp1158
S'51.914233037468634 4.479923'
p1159
aS'http://www.opengis.net/def/crs/EPSG/0/4326'
p1160
assS'NL.RIVM.AQ/SPO_F-NL00014_06001_101_101'
p1161
(dp1162
g34
(lp1163
sg36
(lp1164
S'52.359714037022016 4.866208'
p1165
aS'http://www.opengis.net/def/crs/EPSG/0/4326'
p1166
assS'NL.RIVM.AQ/SPO_F-NL00019_00038_101_101'
p1167
(dp1168
g34
(lp1169
sg36
(lp1170
S'52.372056037009315 4.9044'
p1171
aS'http://www.opengis.net/def/crs/EPSG/0/4326'
p1172
assS'NL.RIVM.AQ/SPO_F-NL00488_00038_100_100'
p1173
(dp1174
g34
(lp1175
sg36
(lp1176
S'51.893617037488696 4.487528'
p1177
aS'http://www.opengis.net/def/crs/EPSG/0/4326'
p1178
assS'NL.RIVM.AQ/SPO_F-NL00487_00008_100_100'
p1179
(dp1180
g34
(lp1181
sg36
(lp1182
S'51.89114703749109 4.480690000000001'
p1183
aS'http://www.opengis.net/def/crs/EPSG/0/4326'
p1184
assS'NL.RIVM.AQ/SPO_F-NL00561_00005_100_100'
p1185
(dp1186
g34
(lp1187
sg36
(lp1188
S'52.33400303704845 4.774006'
p1189
aS'http://www.opengis.net/def/crs/EPSG/0/4326'
p1190
assS'NL.RIVM.AQ/SPO_F-NL00627_00012_102_102'
p1191
(dp1192
g34
(lp1193
sg36
(lp1194
S'52.12083303726448 5.195567'
p1195
aS'http://www.opengis.net/def/crs/EPSG/0/4326'
p1196
assS'NL.RIVM.AQ/SPO_F-NL00704_00038_100_100'
p1197
(dp1198
g34
(lp1199
sg36
(lp1200
S'52.428017036951445 4.773478'
p1201
aS'http://www.opengis.net/def/crs/EPSG/0/4326'
p1202
assS'NL.RIVM.AQ/SPO_F-NL00633_00009_101_102'
p1203
(dp1204
g34
(lp1205
sg36
(lp1206
S'52.13795003724734 4.83819'
p1207
aS'http://www.opengis.net/def/crs/EPSG/0/4326'
p1208
assS'NL.RIVM.AQ/SPO_F-NL00404_06001_100_101'
p1209
(dp1210
g34
(lp1211
S'NL.RIVM.AQ/STA-NL00404/6001'
p1212
asg36
(lp1213
S'52.07714803730809 4.289185000000001'
p1214
aS'http://www.opengis.net/def/crs/EPSG/0/4326'
p1215
assS'NL.RIVM.AQ/SPO_F-NL00136_06001_100_100'
p1216
(dp1217
g34
(lp1218
S'NL.RIVM.AQ/STA-NL00136/6001'
p1219
asg36
(lp1220
S'50.88795903840375 5.970496'
p1221
aS'http://www.opengis.net/def/crs/EPSG/0/4326'
p1222
assS'NL.RIVM.AQ/SPO_F-NL00553_00010_100_100'
p1223
(dp1224
g34
(lp1225
sg36
(lp1226
S'52.49399203688275 4.601986000000001'
p1227
aS'http://www.opengis.net/def/crs/EPSG/0/4326'
p1228
assS'NL.RIVM.AQ/SPO_F-NL00235_00038_101_102'
p1229
(dp1230
g34
(lp1231
S'NL.RIVM.AQ/STA-NL00235/38'
p1232
asg36
(lp1233
S'51.43444303792239 4.359835'
p1234
aS'http://www.opengis.net/def/crs/EPSG/0/4326'
p1235
assS'NL.RIVM.AQ/SPO_F-NL00742_00038_100_101'
p1236
(dp1237
g34
(lp1238
S'NL.RIVM.AQ/STA-NL00742/38'
p1239
asg36
(lp1240
S'51.83822103754241 5.856938'
p1241
aS'http://www.opengis.net/def/crs/EPSG/0/4326'
p1242
assS'NL.RIVM.AQ/SPO_F-NL00482_00005_100_100'
p1243
(dp1244
g34
(lp1245
sg36
(lp1246
S'51.95941703742444 4.091394000000001'
p1247
aS'http://www.opengis.net/def/crs/EPSG/0/4326'
p1248
assS'NL.RIVM.AQ/SPO_F-NL00807_00009_101_102'
p1249
(dp1250
g34
(lp1251
sg36
(lp1252
S'52.388272036992596 6.402933000000001'
p1253
aS'http://www.opengis.net/def/crs/EPSG/0/4326'
p1254
assS'NL.RIVM.AQ/SPO_F-NL00489_06001_100_100'
p1255
(dp1256
g34
(lp1257
sg36
(lp1258
S'51.869431037512186 4.580058'
p1259
aS'http://www.opengis.net/def/crs/EPSG/0/4326'
p1260
assS'NL.RIVM.AQ/SPO_F-NL00643_00007_100_100'
p1261
(dp1262
g34
(lp1263
S'NL.RIVM.AQ/STA-NL00643/7'
p1264
asg36
(lp1265
S'52.101308037284014 5.128183'
p1266
aS'http://www.opengis.net/def/crs/EPSG/0/4326'
p1267
assS'NL.RIVM.AQ/SPO_F-NL00017_00005_100_100'
p1268
(dp1269
g34
(lp1270
sg36
(lp1271
S'52.358039037023744 4.8997'
p1272
aS'http://www.opengis.net/def/crs/EPSG/0/4326'
p1273
assS'NL.RIVM.AQ/SPO_F-NL00495_00001_100_100'
p1274
(dp1275
g34
(lp1276
sg36
(lp1277
S'51.932039037451226 4.228024999999998'
p1278
aS'http://www.opengis.net/def/crs/EPSG/0/4326'
p1279
assS'NL.RIVM.AQ/SPO_F-NL00551_00009_100_100'
p1280
(dp1281
g34
(lp1282
sg36
(lp1283
S'52.46303903691505 4.6018419999999995'
p1284
aS'http://www.opengis.net/def/crs/EPSG/0/4326'
p1285
assS'NL.RIVM.AQ/SPO_F-NL00495_00021_100_100'
p1286
(dp1287
g34
(lp1288
sg36
(lp1289
S'51.932039037451226 4.228024999999998'
p1290
aS'http://www.opengis.net/def/crs/EPSG/0/4326'
p1291
assS'NL.RIVM.AQ/SPO_F-NL00722_00009_101_102'
p1292
(dp1293
g34
(lp1294
sg36
(lp1295
S'52.09180103729347 6.605367'
p1296
aS'http://www.opengis.net/def/crs/EPSG/0/4326'
p1297
assS'NL.RIVM.AQ/SPO_F-NL00553_00009_100_100'
p1298
(dp1299
g34
(lp1300
sg36
(lp1301
S'52.49399203688275 4.601986000000001'
p1302
aS'http://www.opengis.net/def/crs/EPSG/0/4326'
p1303
assS'NL.RIVM.AQ/SPO_F-NL00627_00063_101_101'
p1304
(dp1305
g34
(lp1306
sg36
(lp1307
S'52.12083303726448 5.195567'
p1308
aS'http://www.opengis.net/def/crs/EPSG/0/4326'
p1309
assS'NL.RIVM.AQ/SPO_F-NL00703_00038_100_100'
p1310
(dp1311
g34
(lp1312
sg36
(lp1313
S'52.39843703698208 4.728581'
p1314
aS'http://www.opengis.net/def/crs/EPSG/0/4326'
p1315
assS'NL.RIVM.AQ/SPO_F-NL00247_00007_100_100'
p1316
(dp1317
g34
(lp1318
S'NL.RIVM.AQ/STA-NL00247/7'
p1319
asg36
(lp1320
S'51.40736503794714 5.3933279999999995'
p1321
aS'http://www.opengis.net/def/crs/EPSG/0/4326'
p1322
assS'NL.RIVM.AQ/SPO_F-NL00703_06001_100_100'
p1323
(dp1324
g34
(lp1325
sg36
(lp1326
S'52.39843703698208 4.728581'
p1327
aS'http://www.opengis.net/def/crs/EPSG/0/4326'
p1328
assS'NL.RIVM.AQ/SPO_F-NL00444_00045_101_101'
p1329
(dp1330
g34
(lp1331
sg36
(lp1332
S'52.2965560370868 4.510817'
p1333
aS'http://www.opengis.net/def/crs/EPSG/0/4326'
p1334
assS'NL.RIVM.AQ/SPO_F-NL00437_00008_101_102'
p1335
(dp1336
g34
(lp1337
S'NL.RIVM.AQ/STA-NL00437/8'
p1338
asg36
(lp1339
S'51.78657903759214 4.450529000000001'
p1340
aS'http://www.opengis.net/def/crs/EPSG/0/4326'
p1341
assS'NL.RIVM.AQ/SPO_F-NL00444_00009_100_101'
p1342
(dp1343
g34
(lp1344
sg36
(lp1345
S'52.2965560370868 4.510817'
p1346
aS'http://www.opengis.net/def/crs/EPSG/0/4326'
p1347
assS'NL.RIVM.AQ/SPO_F-NL00538_00631_101_101'
p1348
(dp1349
g34
(lp1350
sg36
(lp1351
S'52.803657036553524 5.050509'
p1352
aS'http://www.opengis.net/def/crs/EPSG/0/4326'
p1353
assS'NL.RIVM.AQ/SPO_F-NL00496_00009_100_100'
p1354
(dp1355
g34
(lp1356
sg36
(lp1357
S'51.97780303740636 4.121944000000001'
p1358
aS'http://www.opengis.net/def/crs/EPSG/0/4326'
p1359
assS'NL.RIVM.AQ/SPO_F-NL00929_00047_101_101'
p1360
(dp1361
g34
(lp1362
sg36
(lp1363
S'52.87572503647533 6.932432000000001'
p1364
aS'http://www.opengis.net/def/crs/EPSG/0/4326'
p1365
assS'NL.RIVM.AQ/SPO_F-NL00017_00008_101_101'
p1366
(dp1367
g34
(lp1368
sg36
(lp1369
S'52.358039037023744 4.8997'
p1370
aS'http://www.opengis.net/def/crs/EPSG/0/4326'
p1371
assS'NL.RIVM.AQ/SPO_F-NL00641_00038_100_101'
p1372
(dp1373
g34
(lp1374
S'NL.RIVM.AQ/STA-NL00641/38'
p1375
asg36
(lp1376
S'52.20153003718333 4.987444000000001'
p1377
aS'http://www.opengis.net/def/crs/EPSG/0/4326'
p1378
assS'NL.RIVM.AQ/SPO_F-NL00240_00009_100_100'
p1379
(dp1380
g34
(lp1381
sg36
(lp1382
S'51.5935330377751 4.824944'
p1383
aS'http://www.opengis.net/def/crs/EPSG/0/4326'
p1384
assS'NL.RIVM.AQ/SPO_F-NL00235_00005_100_100'
p1385
(dp1386
g34
(lp1387
S'NL.RIVM.AQ/STA-NL00235/5'
p1388
asg36
(lp1389
S'51.43444303792239 4.359835'
p1390
aS'http://www.opengis.net/def/crs/EPSG/0/4326'
p1391
assS'NL.RIVM.AQ/SPO_F-NL00489_00005_100_100'
p1392
(dp1393
g34
(lp1394
sg36
(lp1395
S'51.869431037512186 4.580058'
p1396
aS'http://www.opengis.net/def/crs/EPSG/0/4326'
p1397
assS'NL.RIVM.AQ/SPO_F-NL00131_00038_111_112'
p1398
(dp1399
g34
(lp1400
S'NL.RIVM.AQ/STA-NL00131/38'
p1401
asg36
(lp1402
S'51.540520037824535 5.853069999999999'
p1403
aS'http://www.opengis.net/def/crs/EPSG/0/4326'
p1404
assS'NL.RIVM.AQ/SPO_F-NL00934_00038_111_112'
p1405
(dp1406
g34
(lp1407
S'NL.RIVM.AQ/STA-NL00934/38'
p1408
asg36
(lp1409
S'53.330425035968325 6.276815'
p1410
aS'http://www.opengis.net/def/crs/EPSG/0/4326'
p1411
assS'NL.RIVM.AQ/SPO_F-NL00496_00008_100_100'
p1412
(dp1413
g34
(lp1414
sg36
(lp1415
S'51.97780303740636 4.121944000000001'
p1416
aS'http://www.opengis.net/def/crs/EPSG/0/4326'
p1417
assS'NL.RIVM.AQ/SPO_F-NL00639_00020_100_101'
p1418
(dp1419
g34
(lp1420
sg36
(lp1421
S'52.06774803731743 5.120507000000001'
p1422
aS'http://www.opengis.net/def/crs/EPSG/0/4326'
p1423
assS'NL.RIVM.AQ/SPO_F-NL00444_06001_100_101'
p1424
(dp1425
g34
(lp1426
S'NL.RIVM.AQ/STA-NL00444/6001'
p1427
asg36
(lp1428
S'52.2965560370868 4.510817'
p1429
aS'http://www.opengis.net/def/crs/EPSG/0/4326'
p1430
assS'NL.RIVM.AQ/SPO_F-NL00131_00014_101_101'
p1431
(dp1432
g34
(lp1433
sg36
(lp1434
S'51.540520037824535 5.853069999999999'
p1435
aS'http://www.opengis.net/def/crs/EPSG/0/4326'
p1436
assS'NL.RIVM.AQ/SPO_F-NL00493_00007_100_100'
p1437
(dp1438
g34
(lp1439
sg36
(lp1440
S'51.92711103745604 4.461344'
p1441
aS'http://www.opengis.net/def/crs/EPSG/0/4326'
p1442
assS'NL.RIVM.AQ/SPO_F-NL00934_00005_100_100'
p1443
(dp1444
g34
(lp1445
S'NL.RIVM.AQ/STA-NL00934/5'
p1446
asg36
(lp1447
S'53.330425035968325 6.276815'
p1448
aS'http://www.opengis.net/def/crs/EPSG/0/4326'
p1449
assS'NL.RIVM.AQ/SPO_F-NL00934_00009_101_102'
p1450
(dp1451
g34
(lp1452
sg36
(lp1453
S'53.330425035968325 6.276815'
p1454
aS'http://www.opengis.net/def/crs/EPSG/0/4326'
p1455
assS'NL.RIVM.AQ/SPO_F-NL00246_00008_100_100'
p1456
(dp1457
g34
(lp1458
S'NL.RIVM.AQ/STA-NL00246/8'
p1459
asg36
(lp1460
S'51.65372903771855 4.515271'
p1461
aS'http://www.opengis.net/def/crs/EPSG/0/4326'
p1462
assS'NL.RIVM.AQ/SPO_F-NL00548_00008_100_100'
p1463
(dp1464
g34
(lp1465
sg36
(lp1466
S'52.26798003711595 5.1758299999999995'
p1467
aS'http://www.opengis.net/def/crs/EPSG/0/4326'
p1468
assS'NL.RIVM.AQ/SPO_F-NL00565_00005_100_100'
p1469
(dp1470
g34
(lp1471
sg36
(lp1472
S'52.32746403705515 4.715008000000001'
p1473
aS'http://www.opengis.net/def/crs/EPSG/0/4326'
p1474
assS'NL.RIVM.AQ/SPO_F-NL00482_06001_100_100'
p1475
(dp1476
g34
(lp1477
sg36
(lp1478
S'51.95941703742444 4.091394000000001'
p1479
aS'http://www.opengis.net/def/crs/EPSG/0/4326'
p1480
assS'NL.RIVM.AQ/SPO_F-NL00230_00005_100_101'
p1481
(dp1482
g34
(lp1483
S'NL.RIVM.AQ/STA-NL00230/5'
p1484
asg36
(lp1485
S'51.518440037845004 5.1484499999999995'
p1486
aS'http://www.opengis.net/def/crs/EPSG/0/4326'
p1487
assS'NL.RIVM.AQ/SPO_F-NL00494_00009_100_100'
p1488
(dp1489
g34
(lp1490
sg36
(lp1491
S'51.92138903746164 4.401388999999999'
p1492
aS'http://www.opengis.net/def/crs/EPSG/0/4326'
p1493
assS'NL.RIVM.AQ/SPO_F-NL00644_06001_100_100'
p1494
(dp1495
g34
(lp1496
S'NL.RIVM.AQ/STA-NL00644/6001'
p1497
asg36
(lp1498
S'51.97448903740961 4.923301'
p1499
aS'http://www.opengis.net/def/crs/EPSG/0/4326'
p1500
assS'NL.RIVM.AQ/SPO_F-NL00237_00038_101_102'
p1501
(dp1502
g34
(lp1503
S'NL.RIVM.AQ/STA-NL00237/38'
p1504
asg36
(lp1505
S'51.44415703791349 5.444833000000001'
p1506
aS'http://www.opengis.net/def/crs/EPSG/0/4326'
p1507
assS'NL.RIVM.AQ/SPO_F-NL00496_00038_100_100'
p1508
(dp1509
g34
(lp1510
sg36
(lp1511
S'51.97780303740636 4.121944000000001'
p1512
aS'http://www.opengis.net/def/crs/EPSG/0/4326'
p1513
assS'NL.RIVM.AQ/SPO_F-NL00136_00008_100_101'
p1514
(dp1515
g34
(lp1516
S'NL.RIVM.AQ/STA-NL00136/8'
p1517
asg36
(lp1518
S'50.88795903840375 5.970496'
p1519
aS'http://www.opengis.net/def/crs/EPSG/0/4326'
p1520
assS'NL.RIVM.AQ/SPO_F-NL00918_00038_101_102'
p1521
(dp1522
g34
(lp1523
S'NL.RIVM.AQ/STA-NL00918/38'
p1524
asg36
(lp1525
S'52.91691592643034 5.573491569999999'
p1526
aS'http://www.opengis.net/def/crs/EPSG/0/4326'
p1527
assS'NL.RIVM.AQ/SPO_F-NL00538_00008_111_112'
p1528
(dp1529
g34
(lp1530
S'NL.RIVM.AQ/STA-NL00538/8'
p1531
asg36
(lp1532
S'52.803657036553524 5.050509'
p1533
aS'http://www.opengis.net/def/crs/EPSG/0/4326'
p1534
assS'NL.RIVM.AQ/SPO_F-NL00495_00020_100_100'
p1535
(dp1536
g34
(lp1537
sg36
(lp1538
S'51.932039037451226 4.228024999999998'
p1539
aS'http://www.opengis.net/def/crs/EPSG/0/4326'
p1540
assS'NL.RIVM.AQ/SPO_F-NL00133_00009_101_102'
p1541
(dp1542
g34
(lp1543
sg36
(lp1544
S'50.902281038391635 5.881748000000001'
p1545
aS'http://www.opengis.net/def/crs/EPSG/0/4326'
p1546
assS'NL.RIVM.AQ/SPO_F-NL00633_00464_102_102'
p1547
(dp1548
g34
(lp1549
sg36
(lp1550
S'52.13795003724734 4.83819'
p1551
aS'http://www.opengis.net/def/crs/EPSG/0/4326'
p1552
assS'NL.RIVM.AQ/SPO_F-NL00722_00007_111_112'
p1553
(dp1554
g34
(lp1555
S'NL.RIVM.AQ/STA-NL00722/7'
p1556
asg36
(lp1557
S'52.09180103729347 6.605367'
p1558
aS'http://www.opengis.net/def/crs/EPSG/0/4326'
p1559
assS'NL.RIVM.AQ/SPO_F-NL00641_00007_100_101'
p1560
(dp1561
g34
(lp1562
S'NL.RIVM.AQ/STA-NL00641/7'
p1563
asg36
(lp1564
S'52.20153003718333 4.987444000000001'
p1565
aS'http://www.opengis.net/def/crs/EPSG/0/4326'
p1566
assS'NL.RIVM.AQ/SPO_F-NL00019_00009_101_101'
p1567
(dp1568
g34
(lp1569
sg36
(lp1570
S'52.372056037009315 4.9044'
p1571
aS'http://www.opengis.net/def/crs/EPSG/0/4326'
p1572
assS'NL.RIVM.AQ/SPO_F-NL00741_00008_100_101'
p1573
(dp1574
g34
(lp1575
S'NL.RIVM.AQ/STA-NL00741/8'
p1576
asg36
(lp1577
S'51.841372037539365 5.857777'
p1578
aS'http://www.opengis.net/def/crs/EPSG/0/4326'
p1579
assS'NL.RIVM.AQ/SPO_F-NL00433_00008_111_112'
p1580
(dp1581
g34
(lp1582
S'NL.RIVM.AQ/STA-NL00433/8'
p1583
asg36
(lp1584
S'51.910474037472305 4.326303'
p1585
aS'http://www.opengis.net/def/crs/EPSG/0/4326'
p1586
assS'NL.RIVM.AQ/SPO_F-NL00937_00005_100_101'
p1587
(dp1588
g34
(lp1589
S'NL.RIVM.AQ/STA-NL00937/5'
p1590
asg36
(lp1591
S'53.217796036096054 6.578900999999999'
p1592
aS'http://www.opengis.net/def/crs/EPSG/0/4326'
p1593
assS'NL.RIVM.AQ/SPO_F-NL00934_00014_102_102'
p1594
(dp1595
g34
(lp1596
sg36
(lp1597
S'53.330425035968325 6.276815'
p1598
aS'http://www.opengis.net/def/crs/EPSG/0/4326'
p1599
assS'NL.RIVM.AQ/SPO_F-NL00237_00009_101_102'
p1600
(dp1601
g34
(lp1602
sg36
(lp1603
S'51.44415703791349 5.444833000000001'
p1604
aS'http://www.opengis.net/def/crs/EPSG/0/4326'
p1605
assS'NL.RIVM.AQ/SPO_F-NL00236_00038_101_102'
p1606
(dp1607
g34
(lp1608
S'NL.RIVM.AQ/STA-NL00236/38'
p1609
asg36
(lp1610
S'51.46866203789098 5.47235'
p1611
aS'http://www.opengis.net/def/crs/EPSG/0/4326'
p1612
assS'NL.RIVM.AQ/SPO_F-NL00494_00001_100_100'
p1613
(dp1614
g34
(lp1615
sg36
(lp1616
S'51.92138903746164 4.401388999999999'
p1617
aS'http://www.opengis.net/def/crs/EPSG/0/4326'
p1618
assS'NL.RIVM.AQ/SPO_F-NL00937_06001_100_100'
p1619
(dp1620
g34
(lp1621
S'NL.RIVM.AQ/STA-NL00937/6001'
p1622
asg36
(lp1623
S'53.217796036096054 6.578900999999999'
p1624
aS'http://www.opengis.net/def/crs/EPSG/0/4326'
p1625
assS'NL.RIVM.AQ/SPO_F-NL00007_00008_101_101'
p1626
(dp1627
g34
(lp1628
sg36
(lp1629
S'52.381331036999754 4.845233'
p1630
aS'http://www.opengis.net/def/crs/EPSG/0/4326'
p1631
assS'NL.RIVM.AQ/SPO_F-NL00136_00009_100_101'
p1632
(dp1633
g34
(lp1634
sg36
(lp1635
S'50.88795903840375 5.970496'
p1636
aS'http://www.opengis.net/def/crs/EPSG/0/4326'
p1637
assS'NL.RIVM.AQ/SPO_F-NL00639_00009_101_102'
p1638
(dp1639
g34
(lp1640
sg36
(lp1641
S'52.06774803731743 5.120507000000001'
p1642
aS'http://www.opengis.net/def/crs/EPSG/0/4326'
p1643
assS'NL.RIVM.AQ/SPO_F-NL00318_00001_111_111'
p1644
(dp1645
g34
(lp1646
S'NL.RIVM.AQ/STA-NL00318/1'
p1647
asg36
(lp1648
S'51.294498038049305 3.749483999999999'
p1649
aS'http://www.opengis.net/def/crs/EPSG/0/4326'
p1650
assS'NL.RIVM.AQ/SPO_F-NL00636_00008_111_112'
p1651
(dp1652
g34
(lp1653
S'NL.RIVM.AQ/STA-NL00636/8'
p1654
asg36
(lp1655
S'52.105031037280284 5.124464'
p1656
aS'http://www.opengis.net/def/crs/EPSG/0/4326'
p1657
assS'NL.RIVM.AQ/SPO_F-NL00553_00008_100_100'
p1658
(dp1659
g34
(lp1660
sg36
(lp1661
S'52.49399203688275 4.601986000000001'
p1662
aS'http://www.opengis.net/def/crs/EPSG/0/4326'
p1663
assS'NL.RIVM.AQ/SPO_F-NL00020_00008_101_101'
p1664
(dp1665
g34
(lp1666
sg36
(lp1667
S'52.3747860370065 4.860319'
p1668
aS'http://www.opengis.net/def/crs/EPSG/0/4326'
p1669
assS'NL.RIVM.AQ/SPO_F-NL00236_00009_101_102'
p1670
(dp1671
g34
(lp1672
sg36
(lp1673
S'51.46866203789098 5.47235'
p1674
aS'http://www.opengis.net/def/crs/EPSG/0/4326'
p1675
assS'NL.RIVM.AQ/SPO_F-NL00246_00009_100_100'
p1676
(dp1677
g34
(lp1678
sg36
(lp1679
S'51.65372903771855 4.515271'
p1680
aS'http://www.opengis.net/def/crs/EPSG/0/4326'
p1681
assS'NL.RIVM.AQ/SPO_F-NL00491_00005_100_100'
p1682
(dp1683
g34
(lp1684
sg36
(lp1685
S'51.93847203744493 4.430692'
p1686
aS'http://www.opengis.net/def/crs/EPSG/0/4326'
p1687
assS'NL.RIVM.AQ/SPO_F-NL00546_00008_100_100'
p1688
(dp1689
g34
(lp1690
sg36
(lp1691
S'52.420230036959516 4.83206'
p1692
aS'http://www.opengis.net/def/crs/EPSG/0/4326'
p1693
assS'NL.RIVM.AQ/SPO_F-NL00496_00007_100_100'
p1694
(dp1695
g34
(lp1696
sg36
(lp1697
S'51.97780303740636 4.121944000000001'
p1698
aS'http://www.opengis.net/def/crs/EPSG/0/4326'
p1699
assS'NL.RIVM.AQ/SPO_F-NL00486_00009_100_100'
p1700
(dp1701
g34
(lp1702
sg36
(lp1703
S'51.8878690374943 4.388808000000001'
p1704
aS'http://www.opengis.net/def/crs/EPSG/0/4326'
p1705
assS'NL.RIVM.AQ/SPO_F-NL00738_00008_100_101'
p1706
(dp1707
g34
(lp1708
S'NL.RIVM.AQ/STA-NL00738/8'
p1709
asg36
(lp1710
S'52.111621037273686 5.708418999999999'
p1711
aS'http://www.opengis.net/def/crs/EPSG/0/4326'
p1712
assS'NL.RIVM.AQ/SPO_F-NL00573_00005_100_100'
p1713
(dp1714
g34
(lp1715
sg36
(lp1716
S'52.47887103689854 4.579343'
p1717
aS'http://www.opengis.net/def/crs/EPSG/0/4326'
p1718
assS'NL.RIVM.AQ/SPO_F-NL00537_00007_100_101'
p1719
(dp1720
g34
(lp1721
sg36
(lp1722
S'52.38104003700004 4.64759'
p1723
aS'http://www.opengis.net/def/crs/EPSG/0/4326'
p1724
assS'NL.RIVM.AQ/SPO_F-NL00433_06001_100_101'
p1725
(dp1726
g34
(lp1727
S'NL.RIVM.AQ/STA-NL00433/6001'
p1728
asg36
(lp1729
S'51.910474037472305 4.326303'
p1730
aS'http://www.opengis.net/def/crs/EPSG/0/4326'
p1731
assS'NL.RIVM.AQ/SPO_F-NL00704_00021_100_100'
p1732
(dp1733
g34
(lp1734
sg36
(lp1735
S'52.428017036951445 4.773478'
p1736
aS'http://www.opengis.net/def/crs/EPSG/0/4326'
p1737
assS'NL.RIVM.AQ/SPO_F-NL00133_00001_101_101'
p1738
(dp1739
g34
(lp1740
S'NL.RIVM.AQ/STA-NL00133/1'
p1741
asg36
(lp1742
S'50.902281038391635 5.881748000000001'
p1743
aS'http://www.opengis.net/def/crs/EPSG/0/4326'
p1744
assS'NL.RIVM.AQ/SPO_F-NL00743_00005_100_100'
p1745
(dp1746
g34
(lp1747
sg36
(lp1748
S'52.15406703723116 5.664074000000001'
p1749
aS'http://www.opengis.net/def/crs/EPSG/0/4326'
p1750
assS'NL.RIVM.AQ/SPO_F-NL00704_06001_100_100'
p1751
(dp1752
g34
(lp1753
sg36
(lp1754
S'52.428017036951445 4.773478'
p1755
aS'http://www.opengis.net/def/crs/EPSG/0/4326'
p1756
assS'NL.RIVM.AQ/SPO_F-NL00934_00008_111_112'
p1757
(dp1758
g34
(lp1759
S'NL.RIVM.AQ/STA-NL00934/8'
p1760
asg36
(lp1761
S'53.330425035968325 6.276815'
p1762
aS'http://www.opengis.net/def/crs/EPSG/0/4326'
p1763
assS'NL.RIVM.AQ/SPO_F-NL00433_00668_100_100'
p1764
(dp1765
g34
(lp1766
sg36
(lp1767
S'51.910474037472305 4.326303'
p1768
aS'http://www.opengis.net/def/crs/EPSG/0/4326'
p1769
assS'NL.RIVM.AQ/SPO_F-NL00722_00035_100_100'
p1770
(dp1771
g34
(lp1772
sg36
(lp1773
S'52.09180103729347 6.605367'
p1774
aS'http://www.opengis.net/def/crs/EPSG/0/4326'
p1775
assS'NL.RIVM.AQ/SPO_F-NL00742_00007_100_101'
p1776
(dp1777
g34
(lp1778
S'NL.RIVM.AQ/STA-NL00742/7'
p1779
asg36
(lp1780
S'51.83822103754241 5.856938'
p1781
aS'http://www.opengis.net/def/crs/EPSG/0/4326'
p1782
assS'NL.RIVM.AQ/SPO_F-NL00491_00010_100_100'
p1783
(dp1784
g34
(lp1785
sg36
(lp1786
S'51.93847203744493 4.430692'
p1787
aS'http://www.opengis.net/def/crs/EPSG/0/4326'
p1788
assS'NL.RIVM.AQ/SPO_F-NL00446_00038_100_100'
p1789
(dp1790
g34
(lp1791
S'NL.RIVM.AQ/STA-NL00446/38'
p1792
asg36
(lp1793
S'52.03902303734593 4.359376000000001'
p1794
aS'http://www.opengis.net/def/crs/EPSG/0/4326'
p1795
assS'NL.RIVM.AQ/SPO_F-NL00131_00668_100_100'
p1796
(dp1797
g34
(lp1798
sg36
(lp1799
S'51.540520037824535 5.853069999999999'
p1800
aS'http://www.opengis.net/def/crs/EPSG/0/4326'
p1801
assS'NL.RIVM.AQ/SPO_F-NL00495_00038_100_100'
p1802
(dp1803
g34
(lp1804
sg36
(lp1805
S'51.932039037451226 4.228024999999998'
p1806
aS'http://www.opengis.net/def/crs/EPSG/0/4326'
p1807
assS'NL.RIVM.AQ/SPO_F-NL00437_00038_101_102'
p1808
(dp1809
g34
(lp1810
S'NL.RIVM.AQ/STA-NL00437/38'
p1811
asg36
(lp1812
S'51.78657903759214 4.450529000000001'
p1813
aS'http://www.opengis.net/def/crs/EPSG/0/4326'
p1814
assS'NL.RIVM.AQ/SPO_F-NL00483_00020_100_100'
p1815
(dp1816
g34
(lp1817
sg36
(lp1818
S'51.87006903751158 4.318061'
p1819
aS'http://www.opengis.net/def/crs/EPSG/0/4326'
p1820
assS'NL.RIVM.AQ/SPO_F-NL00493_00010_100_100'
p1821
(dp1822
g34
(lp1823
sg36
(lp1824
S'51.92711103745604 4.461344'
p1825
aS'http://www.opengis.net/def/crs/EPSG/0/4326'
p1826
assS'NL.RIVM.AQ/SPO_F-NL00318_00007_111_112'
p1827
(dp1828
g34
(lp1829
S'NL.RIVM.AQ/STA-NL00318/7'
p1830
asg36
(lp1831
S'51.294498038049305 3.749483999999999'
p1832
aS'http://www.opengis.net/def/crs/EPSG/0/4326'
p1833
assS'NL.RIVM.AQ/SPO_F-NL00549_00005_100_100'
p1834
(dp1835
g34
(lp1836
S'NL.RIVM.AQ/STA-NL00549/5'
p1837
asg36
(lp1838
S'52.257356037126755 5.235903'
p1839
aS'http://www.opengis.net/def/crs/EPSG/0/4326'
p1840
assS'NL.RIVM.AQ/SPO_F-NL00572_00005_100_100'
p1841
(dp1842
g34
(lp1843
sg36
(lp1844
S'52.47440003690322 4.628799999999999'
p1845
aS'http://www.opengis.net/def/crs/EPSG/0/4326'
p1846
assS'NL.RIVM.AQ/SPO_F-NL00012_00005_100_100'
p1847
(dp1848
g34
(lp1849
sg36
(lp1850
S'52.38998303699083 4.887811'
p1851
aS'http://www.opengis.net/def/crs/EPSG/0/4326'
p1852
assS'NL.RIVM.AQ/SPO_F-NL00564_00038_100_100'
p1853
(dp1854
g34
(lp1855
sg36
(lp1856
S'52.28745003709609 4.766614000000001'
p1857
aS'http://www.opengis.net/def/crs/EPSG/0/4326'
p1858
assS'NL.RIVM.AQ/SPO_F-NL00701_00007_100_100'
p1859
(dp1860
g34
(lp1861
sg36
(lp1862
S'52.44801103693068 4.816706000000001'
p1863
aS'http://www.opengis.net/def/crs/EPSG/0/4326'
p1864
assS'NL.RIVM.AQ/SPO_F-NL00486_00008_100_100'
p1865
(dp1866
g34
(lp1867
sg36
(lp1868
S'51.8878690374943 4.388808000000001'
p1869
aS'http://www.opengis.net/def/crs/EPSG/0/4326'
p1870
assS'NL.RIVM.AQ/SPO_F-NL00807_00038_101_102'
p1871
(dp1872
g34
(lp1873
S'NL.RIVM.AQ/STA-NL00807/38'
p1874
asg36
(lp1875
S'52.388272036992596 6.402933000000001'
p1876
aS'http://www.opengis.net/def/crs/EPSG/0/4326'
p1877
assS'NL.RIVM.AQ/SPO_F-NL00549_00009_100_100'
p1878
(dp1879
g34
(lp1880
sg36
(lp1881
S'52.257356037126755 5.235903'
p1882
aS'http://www.opengis.net/def/crs/EPSG/0/4326'
p1883
assS'NL.RIVM.AQ/SPO_F-NL00241_00009_100_101'
p1884
(dp1885
g34
(lp1886
sg36
(lp1887
S'51.60308003776617 4.781016000000001'
p1888
aS'http://www.opengis.net/def/crs/EPSG/0/4326'
p1889
assS'NL.RIVM.AQ/SPO_F-NL00643_06001_100_100'
p1890
(dp1891
g34
(lp1892
S'NL.RIVM.AQ/STA-NL00643/6001'
p1893
asg36
(lp1894
S'52.101308037284014 5.128183'
p1895
aS'http://www.opengis.net/def/crs/EPSG/0/4326'
p1896
assS'NL.RIVM.AQ/SPO_F-NL00487_00010_100_100'
p1897
(dp1898
g34
(lp1899
sg36
(lp1900
S'51.89114703749109 4.480690000000001'
p1901
aS'http://www.opengis.net/def/crs/EPSG/0/4326'
p1902
assS'NL.RIVM.AQ/SPO_F-NL00538_00045_101_101'
p1903
(dp1904
g34
(lp1905
sg36
(lp1906
S'52.803657036553524 5.050509'
p1907
aS'http://www.opengis.net/def/crs/EPSG/0/4326'
p1908
assS'NL.RIVM.AQ/SPO_F-NL00639_00482_100_101'
p1909
(dp1910
g34
(lp1911
sg36
(lp1912
S'52.06774803731743 5.120507000000001'
p1913
aS'http://www.opengis.net/def/crs/EPSG/0/4326'
p1914
assS'NL.RIVM.AQ/SPO_F-NL00738_00005_101_101'
p1915
(dp1916
g34
(lp1917
S'NL.RIVM.AQ/STA-NL00738/5'
p1918
asg36
(lp1919
S'52.111621037273686 5.708418999999999'
p1920
aS'http://www.opengis.net/def/crs/EPSG/0/4326'
p1921
assS'NL.RIVM.AQ/SPO_F-NL00107_00009_101_102'
p1922
(dp1923
g34
(lp1924
sg36
(lp1925
S'51.11919403820476 6.0423990000000005'
p1926
aS'http://www.opengis.net/def/crs/EPSG/0/4326'
p1927
assS'NL.RIVM.AQ/SPO_F-NL00918_00008_101_102'
p1928
(dp1929
g34
(lp1930
S'NL.RIVM.AQ/STA-NL00918/8'
p1931
asg36
(lp1932
S'52.91691592643034 5.573491569999999'
p1933
aS'http://www.opengis.net/def/crs/EPSG/0/4326'
p1934
assS'NL.RIVM.AQ/SPO_F-NL00641_00005_101_101'
p1935
(dp1936
g34
(lp1937
S'NL.RIVM.AQ/STA-NL00641/5'
p1938
asg36
(lp1939
S'52.20153003718333 4.987444000000001'
p1940
aS'http://www.opengis.net/def/crs/EPSG/0/4326'
p1941
assS'NL.RIVM.AQ/SPO_F-NL00318_00009_101_102'
p1942
(dp1943
g34
(lp1944
sg36
(lp1945
S'51.294498038049305 3.749483999999999'
p1946
aS'http://www.opengis.net/def/crs/EPSG/0/4326'
p1947
assS'NL.RIVM.AQ/SPO_F-NL00633_00005_100_100'
p1948
(dp1949
g34
(lp1950
sg36
(lp1951
S'52.13795003724734 4.83819'
p1952
aS'http://www.opengis.net/def/crs/EPSG/0/4326'
p1953
assS'NL.RIVM.AQ/SPO_F-NL00017_00020_100_100'
p1954
(dp1955
g34
(lp1956
sg36
(lp1957
S'52.358039037023744 4.8997'
p1958
aS'http://www.opengis.net/def/crs/EPSG/0/4326'
p1959
assS'NL.RIVM.AQ/SPO_F-NL00022_00008_101_101'
p1960
(dp1961
g34
(lp1962
sg36
(lp1963
S'52.36681103701471 4.793344000000001'
p1964
aS'http://www.opengis.net/def/crs/EPSG/0/4326'
p1965
assS'NL.RIVM.AQ/SPO_F-NL00131_00005_100_101'
p1966
(dp1967
g34
(lp1968
S'NL.RIVM.AQ/STA-NL00131/5'
p1969
asg36
(lp1970
S'51.540520037824535 5.853069999999999'
p1971
aS'http://www.opengis.net/def/crs/EPSG/0/4326'
p1972
assS'NL.RIVM.AQ/SPO_F-NL00236_00008_101_102'
p1973
(dp1974
g34
(lp1975
S'NL.RIVM.AQ/STA-NL00236/8'
p1976
asg36
(lp1977
S'51.46866203789098 5.47235'
p1978
aS'http://www.opengis.net/def/crs/EPSG/0/4326'
p1979
assS'NL.RIVM.AQ/SPO_F-NL00444_00047_101_101'
p1980
(dp1981
g34
(lp1982
sg36
(lp1983
S'52.2965560370868 4.510817'
p1984
aS'http://www.opengis.net/def/crs/EPSG/0/4326'
p1985
assS'NL.RIVM.AQ/SPO_F-NL00548_00009_100_100'
p1986
(dp1987
g34
(lp1988
sg36
(lp1989
S'52.26798003711595 5.1758299999999995'
p1990
aS'http://www.opengis.net/def/crs/EPSG/0/4326'
p1991
assS'NL.RIVM.AQ/SPO_F-NL00934_00012_102_102'
p1992
(dp1993
g34
(lp1994
sg36
(lp1995
S'53.330425035968325 6.276815'
p1996
aS'http://www.opengis.net/def/crs/EPSG/0/4326'
p1997
assS'NL.RIVM.AQ/SPO_F-NL00551_00010_100_100'
p1998
(dp1999
g34
(lp2000
sg36
(lp2001
S'52.46303903691505 4.6018419999999995'
p2002
aS'http://www.opengis.net/def/crs/EPSG/0/4326'
p2003
assS'NL.RIVM.AQ/SPO_F-NL00021_00009_101_101'
p2004
(dp2005
g34
(lp2006
sg36
(lp2007
S'52.32069203706209 4.988397000000001'
p2008
aS'http://www.opengis.net/def/crs/EPSG/0/4326'
p2009
assS'NL.RIVM.AQ/SPO_F-NL00133_00007_111_112'
p2010
(dp2011
g34
(lp2012
S'NL.RIVM.AQ/STA-NL00133/7'
p2013
asg36
(lp2014
S'50.902281038391635 5.881748000000001'
p2015
aS'http://www.opengis.net/def/crs/EPSG/0/4326'
p2016
assS'NL.RIVM.AQ/SPO_F-NL00240_06001_100_100'
p2017
(dp2018
g34
(lp2019
S'NL.RIVM.AQ/STA-NL00240/6001'
p2020
asg36
(lp2021
S'51.5935330377751 4.824944'
p2022
aS'http://www.opengis.net/def/crs/EPSG/0/4326'
p2023
assS'NL.RIVM.AQ/SPO_F-NL00929_00631_101_101'
p2024
(dp2025
g34
(lp2026
sg36
(lp2027
S'52.87572503647533 6.932432000000001'
p2028
aS'http://www.opengis.net/def/crs/EPSG/0/4326'
p2029
assS'NL.RIVM.AQ/SPO_F-NL00929_00038_100_101'
p2030
(dp2031
g34
(lp2032
S'NL.RIVM.AQ/STA-NL00929/38'
p2033
asg36
(lp2034
S'52.87572503647533 6.932432000000001'
p2035
aS'http://www.opengis.net/def/crs/EPSG/0/4326'
p2036
assS'NL.RIVM.AQ/SPO_F-NL00433_00038_111_112'
p2037
(dp2038
g34
(lp2039
S'NL.RIVM.AQ/STA-NL00433/38'
p2040
asg36
(lp2041
S'51.910474037472305 4.326303'
p2042
aS'http://www.opengis.net/def/crs/EPSG/0/4326'
p2043
assS'NL.RIVM.AQ/SPO_F-NL00489_00008_100_100'
p2044
(dp2045
g34
(lp2046
sg36
(lp2047
S'51.869431037512186 4.580058'
p2048
aS'http://www.opengis.net/def/crs/EPSG/0/4326'
p2049
assS'NL.RIVM.AQ/SPO_F-NL00636_00038_111_112'
p2050
(dp2051
g34
(lp2052
S'NL.RIVM.AQ/STA-NL00636/38'
p2053
asg36
(lp2054
S'52.105031037280284 5.124464'
p2055
aS'http://www.opengis.net/def/crs/EPSG/0/4326'
p2056
assS'NL.RIVM.AQ/SPO_F-NL00537_00009_101_102'
p2057
(dp2058
g34
(lp2059
sg36
(lp2060
S'52.38104003700004 4.64759'
p2061
aS'http://www.opengis.net/def/crs/EPSG/0/4326'
p2062
assS'NL.RIVM.AQ/SPO_F-NL00738_00009_100_101'
p2063
(dp2064
g34
(lp2065
sg36
(lp2066
S'52.111621037273686 5.708418999999999'
p2067
aS'http://www.opengis.net/def/crs/EPSG/0/4326'
p2068
assS'NL.RIVM.AQ/SPO_F-NL00433_00012_112_112'
p2069
(dp2070
g34
(lp2071
sg36
(lp2072
S'51.910474037472305 4.326303'
p2073
aS'http://www.opengis.net/def/crs/EPSG/0/4326'
p2074
assS'NL.RIVM.AQ/SPO_F-NL00573_06001_100_100'
p2075
(dp2076
g34
(lp2077
sg36
(lp2078
S'52.47887103689854 4.579343'
p2079
aS'http://www.opengis.net/def/crs/EPSG/0/4326'
p2080
assS'NL.RIVM.AQ/SPO_F-NL00485_00009_100_100'
p2081
(dp2082
g34
(lp2083
sg36
(lp2084
S'51.867411037514145 4.355241999999999'
p2085
aS'http://www.opengis.net/def/crs/EPSG/0/4326'
p2086
assS'NL.RIVM.AQ/SPO_F-NL00546_00020_100_100'
p2087
(dp2088
g34
(lp2089
sg36
(lp2090
S'52.420230036959516 4.83206'
p2091
aS'http://www.opengis.net/def/crs/EPSG/0/4326'
p2092
assS'NL.RIVM.AQ/SPO_F-NL00404_00005_100_101'
p2093
(dp2094
g34
(lp2095
S'NL.RIVM.AQ/STA-NL00404/5'
p2096
asg36
(lp2097
S'52.07714803730809 4.289185000000001'
p2098
aS'http://www.opengis.net/def/crs/EPSG/0/4326'
p2099
assS'NL.RIVM.AQ/SPO_F-NL00565_00008_100_100'
p2100
(dp2101
g34
(lp2102
sg36
(lp2103
S'52.32746403705515 4.715008000000001'
p2104
aS'http://www.opengis.net/def/crs/EPSG/0/4326'
p2105
assS'NL.RIVM.AQ/SPO_F-NL00138_06001_100_100'
p2106
(dp2107
g34
(lp2108
S'NL.RIVM.AQ/STA-NL00138/6001'
p2109
asg36
(lp2110
S'50.90031703839329 5.986853'
p2111
aS'http://www.opengis.net/def/crs/EPSG/0/4326'
p2112
assS'NL.RIVM.AQ/SPO_F-NL00547_00038_100_100'
p2113
(dp2114
g34
(lp2115
S'NL.RIVM.AQ/STA-NL00547/38'
p2116
asg36
(lp2117
S'52.23508303714937 5.181552'
p2118
aS'http://www.opengis.net/def/crs/EPSG/0/4326'
p2119
assS'NL.RIVM.AQ/SPO_F-NL00929_00007_100_101'
p2120
(dp2121
g34
(lp2122
S'NL.RIVM.AQ/STA-NL00929/7'
p2123
asg36
(lp2124
S'52.87572503647533 6.932432000000001'
p2125
aS'http://www.opengis.net/def/crs/EPSG/0/4326'
p2126
assS'NL.RIVM.AQ/SPO_F-NL00494_00007_100_100'
p2127
(dp2128
g34
(lp2129
sg36
(lp2130
S'51.92138903746164 4.401388999999999'
p2131
aS'http://www.opengis.net/def/crs/EPSG/0/4326'
p2132
assS'NL.RIVM.AQ/SPO_F-NL00007_00009_101_101'
p2133
(dp2134
g34
(lp2135
sg36
(lp2136
S'52.381331036999754 4.845233'
p2137
aS'http://www.opengis.net/def/crs/EPSG/0/4326'
p2138
assS'NL.RIVM.AQ/SPO_F-NL00012_00007_100_100'
p2139
(dp2140
g34
(lp2141
sg36
(lp2142
S'52.38998303699083 4.887811'
p2143
aS'http://www.opengis.net/def/crs/EPSG/0/4326'
p2144
assS'NL.RIVM.AQ/SPO_F-NL00493_00038_100_100'
p2145
(dp2146
g34
(lp2147
sg36
(lp2148
S'51.92711103745604 4.461344'
p2149
aS'http://www.opengis.net/def/crs/EPSG/0/4326'
p2150
assS'NL.RIVM.AQ/SPO_F-NL00240_00038_100_100'
p2151
(dp2152
g34
(lp2153
S'NL.RIVM.AQ/STA-NL00240/38'
p2154
asg36
(lp2155
S'51.5935330377751 4.824944'
p2156
aS'http://www.opengis.net/def/crs/EPSG/0/4326'
p2157
assS'NL.RIVM.AQ/SPO_F-NL00241_06001_100_101'
p2158
(dp2159
g34
(lp2160
S'NL.RIVM.AQ/STA-NL00241/6001'
p2161
asg36
(lp2162
S'51.60308003776617 4.781016000000001'
p2163
aS'http://www.opengis.net/def/crs/EPSG/0/4326'
p2164
assS'NL.RIVM.AQ/SPO_F-NL00019_00008_101_101'
p2165
(dp2166
g34
(lp2167
sg36
(lp2168
S'52.372056037009315 4.9044'
p2169
aS'http://www.opengis.net/def/crs/EPSG/0/4326'
p2170
assS'NL.RIVM.AQ/SPO_F-NL00553_00001_100_100'
p2171
(dp2172
g34
(lp2173
sg36
(lp2174
S'52.49399203688275 4.601986000000001'
p2175
aS'http://www.opengis.net/def/crs/EPSG/0/4326'
p2176
assS'NL.RIVM.AQ/SPO_F-NL00433_00014_102_102'
p2177
(dp2178
g34
(lp2179
sg36
(lp2180
S'51.910474037472305 4.326303'
p2181
aS'http://www.opengis.net/def/crs/EPSG/0/4326'
p2182
assS'NL.RIVM.AQ/SPO_F-NL00007_00005_100_100'
p2183
(dp2184
g34
(lp2185
sg36
(lp2186
S'52.381331036999754 4.845233'
p2187
aS'http://www.opengis.net/def/crs/EPSG/0/4326'
p2188
assS'NL.RIVM.AQ/SPO_F-NL00818_00038_100_101'
p2189
(dp2190
g34
(lp2191
S'NL.RIVM.AQ/STA-NL00818/38'
p2192
asg36
(lp2193
S'52.65414403671388 6.017571'
p2194
aS'http://www.opengis.net/def/crs/EPSG/0/4326'
p2195
assS'NL.RIVM.AQ/SPO_F-NL00433_00659_100_100'
p2196
(dp2197
g34
(lp2198
sg36
(lp2199
S'51.910474037472305 4.326303'
p2200
aS'http://www.opengis.net/def/crs/EPSG/0/4326'
p2201
assS'NL.RIVM.AQ/SPO_F-NL00549_00038_100_100'
p2202
(dp2203
g34
(lp2204
S'NL.RIVM.AQ/STA-NL00549/38'
p2205
asg36
(lp2206
S'52.257356037126755 5.235903'
p2207
aS'http://www.opengis.net/def/crs/EPSG/0/4326'
p2208
assS'NL.RIVM.AQ/SPO_F-NL00494_00038_100_100'
p2209
(dp2210
g34
(lp2211
sg36
(lp2212
S'51.92138903746164 4.401388999999999'
p2213
aS'http://www.opengis.net/def/crs/EPSG/0/4326'
p2214
assS'NL.RIVM.AQ/SPO_F-NL00703_00021_100_100'
p2215
(dp2216
g34
(lp2217
sg36
(lp2218
S'52.39843703698208 4.728581'
p2219
aS'http://www.opengis.net/def/crs/EPSG/0/4326'
p2220
assS'NL.RIVM.AQ/SPO_F-NL00938_00007_100_101'
p2221
(dp2222
g34
(lp2223
S'NL.RIVM.AQ/STA-NL00938/7'
p2224
asg36
(lp2225
S'53.2465350360636 6.608937'
p2226
aS'http://www.opengis.net/def/crs/EPSG/0/4326'
p2227
assS'NL.RIVM.AQ/SPO_F-NL00742_00008_100_101'
p2228
(dp2229
g34
(lp2230
S'NL.RIVM.AQ/STA-NL00742/8'
p2231
asg36
(lp2232
S'51.83822103754241 5.856938'
p2233
aS'http://www.opengis.net/def/crs/EPSG/0/4326'
p2234
assS'NL.RIVM.AQ/SPO_F-NL00487_00009_100_100'
p2235
(dp2236
g34
(lp2237
sg36
(lp2238
S'51.89114703749109 4.480690000000001'
p2239
aS'http://www.opengis.net/def/crs/EPSG/0/4326'
p2240
assS'NL.RIVM.AQ/SPO_F-NL00934_00015_101_101'
p2241
(dp2242
g34
(lp2243
sg36
(lp2244
S'53.330425035968325 6.276815'
p2245
aS'http://www.opengis.net/def/crs/EPSG/0/4326'
p2246
assS'NL.RIVM.AQ/SPO_F-NL00301_00009_101_102'
p2247
(dp2248
g34
(lp2249
sg36
(lp2250
S'51.634706037736464 3.9166229999999995'
p2251
aS'http://www.opengis.net/def/crs/EPSG/0/4326'
p2252
assS'NL.RIVM.AQ/SPO_F-NL00237_00005_100_101'
p2253
(dp2254
g34
(lp2255
S'NL.RIVM.AQ/STA-NL00237/5'
p2256
asg36
(lp2257
S'51.44415703791349 5.444833000000001'
p2258
aS'http://www.opengis.net/def/crs/EPSG/0/4326'
p2259
assS'NL.RIVM.AQ/SPO_F-NL00493_00008_100_100'
p2260
(dp2261
g34
(lp2262
sg36
(lp2263
S'51.92711103745604 4.461344'
p2264
aS'http://www.opengis.net/def/crs/EPSG/0/4326'
p2265
assS'NL.RIVM.AQ/SPO_F-NL00247_00009_100_100'
p2266
(dp2267
g34
(lp2268
sg36
(lp2269
S'51.40736503794714 5.3933279999999995'
p2270
aS'http://www.opengis.net/def/crs/EPSG/0/4326'
p2271
assS'NL.RIVM.AQ/SPO_F-NL00445_00005_100_101'
p2272
(dp2273
g34
(lp2274
S'NL.RIVM.AQ/STA-NL00445/5'
p2275
asg36
(lp2276
S'52.075071037310146 4.315872'
p2277
aS'http://www.opengis.net/def/crs/EPSG/0/4326'
p2278
assS'NL.RIVM.AQ/SPO_F-NL00818_00008_100_101'
p2279
(dp2280
g34
(lp2281
S'NL.RIVM.AQ/STA-NL00818/8'
p2282
asg36
(lp2283
S'52.65414403671388 6.017571'
p2284
aS'http://www.opengis.net/def/crs/EPSG/0/4326'
p2285
assS'NL.RIVM.AQ/SPO_F-NL00495_00009_100_100'
p2286
(dp2287
g34
(lp2288
sg36
(lp2289
S'51.932039037451226 4.228024999999998'
p2290
aS'http://www.opengis.net/def/crs/EPSG/0/4326'
p2291
assS'NL.RIVM.AQ/SPO_F-NL00131_00047_101_101'
p2292
(dp2293
g34
(lp2294
sg36
(lp2295
S'51.540520037824535 5.853069999999999'
p2296
aS'http://www.opengis.net/def/crs/EPSG/0/4326'
p2297
assS'NL.RIVM.AQ/SPO_F-NL00703_00008_100_100'
p2298
(dp2299
g34
(lp2300
sg36
(lp2301
S'52.39843703698208 4.728581'
p2302
aS'http://www.opengis.net/def/crs/EPSG/0/4326'
p2303
assS'NL.RIVM.AQ/SPO_F-NL00235_00009_101_102'
p2304
(dp2305
g34
(lp2306
sg36
(lp2307
S'51.43444303792239 4.359835'
p2308
aS'http://www.opengis.net/def/crs/EPSG/0/4326'
p2309
assS'NL.RIVM.AQ/SPO_F-NL00489_00009_100_100'
p2310
(dp2311
g34
(lp2312
sg36
(lp2313
S'51.869431037512186 4.580058'
p2314
aS'http://www.opengis.net/def/crs/EPSG/0/4326'
p2315
assS'NL.RIVM.AQ/SPO_F-NL00491_00038_100_100'
p2316
(dp2317
g34
(lp2318
sg36
(lp2319
S'51.93847203744493 4.430692'
p2320
aS'http://www.opengis.net/def/crs/EPSG/0/4326'
p2321
assS'NL.RIVM.AQ/SPO_F-NL00418_00007_120_121'
p2322
(dp2323
g34
(lp2324
S'NL.RIVM.AQ/STA-NL00418/7'
p2325
asg36
(lp2326
S'51.914233037468634 4.479923'
p2327
aS'http://www.opengis.net/def/crs/EPSG/0/4326'
p2328
assS'NL.RIVM.AQ/SPO_F-NL00491_00008_100_100'
p2329
(dp2330
g34
(lp2331
sg36
(lp2332
S'51.93847203744493 4.430692'
p2333
aS'http://www.opengis.net/def/crs/EPSG/0/4326'
p2334
assS'NL.RIVM.AQ/SPO_F-NL00014_00007_100_100'
p2335
(dp2336
g34
(lp2337
sg36
(lp2338
S'52.359714037022016 4.866208'
p2339
aS'http://www.opengis.net/def/crs/EPSG/0/4326'
p2340
assS'NL.RIVM.AQ/SPO_F-NL00494_00008_100_100'
p2341
(dp2342
g34
(lp2343
sg36
(lp2344
S'51.92138903746164 4.401388999999999'
p2345
aS'http://www.opengis.net/def/crs/EPSG/0/4326'
p2346
assS'NL.RIVM.AQ/SPO_F-NL00929_00005_100_101'
p2347
(dp2348
g34
(lp2349
S'NL.RIVM.AQ/STA-NL00929/5'
p2350
asg36
(lp2351
S'52.87572503647533 6.932432000000001'
p2352
aS'http://www.opengis.net/def/crs/EPSG/0/4326'
p2353
assS'NL.RIVM.AQ/SPO_F-NL00494_06001_101_101'
p2354
(dp2355
g34
(lp2356
sg36
(lp2357
S'51.92138903746164 4.401388999999999'
p2358
aS'http://www.opengis.net/def/crs/EPSG/0/4326'
p2359
assS'NL.RIVM.AQ/SPO_F-NL00230_00008_101_102'
p2360
(dp2361
g34
(lp2362
S'NL.RIVM.AQ/STA-NL00230/8'
p2363
asg36
(lp2364
S'51.518440037845004 5.1484499999999995'
p2365
aS'http://www.opengis.net/def/crs/EPSG/0/4326'
p2366
assS'NL.RIVM.AQ/SPO_F-NL00633_00038_101_102'
p2367
(dp2368
g34
(lp2369
S'NL.RIVM.AQ/STA-NL00633/38'
p2370
asg36
(lp2371
S'52.13795003724734 4.83819'
p2372
aS'http://www.opengis.net/def/crs/EPSG/0/4326'
p2373
assS'NL.RIVM.AQ/SPO_F-NL00633_00010_101_101'
p2374
(dp2375
g34
(lp2376
S'NL.RIVM.AQ/STA-NL00633/10'
p2377
asg36
(lp2378
S'52.13795003724734 4.83819'
p2379
aS'http://www.opengis.net/def/crs/EPSG/0/4326'
p2380
assS'NL.RIVM.AQ/SPO_F-NL00445_00008_100_101'
p2381
(dp2382
g34
(lp2383
S'NL.RIVM.AQ/STA-NL00445/8'
p2384
asg36
(lp2385
S'52.075071037310146 4.315872'
p2386
aS'http://www.opengis.net/def/crs/EPSG/0/4326'
p2387
assS'NL.RIVM.AQ/SPO_F-NL00929_00008_100_101'
p2388
(dp2389
g34
(lp2390
S'NL.RIVM.AQ/STA-NL00929/8'
p2391
asg36
(lp2392
S'52.87572503647533 6.932432000000001'
p2393
aS'http://www.opengis.net/def/crs/EPSG/0/4326'
p2394
assS'NL.RIVM.AQ/SPO_F-NL00741_00009_100_101'
p2395
(dp2396
g34
(lp2397
sg36
(lp2398
S'51.841372037539365 5.857777'
p2399
aS'http://www.opengis.net/def/crs/EPSG/0/4326'
p2400
assS'NL.RIVM.AQ/SPO_F-NL00301_00008_101_102'
p2401
(dp2402
g34
(lp2403
S'NL.RIVM.AQ/STA-NL00301/8'
p2404
asg36
(lp2405
S'51.634706037736464 3.9166229999999995'
p2406
aS'http://www.opengis.net/def/crs/EPSG/0/4326'
p2407
assS'NL.RIVM.AQ/SPO_F-NL00738_00035_100_100'
p2408
(dp2409
g34
(lp2410
S'NL.RIVM.AQ/STA-NL00738/35'
p2411
asg36
(lp2412
S'52.111621037273686 5.708418999999999'
p2413
aS'http://www.opengis.net/def/crs/EPSG/0/4326'
p2414
assS'NL.RIVM.AQ/SPO_F-NL00701_00009_100_100'
p2415
(dp2416
g34
(lp2417
sg36
(lp2418
S'52.44801103693068 4.816706000000001'
p2419
aS'http://www.opengis.net/def/crs/EPSG/0/4326'
p2420
assS'NL.RIVM.AQ/SPO_F-NL00133_00005_100_101'
p2421
(dp2422
g34
(lp2423
S'NL.RIVM.AQ/STA-NL00133/5'
p2424
asg36
(lp2425
S'50.902281038391635 5.881748000000001'
p2426
aS'http://www.opengis.net/def/crs/EPSG/0/4326'
p2427
assS'NL.RIVM.AQ/SPO_F-NL00742_00010_100_100'
p2428
(dp2429
g34
(lp2430
sg36
(lp2431
S'51.83822103754241 5.856938'
p2432
aS'http://www.opengis.net/def/crs/EPSG/0/4326'
p2433
assS'NL.RIVM.AQ/SPO_F-NL00244_00005_100_100'
p2434
(dp2435
g34
(lp2436
sg36
(lp2437
S'51.535901037828836 5.808593'
p2438
aS'http://www.opengis.net/def/crs/EPSG/0/4326'
p2439
assS'NL.RIVM.AQ/SPO_F-NL00495_00008_100_100'
p2440
(dp2441
g34
(lp2442
sg36
(lp2443
S'51.932039037451226 4.228024999999998'
p2444
aS'http://www.opengis.net/def/crs/EPSG/0/4326'
p2445
assS'NL.RIVM.AQ/SPO_F-NL00818_00009_100_101'
p2446
(dp2447
g34
(lp2448
sg36
(lp2449
S'52.65414403671388 6.017571'
p2450
aS'http://www.opengis.net/def/crs/EPSG/0/4326'
p2451
assS'NL.RIVM.AQ/SPO_F-NL00012_00009_101_101'
p2452
(dp2453
g34
(lp2454
sg36
(lp2455
S'52.38998303699083 4.887811'
p2456
aS'http://www.opengis.net/def/crs/EPSG/0/4326'
p2457
assS'NL.RIVM.AQ/SPO_F-NL00444_00006_101_101'
p2458
(dp2459
g34
(lp2460
sg36
(lp2461
S'52.2965560370868 4.510817'
p2462
aS'http://www.opengis.net/def/crs/EPSG/0/4326'
p2463
assS'NL.RIVM.AQ/SPO_F-NL00722_00038_111_112'
p2464
(dp2465
g34
(lp2466
S'NL.RIVM.AQ/STA-NL00722/38'
p2467
asg36
(lp2468
S'52.09180103729347 6.605367'
p2469
aS'http://www.opengis.net/def/crs/EPSG/0/4326'
p2470
assS'NL.RIVM.AQ/SPO_F-NL00002_00008_101_101'
p2471
(dp2472
g34
(lp2473
sg36
(lp2474
S'52.385422036995514 4.87575'
p2475
aS'http://www.opengis.net/def/crs/EPSG/0/4326'
p2476
assS'NL.RIVM.AQ/SPO_F-NL00496_00021_100_100'
p2477
(dp2478
g34
(lp2479
sg36
(lp2480
S'51.97780303740636 4.121944000000001'
p2481
aS'http://www.opengis.net/def/crs/EPSG/0/4326'
p2482
assS'NL.RIVM.AQ/SPO_F-NL00701_00038_100_100'
p2483
(dp2484
g34
(lp2485
sg36
(lp2486
S'52.44801103693068 4.816706000000001'
p2487
aS'http://www.opengis.net/def/crs/EPSG/0/4326'
p2488
assS'NL.RIVM.AQ/SPO_F-NL00235_00035_100_100'
p2489
(dp2490
g34
(lp2491
sg36
(lp2492
S'51.43444303792239 4.359835'
p2493
aS'http://www.opengis.net/def/crs/EPSG/0/4326'
p2494
assS'NL.RIVM.AQ/SPO_F-NL00551_00008_100_100'
p2495
(dp2496
g34
(lp2497
sg36
(lp2498
S'52.46303903691505 4.6018419999999995'
p2499
aS'http://www.opengis.net/def/crs/EPSG/0/4326'
p2500
assS'NL.RIVM.AQ/SPO_F-NL00627_00659_100_100'
p2501
(dp2502
g34
(lp2503
sg36
(lp2504
S'52.12083303726448 5.195567'
p2505
aS'http://www.opengis.net/def/crs/EPSG/0/4326'
p2506
assS'NL.RIVM.AQ/SPO_F-NL00131_00063_101_101'
p2507
(dp2508
g34
(lp2509
sg36
(lp2510
S'51.540520037824535 5.853069999999999'
p2511
aS'http://www.opengis.net/def/crs/EPSG/0/4326'
p2512
assS'NL.RIVM.AQ/SPO_F-NL00547_00005_100_100'
p2513
(dp2514
g34
(lp2515
S'NL.RIVM.AQ/STA-NL00547/5'
p2516
asg36
(lp2517
S'52.23508303714937 5.181552'
p2518
aS'http://www.opengis.net/def/crs/EPSG/0/4326'
p2519
assS'NL.RIVM.AQ/SPO_F-NL00433_00005_100_101'
p2520
(dp2521
g34
(lp2522
S'NL.RIVM.AQ/STA-NL00433/5'
p2523
asg36
(lp2524
S'51.910474037472305 4.326303'
p2525
aS'http://www.opengis.net/def/crs/EPSG/0/4326'
p2526
assS'NL.RIVM.AQ/SPO_F-NL00561_00009_100_100'
p2527
(dp2528
g34
(lp2529
sg36
(lp2530
S'52.33400303704845 4.774006'
p2531
aS'http://www.opengis.net/def/crs/EPSG/0/4326'
p2532
assS'NL.RIVM.AQ/SPO_F-NL00007_06001_100_100'
p2533
(dp2534
g34
(lp2535
sg36
(lp2536
S'52.381331036999754 4.845233'
p2537
aS'http://www.opengis.net/def/crs/EPSG/0/4326'
p2538
assS'NL.RIVM.AQ/SPO_F-NL00741_06001_100_100'
p2539
(dp2540
g34
(lp2541
S'NL.RIVM.AQ/STA-NL00741/6001'
p2542
asg36
(lp2543
S'51.841372037539365 5.857777'
p2544
aS'http://www.opengis.net/def/crs/EPSG/0/4326'
p2545
assS'NL.RIVM.AQ/SPO_F-NL00807_00008_101_102'
p2546
(dp2547
g34
(lp2548
S'NL.RIVM.AQ/STA-NL00807/8'
p2549
asg36
(lp2550
S'52.388272036992596 6.402933000000001'
p2551
aS'http://www.opengis.net/def/crs/EPSG/0/4326'
p2552
assS'NL.RIVM.AQ/SPO_F-NL00137_00007_100_101'
p2553
(dp2554
g34
(lp2555
sg36
(lp2556
S'50.88487003840636 5.977283'
p2557
aS'http://www.opengis.net/def/crs/EPSG/0/4326'
p2558
assS'NL.RIVM.AQ/SPO_F-NL00433_00063_101_101'
p2559
(dp2560
g34
(lp2561
sg36
(lp2562
S'51.910474037472305 4.326303'
p2563
aS'http://www.opengis.net/def/crs/EPSG/0/4326'
p2564
assS'NL.RIVM.AQ/SPO_F-NL00437_00007_101_102'
p2565
(dp2566
g34
(lp2567
S'NL.RIVM.AQ/STA-NL00437/7'
p2568
asg36
(lp2569
S'51.78657903759214 4.450529000000001'
p2570
aS'http://www.opengis.net/def/crs/EPSG/0/4326'
p2571
assS'NL.RIVM.AQ/SPO_F-NL00937_00009_100_101'
p2572
(dp2573
g34
(lp2574
sg36
(lp2575
S'53.217796036096054 6.578900999999999'
p2576
aS'http://www.opengis.net/def/crs/EPSG/0/4326'
p2577
assS'NL.RIVM.AQ/SPO_F-NL00483_00021_100_100'
p2578
(dp2579
g34
(lp2580
sg36
(lp2581
S'51.87006903751158 4.318061'
p2582
aS'http://www.opengis.net/def/crs/EPSG/0/4326'
p2583
assS'NL.RIVM.AQ/SPO_F-NL00318_00005_100_101'
p2584
(dp2585
g34
(lp2586
S'NL.RIVM.AQ/STA-NL00318/5'
p2587
asg36
(lp2588
S'51.294498038049305 3.749483999999999'
p2589
aS'http://www.opengis.net/def/crs/EPSG/0/4326'
p2590
assS'NL.RIVM.AQ/SPO_F-NL00643_00008_100_100'
p2591
(dp2592
g34
(lp2593
S'NL.RIVM.AQ/STA-NL00643/8'
p2594
asg36
(lp2595
S'52.101308037284014 5.128183'
p2596
aS'http://www.opengis.net/def/crs/EPSG/0/4326'
p2597
assS'NL.RIVM.AQ/SPO_F-NL00442_00038_100_100'
p2598
(dp2599
g34
(lp2600
S'NL.RIVM.AQ/STA-NL00442/38'
p2601
asg36
(lp2602
S'51.80065803757861 4.708238999999999'
p2603
aS'http://www.opengis.net/def/crs/EPSG/0/4326'
p2604
assS'NL.RIVM.AQ/SPO_F-NL00444_00035_100_100'
p2605
(dp2606
g34
(lp2607
S'NL.RIVM.AQ/STA-NL00444/35'
p2608
asg36
(lp2609
S'52.2965560370868 4.510817'
p2610
aS'http://www.opengis.net/def/crs/EPSG/0/4326'
p2611
assS'NL.RIVM.AQ/SPO_F-NL00442_00008_100_100'
p2612
(dp2613
g34
(lp2614
S'NL.RIVM.AQ/STA-NL00442/8'
p2615
asg36
(lp2616
S'51.80065803757861 4.708238999999999'
p2617
aS'http://www.opengis.net/def/crs/EPSG/0/4326'
p2618
assS'NL.RIVM.AQ/SPO_F-NL00704_00005_100_100'
p2619
(dp2620
g34
(lp2621
sg36
(lp2622
S'52.428017036951445 4.773478'
p2623
aS'http://www.opengis.net/def/crs/EPSG/0/4326'
p2624
assS'NL.RIVM.AQ/SPO_F-NL00488_00010_100_100'
p2625
(dp2626
g34
(lp2627
sg36
(lp2628
S'51.893617037488696 4.487528'
p2629
aS'http://www.opengis.net/def/crs/EPSG/0/4326'
p2630
assS'NL.RIVM.AQ/SPO_F-NL00418_00008_111_112'
p2631
(dp2632
g34
(lp2633
S'NL.RIVM.AQ/STA-NL00418/8'
p2634
asg36
(lp2635
S'51.914233037468634 4.479923'
p2636
aS'http://www.opengis.net/def/crs/EPSG/0/4326'
p2637
assS'NL.RIVM.AQ/SPO_F-NL00433_00009_101_102'
p2638
(dp2639
g34
(lp2640
sg36
(lp2641
S'51.910474037472305 4.326303'
p2642
aS'http://www.opengis.net/def/crs/EPSG/0/4326'
p2643
assS'NL.RIVM.AQ/SPO_F-NL00247_00038_100_100'
p2644
(dp2645
g34
(lp2646
S'NL.RIVM.AQ/STA-NL00247/38'
p2647
asg36
(lp2648
S'51.40736503794714 5.3933279999999995'
p2649
aS'http://www.opengis.net/def/crs/EPSG/0/4326'
p2650
assS'NL.RIVM.AQ/SPO_F-NL00644_00009_100_100'
p2651
(dp2652
g34
(lp2653
sg36
(lp2654
S'51.97448903740961 4.923301'
p2655
aS'http://www.opengis.net/def/crs/EPSG/0/4326'
p2656
assS'NL.RIVM.AQ/SPO_F-NL00704_00020_100_100'
p2657
(dp2658
g34
(lp2659
sg36
(lp2660
S'52.428017036951445 4.773478'
p2661
aS'http://www.opengis.net/def/crs/EPSG/0/4326'
p2662
assS'NL.RIVM.AQ/SPO_F-NL00021_00008_101_101'
p2663
(dp2664
g34
(lp2665
sg36
(lp2666
S'52.32069203706209 4.988397000000001'
p2667
aS'http://www.opengis.net/def/crs/EPSG/0/4326'
p2668
assS'NL.RIVM.AQ/SPO_F-NL00538_00035_100_100'
p2669
(dp2670
g34
(lp2671
S'NL.RIVM.AQ/STA-NL00538/35'
p2672
asg36
(lp2673
S'52.803657036553524 5.050509'
p2674
aS'http://www.opengis.net/def/crs/EPSG/0/4326'
p2675
assS'NL.RIVM.AQ/SPO_F-NL00818_00005_100_101'
p2676
(dp2677
g34
(lp2678
S'NL.RIVM.AQ/STA-NL00818/5'
p2679
asg36
(lp2680
S'52.65414403671388 6.017571'
p2681
aS'http://www.opengis.net/def/crs/EPSG/0/4326'
p2682
assS'NL.RIVM.AQ/SPO_F-NL00021_00038_101_101'
p2683
(dp2684
g34
(lp2685
sg36
(lp2686
S'52.32069203706209 4.988397000000001'
p2687
aS'http://www.opengis.net/def/crs/EPSG/0/4326'
p2688
assS'NL.RIVM.AQ/SPO_F-NL00137_00038_100_101'
p2689
(dp2690
g34
(lp2691
sg36
(lp2692
S'50.88487003840636 5.977283'
p2693
aS'http://www.opengis.net/def/crs/EPSG/0/4326'
p2694
assS'NL.RIVM.AQ/SPO_F-NL00644_00038_100_100'
p2695
(dp2696
g34
(lp2697
S'NL.RIVM.AQ/STA-NL00644/38'
p2698
asg36
(lp2699
S'51.97448903740961 4.923301'
p2700
aS'http://www.opengis.net/def/crs/EPSG/0/4326'
p2701
assS'NL.RIVM.AQ/SPO_F-NL00633_00035_100_100'
p2702
(dp2703
g34
(lp2704
S'NL.RIVM.AQ/STA-NL00633/35'
p2705
asg36
(lp2706
S'52.13795003724734 4.83819'
p2707
aS'http://www.opengis.net/def/crs/EPSG/0/4326'
p2708
assS'NL.RIVM.AQ/SPO_F-NL00553_00038_100_100'
p2709
(dp2710
g34
(lp2711
sg36
(lp2712
S'52.49399203688275 4.601986000000001'
p2713
aS'http://www.opengis.net/def/crs/EPSG/0/4326'
p2714
assS'NL.RIVM.AQ/SPO_F-NL00636_06001_100_100'
p2715
(dp2716
g34
(lp2717
S'NL.RIVM.AQ/STA-NL00636/6001'
p2718
asg36
(lp2719
S'52.105031037280284 5.124464'
p2720
aS'http://www.opengis.net/def/crs/EPSG/0/4326'
p2721
assS'NL.RIVM.AQ/SPO_F-NL00447_00005_100_101'
p2722
(dp2723
g34
(lp2724
sg36
(lp2725
S'52.1677530372174 4.50756'
p2726
aS'http://www.opengis.net/def/crs/EPSG/0/4326'
p2727
assS'NL.RIVM.AQ/SPO_F-NL00703_00005_101_101'
p2728
(dp2729
g34
(lp2730
sg36
(lp2731
S'52.39843703698208 4.728581'
p2732
aS'http://www.opengis.net/def/crs/EPSG/0/4326'
p2733
assS'NL.RIVM.AQ/SPO_F-NL00704_00009_100_100'
p2734
(dp2735
g34
(lp2736
sg36
(lp2737
S'52.428017036951445 4.773478'
p2738
aS'http://www.opengis.net/def/crs/EPSG/0/4326'
p2739
assS'NL.RIVM.AQ/SPO_F-NL00639_00464_100_101'
p2740
(dp2741
g34
(lp2742
sg36
(lp2743
S'52.06774803731743 5.120507000000001'
p2744
aS'http://www.opengis.net/def/crs/EPSG/0/4326'
p2745
assS'NL.RIVM.AQ/SPO_F-NL00137_00005_100_101'
p2746
(dp2747
g34
(lp2748
sg36
(lp2749
S'50.88487003840636 5.977283'
p2750
aS'http://www.opengis.net/def/crs/EPSG/0/4326'
p2751
assS'NL.RIVM.AQ/SPO_F-NL00247_06001_100_100'
p2752
(dp2753
g34
(lp2754
S'NL.RIVM.AQ/STA-NL00247/6001'
p2755
asg36
(lp2756
S'51.40736503794714 5.3933279999999995'
p2757
aS'http://www.opengis.net/def/crs/EPSG/0/4326'
p2758
assS'NL.RIVM.AQ/SPO_F-NL00131_00006_112_112'
p2759
(dp2760
g34
(lp2761
sg36
(lp2762
S'51.540520037824535 5.853069999999999'
p2763
aS'http://www.opengis.net/def/crs/EPSG/0/4326'
p2764
assS'NL.RIVM.AQ/SPO_F-NL00938_00038_100_101'
p2765
(dp2766
g34
(lp2767
S'NL.RIVM.AQ/STA-NL00938/38'
p2768
asg36
(lp2769
S'53.2465350360636 6.608937'
p2770
aS'http://www.opengis.net/def/crs/EPSG/0/4326'
p2771
assS'NL.RIVM.AQ/SPO_F-NL00131_00007_111_112'
p2772
(dp2773
g34
(lp2774
S'NL.RIVM.AQ/STA-NL00131/7'
p2775
asg36
(lp2776
S'51.540520037824535 5.853069999999999'
p2777
aS'http://www.opengis.net/def/crs/EPSG/0/4326'
p2778
assS'NL.RIVM.AQ/SPO_F-NL00014_00005_101_101'
p2779
(dp2780
g34
(lp2781
sg36
(lp2782
S'52.359714037022016 4.866208'
p2783
aS'http://www.opengis.net/def/crs/EPSG/0/4326'
p2784
assS'NL.RIVM.AQ/SPO_F-NL00418_00009_101_102'
p2785
(dp2786
g34
(lp2787
sg36
(lp2788
S'51.914233037468634 4.479923'
p2789
aS'http://www.opengis.net/def/crs/EPSG/0/4326'
p2790
assS'NL.RIVM.AQ/SPO_F-NL00301_00007_101_102'
p2791
(dp2792
g34
(lp2793
S'NL.RIVM.AQ/STA-NL00301/7'
p2794
asg36
(lp2795
S'51.634706037736464 3.9166229999999995'
p2796
aS'http://www.opengis.net/def/crs/EPSG/0/4326'
p2797
assS'NL.RIVM.AQ/SPO_F-NL00934_06001_100_100'
p2798
(dp2799
g34
(lp2800
S'NL.RIVM.AQ/STA-NL00934/6001'
p2801
asg36
(lp2802
S'53.330425035968325 6.276815'
p2803
aS'http://www.opengis.net/def/crs/EPSG/0/4326'
p2804
assS'NL.RIVM.AQ/SPO_F-NL00016_00001_100_100'
p2805
(dp2806
g34
(lp2807
sg36
(lp2808
S'52.39397203698668 4.870157000000001'
p2809
aS'http://www.opengis.net/def/crs/EPSG/0/4326'
p2810
assS'NL.RIVM.AQ/SPO_F-NL00929_00035_100_100'
p2811
(dp2812
g34
(lp2813
S'NL.RIVM.AQ/STA-NL00929/35'
p2814
asg36
(lp2815
S'52.87572503647533 6.932432000000001'
p2816
aS'http://www.opengis.net/def/crs/EPSG/0/4326'
p2817
assS'NL.RIVM.AQ/SPO_F-NL00537_00005_100_101'
p2818
(dp2819
g34
(lp2820
sg36
(lp2821
S'52.38104003700004 4.64759'
p2822
aS'http://www.opengis.net/def/crs/EPSG/0/4326'
p2823
assS'NL.RIVM.AQ/SPO_F-NL00446_00007_100_100'
p2824
(dp2825
g34
(lp2826
S'NL.RIVM.AQ/STA-NL00446/7'
p2827
asg36
(lp2828
S'52.03902303734593 4.359376000000001'
p2829
aS'http://www.opengis.net/def/crs/EPSG/0/4326'
p2830
assS'NL.RIVM.AQ/SPO_F-NL00495_00007_100_100'
p2831
(dp2832
g34
(lp2833
sg36
(lp2834
S'51.932039037451226 4.228024999999998'
p2835
aS'http://www.opengis.net/def/crs/EPSG/0/4326'
p2836
assS'NL.RIVM.AQ/SPO_F-NL00007_00038_101_101'
p2837
(dp2838
g34
(lp2839
sg36
(lp2840
S'52.381331036999754 4.845233'
p2841
aS'http://www.opengis.net/def/crs/EPSG/0/4326'
p2842
assS'NL.RIVM.AQ/SPO_F-NL00433_00006_103_103'
p2843
(dp2844
g34
(lp2845
sg36
(lp2846
S'51.910474037472305 4.326303'
p2847
aS'http://www.opengis.net/def/crs/EPSG/0/4326'
p2848
assS'NL.RIVM.AQ/SPO_F-NL00245_00008_100_100'
p2849
(dp2850
g34
(lp2851
sg36
(lp2852
S'51.69938903767535 4.623598000000001'
p2853
aS'http://www.opengis.net/def/crs/EPSG/0/4326'
p2854
assS'NL.RIVM.AQ/SPO_F-NL00548_00038_100_100'
p2855
(dp2856
g34
(lp2857
sg36
(lp2858
S'52.26798003711595 5.1758299999999995'
p2859
aS'http://www.opengis.net/def/crs/EPSG/0/4326'
p2860
assS'NL.RIVM.AQ/SPO_F-NL00437_00009_101_102'
p2861
(dp2862
g34
(lp2863
sg36
(lp2864
S'51.78657903759214 4.450529000000001'
p2865
aS'http://www.opengis.net/def/crs/EPSG/0/4326'
p2866
assS'NL.RIVM.AQ/SPO_F-NL00235_00008_101_102'
p2867
(dp2868
g34
(lp2869
S'NL.RIVM.AQ/STA-NL00235/8'
p2870
asg36
(lp2871
S'51.43444303792239 4.359835'
p2872
aS'http://www.opengis.net/def/crs/EPSG/0/4326'
p2873
assS'NL.RIVM.AQ/SPO_F-NL00703_00020_100_100'
p2874
(dp2875
g34
(lp2876
sg36
(lp2877
S'52.39843703698208 4.728581'
p2878
aS'http://www.opengis.net/def/crs/EPSG/0/4326'
p2879
assS'NL.RIVM.AQ/SPO_F-NL00404_00009_101_102'
p2880
(dp2881
g34
(lp2882
sg36
(lp2883
S'52.07714803730809 4.289185000000001'
p2884
aS'http://www.opengis.net/def/crs/EPSG/0/4326'
p2885
assS'NL.RIVM.AQ/SPO_F-NL00418_06001_100_101'
p2886
(dp2887
g34
(lp2888
S'NL.RIVM.AQ/STA-NL00418/6001'
p2889
asg36
(lp2890
S'51.914233037468634 4.479923'
p2891
aS'http://www.opengis.net/def/crs/EPSG/0/4326'
p2892
assS'NL.RIVM.AQ/SPO_F-NL00538_00038_111_112'
p2893
(dp2894
g34
(lp2895
S'NL.RIVM.AQ/STA-NL00538/38'
p2896
asg36
(lp2897
S'52.803657036553524 5.050509'
p2898
aS'http://www.opengis.net/def/crs/EPSG/0/4326'
p2899
assS'NL.RIVM.AQ/SPO_F-NL00546_00038_100_100'
p2900
(dp2901
g34
(lp2902
sg36
(lp2903
S'52.420230036959516 4.83206'
p2904
aS'http://www.opengis.net/def/crs/EPSG/0/4326'
p2905
assS'NL.RIVM.AQ/SPO_F-NL00738_00007_100_101'
p2906
(dp2907
g34
(lp2908
S'NL.RIVM.AQ/STA-NL00738/7'
p2909
asg36
(lp2910
S'52.111621037273686 5.708418999999999'
p2911
aS'http://www.opengis.net/def/crs/EPSG/0/4326'
p2912
assS'NL.RIVM.AQ/SPO_F-NL00701_00005_101_101'
p2913
(dp2914
g34
(lp2915
sg36
(lp2916
S'52.44801103693068 4.816706000000001'
p2917
aS'http://www.opengis.net/def/crs/EPSG/0/4326'
p2918
assS'NL.RIVM.AQ/SPO_F-NL00742_00009_100_101'
p2919
(dp2920
g34
(lp2921
sg36
(lp2922
S'51.83822103754241 5.856938'
p2923
aS'http://www.opengis.net/def/crs/EPSG/0/4326'
p2924
assS'NL.RIVM.AQ/SPO_F-NL00020_00009_101_101'
p2925
(dp2926
g34
(lp2927
sg36
(lp2928
S'52.3747860370065 4.860319'
p2929
aS'http://www.opengis.net/def/crs/EPSG/0/4326'
p2930
assS'NL.RIVM.AQ/SPO_F-NL00572_06001_100_100'
p2931
(dp2932
g34
(lp2933
sg36
(lp2934
S'52.47440003690322 4.628799999999999'
p2935
aS'http://www.opengis.net/def/crs/EPSG/0/4326'
p2936
assS'NL.RIVM.AQ/SPO_F-NL00704_00008_100_100'
p2937
(dp2938
g34
(lp2939
sg36
(lp2940
S'52.428017036951445 4.773478'
p2941
aS'http://www.opengis.net/def/crs/EPSG/0/4326'
p2942
assS'NL.RIVM.AQ/SPO_F-NL00929_00046_101_101'
p2943
(dp2944
g34
(lp2945
sg36
(lp2946
S'52.87572503647533 6.932432000000001'
p2947
aS'http://www.opengis.net/def/crs/EPSG/0/4326'
p2948
assS'NL.RIVM.AQ/SPO_F-NL00938_00009_100_101'
p2949
(dp2950
g34
(lp2951
sg36
(lp2952
S'53.2465350360636 6.608937'
p2953
aS'http://www.opengis.net/def/crs/EPSG/0/4326'
p2954
assS'NL.RIVM.AQ/SPO_F-NL00565_00038_100_100'
p2955
(dp2956
g34
(lp2957
sg36
(lp2958
S'52.32746403705515 4.715008000000001'
p2959
aS'http://www.opengis.net/def/crs/EPSG/0/4326'
p2960
assS'NL.RIVM.AQ/SPO_F-NL00485_00001_100_100'
p2961
(dp2962
g34
(lp2963
sg36
(lp2964
S'51.867411037514145 4.355241999999999'
p2965
aS'http://www.opengis.net/def/crs/EPSG/0/4326'
p2966
assS'NL.RIVM.AQ/SPO_F-NL00553_00005_100_100'
p2967
(dp2968
g34
(lp2969
sg36
(lp2970
S'52.49399203688275 4.601986000000001'
p2971
aS'http://www.opengis.net/def/crs/EPSG/0/4326'
p2972
assS'NL.RIVM.AQ/SPO_F-NL00017_06001_100_100'
p2973
(dp2974
g34
(lp2975
sg36
(lp2976
S'52.358039037023744 4.8997'
p2977
aS'http://www.opengis.net/def/crs/EPSG/0/4326'
p2978
assS'NL.RIVM.AQ/SPO_F-NL00641_00009_100_101'
p2979
(dp2980
g34
(lp2981
sg36
(lp2982
S'52.20153003718333 4.987444000000001'
p2983
aS'http://www.opengis.net/def/crs/EPSG/0/4326'
p2984
assS'NL.RIVM.AQ/SPO_F-NL00404_00008_111_112'
p2985
(dp2986
g34
(lp2987
S'NL.RIVM.AQ/STA-NL00404/8'
p2988
asg36
(lp2989
S'52.07714803730809 4.289185000000001'
p2990
aS'http://www.opengis.net/def/crs/EPSG/0/4326'
p2991
assS'NL.RIVM.AQ/SPO_F-NL00444_00001_100_100'
p2992
(dp2993
g34
(lp2994
S'NL.RIVM.AQ/STA-NL00444/1'
p2995
asg36
(lp2996
S'52.2965560370868 4.510817'
p2997
aS'http://www.opengis.net/def/crs/EPSG/0/4326'
p2998
assS'NL.RIVM.AQ/SPO_F-NL00404_00038_111_112'
p2999
(dp3000
g34
(lp3001
S'NL.RIVM.AQ/STA-NL00404/38'
p3002
asg36
(lp3003
S'52.07714803730809 4.289185000000001'
p3004
aS'http://www.opengis.net/def/crs/EPSG/0/4326'
p3005
assS'NL.RIVM.AQ/SPO_F-NL00446_00008_100_100'
p3006
(dp3007
g34
(lp3008
S'NL.RIVM.AQ/STA-NL00446/8'
p3009
asg36
(lp3010
S'52.03902303734593 4.359376000000001'
p3011
aS'http://www.opengis.net/def/crs/EPSG/0/4326'
p3012
assS'NL.RIVM.AQ/SPO_F-NL00934_00668_100_100'
p3013
(dp3014
g34
(lp3015
sg36
(lp3016
S'53.330425035968325 6.276815'
p3017
aS'http://www.opengis.net/def/crs/EPSG/0/4326'
p3018
assS'NL.RIVM.AQ/SPO_F-NL00487_00038_100_100'
p3019
(dp3020
g34
(lp3021
sg36
(lp3022
S'51.89114703749109 4.480690000000001'
p3023
aS'http://www.opengis.net/def/crs/EPSG/0/4326'
p3024
assS'NL.RIVM.AQ/SPO_F-NL00538_00046_101_101'
p3025
(dp3026
g34
(lp3027
sg36
(lp3028
S'52.803657036553524 5.050509'
p3029
aS'http://www.opengis.net/def/crs/EPSG/0/4326'
p3030
assS'NL.RIVM.AQ/SPO_F-NL00553_06001_100_100'
p3031
(dp3032
g34
(lp3033
sg36
(lp3034
S'52.49399203688275 4.601986000000001'
p3035
aS'http://www.opengis.net/def/crs/EPSG/0/4326'
p3036
assS'NL.RIVM.AQ/SPO_F-NL00007_00010_100_100'
p3037
(dp3038
g34
(lp3039
sg36
(lp3040
S'52.381331036999754 4.845233'
p3041
aS'http://www.opengis.net/def/crs/EPSG/0/4326'
p3042
assS'NL.RIVM.AQ/SPO_F-NL00133_00008_101_102'
p3043
(dp3044
g34
(lp3045
S'NL.RIVM.AQ/STA-NL00133/8'
p3046
asg36
(lp3047
S'50.902281038391635 5.881748000000001'
p3048
aS'http://www.opengis.net/def/crs/EPSG/0/4326'
p3049
assS'NL.RIVM.AQ/SPO_F-NL00136_00005_100_101'
p3050
(dp3051
g34
(lp3052
S'NL.RIVM.AQ/STA-NL00136/5'
p3053
asg36
(lp3054
S'50.88795903840375 5.970496'
p3055
aS'http://www.opengis.net/def/crs/EPSG/0/4326'
p3056
assS'NL.RIVM.AQ/SPO_F-NL00644_00005_100_100'
p3057
(dp3058
g34
(lp3059
S'NL.RIVM.AQ/STA-NL00644/5'
p3060
asg36
(lp3061
S'51.97448903740961 4.923301'
p3062
aS'http://www.opengis.net/def/crs/EPSG/0/4326'
p3063
assS'NL.RIVM.AQ/SPO_F-NL00551_06001_100_100'
p3064
(dp3065
g34
(lp3066
sg36
(lp3067
S'52.46303903691505 4.6018419999999995'
p3068
aS'http://www.opengis.net/def/crs/EPSG/0/4326'
p3069
assS'NL.RIVM.AQ/SPO_F-NL00934_00018_101_101'
p3070
(dp3071
g34
(lp3072
sg36
(lp3073
S'53.330425035968325 6.276815'
p3074
aS'http://www.opengis.net/def/crs/EPSG/0/4326'
p3075
assS'NL.RIVM.AQ/SPO_F-NL00701_00008_100_100'
p3076
(dp3077
g34
(lp3078
sg36
(lp3079
S'52.44801103693068 4.816706000000001'
p3080
aS'http://www.opengis.net/def/crs/EPSG/0/4326'
p3081
assS'NL.RIVM.AQ/SPO_F-NL00246_00038_100_100'
p3082
(dp3083
g34
(lp3084
S'NL.RIVM.AQ/STA-NL00246/38'
p3085
asg36
(lp3086
S'51.65372903771855 4.515271'
p3087
aS'http://www.opengis.net/def/crs/EPSG/0/4326'
p3088
assS'NL.RIVM.AQ/SPO_F-NL00918_00005_100_101'
p3089
(dp3090
g34
(lp3091
S'NL.RIVM.AQ/STA-NL00918/5'
p3092
asg36
(lp3093
S'52.91691592643034 5.573491569999999'
p3094
aS'http://www.opengis.net/def/crs/EPSG/0/4326'
p3095
assS'NL.RIVM.AQ/SPO_F-NL00627_00018_101_101'
p3096
(dp3097
g34
(lp3098
sg36
(lp3099
S'52.12083303726448 5.195567'
p3100
aS'http://www.opengis.net/def/crs/EPSG/0/4326'
p3101
assS'NL.RIVM.AQ/SPO_F-NL00247_00005_100_100'
p3102
(dp3103
g34
(lp3104
S'NL.RIVM.AQ/STA-NL00247/5'
p3105
asg36
(lp3106
S'51.40736503794714 5.3933279999999995'
p3107
aS'http://www.opengis.net/def/crs/EPSG/0/4326'
p3108
assS'NL.RIVM.AQ/SPO_F-NL00445_00009_100_101'
p3109
(dp3110
g34
(lp3111
sg36
(lp3112
S'52.075071037310146 4.315872'
p3113
aS'http://www.opengis.net/def/crs/EPSG/0/4326'
p3114
assS'NL.RIVM.AQ/SPO_F-NL00551_00001_100_100'
p3115
(dp3116
g34
(lp3117
sg36
(lp3118
S'52.46303903691505 4.6018419999999995'
p3119
aS'http://www.opengis.net/def/crs/EPSG/0/4326'
p3120
assS'NL.RIVM.AQ/SPO_F-NL00728_00005_101_101'
p3121
(dp3122
g34
(lp3123
sg36
(lp3124
S'52.213965037170766 5.966719'
p3125
aS'http://www.opengis.net/def/crs/EPSG/0/4326'
p3126
assS'NL.RIVM.AQ/SPO_F-NL00549_00008_100_100'
p3127
(dp3128
g34
(lp3129
S'NL.RIVM.AQ/STA-NL00549/8'
p3130
asg36
(lp3131
S'52.257356037126755 5.235903'
p3132
aS'http://www.opengis.net/def/crs/EPSG/0/4326'
p3133
assS'NL.RIVM.AQ/SPO_F-NL00241_00006_100_100'
p3134
(dp3135
g34
(lp3136
sg36
(lp3137
S'51.60308003776617 4.781016000000001'
p3138
aS'http://www.opengis.net/def/crs/EPSG/0/4326'
p3139
assS'NL.RIVM.AQ/SPO_F-NL00488_00005_100_100'
p3140
(dp3141
g34
(lp3142
sg36
(lp3143
S'51.893617037488696 4.487528'
p3144
aS'http://www.opengis.net/def/crs/EPSG/0/4326'
p3145
assS'NL.RIVM.AQ/SPO_F-NL00641_00008_100_101'
p3146
(dp3147
g34
(lp3148
S'NL.RIVM.AQ/STA-NL00641/8'
p3149
asg36
(lp3150
S'52.20153003718333 4.987444000000001'
p3151
aS'http://www.opengis.net/def/crs/EPSG/0/4326'
p3152
assS'NL.RIVM.AQ/SPO_F-NL00570_00005_100_100'
p3153
(dp3154
g34
(lp3155
sg36
(lp3156
S'52.48930303688765 4.640531'
p3157
aS'http://www.opengis.net/def/crs/EPSG/0/4326'
p3158
assS'NL.RIVM.AQ/SPO_F-NL00442_00009_100_100'
p3159
(dp3160
g34
(lp3161
sg36
(lp3162
S'51.80065803757861 4.708238999999999'
p3163
aS'http://www.opengis.net/def/crs/EPSG/0/4326'
p3164
assS'NL.RIVM.AQ/SPO_F-NL00107_00008_101_102'
p3165
(dp3166
g34
(lp3167
S'NL.RIVM.AQ/STA-NL00107/8'
p3168
asg36
(lp3169
S'51.11919403820476 6.0423990000000005'
p3170
aS'http://www.opengis.net/def/crs/EPSG/0/4326'
p3171
assS'NL.RIVM.AQ/SPO_F-NL00636_00005_100_101'
p3172
(dp3173
g34
(lp3174
S'NL.RIVM.AQ/STA-NL00636/5'
p3175
asg36
(lp3176
S'52.105031037280284 5.124464'
p3177
aS'http://www.opengis.net/def/crs/EPSG/0/4326'
p3178
assS'NL.RIVM.AQ/SPO_F-NL00138_00005_100_100'
p3179
(dp3180
g34
(lp3181
S'NL.RIVM.AQ/STA-NL00138/5'
p3182
asg36
(lp3183
S'50.90031703839329 5.986853'
p3184
aS'http://www.opengis.net/def/crs/EPSG/0/4326'
p3185
assS'NL.RIVM.AQ/SPO_F-NL00701_06001_101_101'
p3186
(dp3187
g34
(lp3188
sg36
(lp3189
S'52.44801103693068 4.816706000000001'
p3190
aS'http://www.opengis.net/def/crs/EPSG/0/4326'
p3191
assS'NL.RIVM.AQ/SPO_F-NL00493_00009_100_100'
p3192
(dp3193
g34
(lp3194
sg36
(lp3195
S'51.92711103745604 4.461344'
p3196
aS'http://www.opengis.net/def/crs/EPSG/0/4326'
p3197
assS'NL.RIVM.AQ/SPO_F-NL00644_00001_100_100'
p3198
(dp3199
g34
(lp3200
S'NL.RIVM.AQ/STA-NL00644/1'
p3201
asg36
(lp3202
S'51.97448903740961 4.923301'
p3203
aS'http://www.opengis.net/def/crs/EPSG/0/4326'
p3204
assS'NL.RIVM.AQ/SPO_F-NL00493_00005_100_100'
p3205
(dp3206
g34
(lp3207
sg36
(lp3208
S'51.92711103745604 4.461344'
p3209
aS'http://www.opengis.net/def/crs/EPSG/0/4326'
p3210
assS'NL.RIVM.AQ/SPO_F-NL00230_00007_101_102'
p3211
(dp3212
g34
(lp3213
S'NL.RIVM.AQ/STA-NL00230/7'
p3214
asg36
(lp3215
S'51.518440037845004 5.1484499999999995'
p3216
aS'http://www.opengis.net/def/crs/EPSG/0/4326'
p3217
assS'NL.RIVM.AQ/SPO_F-NL00565_00009_100_100'
p3218
(dp3219
g34
(lp3220
sg36
(lp3221
S'52.32746403705515 4.715008000000001'
p3222
aS'http://www.opengis.net/def/crs/EPSG/0/4326'
p3223
assS'NL.RIVM.AQ/SPO_F-NL00485_00020_100_100'
p3224
(dp3225
g34
(lp3226
sg36
(lp3227
S'51.867411037514145 4.355241999999999'
p3228
aS'http://www.opengis.net/def/crs/EPSG/0/4326'
p3229
assS'NL.RIVM.AQ/SPO_F-NL00318_00038_111_112'
p3230
(dp3231
g34
(lp3232
S'NL.RIVM.AQ/STA-NL00318/38'
p3233
asg36
(lp3234
S'51.294498038049305 3.749483999999999'
p3235
aS'http://www.opengis.net/def/crs/EPSG/0/4326'
p3236
assS'NL.RIVM.AQ/SPO_F-NL00446_00005_100_101'
p3237
(dp3238
g34
(lp3239
S'NL.RIVM.AQ/STA-NL00446/5'
p3240
asg36
(lp3241
S'52.03902303734593 4.359376000000001'
p3242
aS'http://www.opengis.net/def/crs/EPSG/0/4326'
p3243
assS'NL.RIVM.AQ/SPO_F-NL00934_00063_101_101'
p3244
(dp3245
g34
(lp3246
sg36
(lp3247
S'53.330425035968325 6.276815'
p3248
aS'http://www.opengis.net/def/crs/EPSG/0/4326'
p3249
assS'NL.RIVM.AQ/SPO_F-NL00644_00007_100_100'
p3250
(dp3251
g34
(lp3252
S'NL.RIVM.AQ/STA-NL00644/7'
p3253
asg36
(lp3254
S'51.97448903740961 4.923301'
p3255
aS'http://www.opengis.net/def/crs/EPSG/0/4326'
p3256
assS'NL.RIVM.AQ/SPO_F-NL00496_00005_100_100'
p3257
(dp3258
g34
(lp3259
sg36
(lp3260
S'51.97780303740636 4.121944000000001'
p3261
aS'http://www.opengis.net/def/crs/EPSG/0/4326'
p3262
assS'NL.RIVM.AQ/SPO_F-NL00016_06001_100_100'
p3263
(dp3264
g34
(lp3265
sg36
(lp3266
S'52.39397203698668 4.870157000000001'
p3267
aS'http://www.opengis.net/def/crs/EPSG/0/4326'
p3268
assS'NL.RIVM.AQ/SPO_F-NL00633_00008_101_102'
p3269
(dp3270
g34
(lp3271
S'NL.RIVM.AQ/STA-NL00633/8'
p3272
asg36
(lp3273
S'52.13795003724734 4.83819'
p3274
aS'http://www.opengis.net/def/crs/EPSG/0/4326'
p3275
assS'NL.RIVM.AQ/SPO_F-NL00644_00008_100_100'
p3276
(dp3277
g34
(lp3278
S'NL.RIVM.AQ/STA-NL00644/8'
p3279
asg36
(lp3280
S'51.97448903740961 4.923301'
p3281
aS'http://www.opengis.net/def/crs/EPSG/0/4326'
p3282
assS'NL.RIVM.AQ/SPO_F-NL00564_00005_100_100'
p3283
(dp3284
g34
(lp3285
sg36
(lp3286
S'52.28745003709609 4.766614000000001'
p3287
aS'http://www.opengis.net/def/crs/EPSG/0/4326'
p3288
assS'NL.RIVM.AQ/SPO_F-NL00636_00009_101_102'
p3289
(dp3290
g34
(lp3291
sg36
(lp3292
S'52.105031037280284 5.124464'
p3293
aS'http://www.opengis.net/def/crs/EPSG/0/4326'
p3294
assS'NL.RIVM.AQ/SPO_F-NL00570_06001_100_100'
p3295
(dp3296
g34
(lp3297
sg36
(lp3298
S'52.48930303688765 4.640531'
p3299
aS'http://www.opengis.net/def/crs/EPSG/0/4326'
p3300
assS'NL.RIVM.AQ/SPO_F-NL00639_00007_101_102'
p3301
(dp3302
g34
(lp3303
S'NL.RIVM.AQ/STA-NL00639/7'
p3304
asg36
(lp3305
S'52.06774803731743 5.120507000000001'
p3306
aS'http://www.opengis.net/def/crs/EPSG/0/4326'
p3307
assS'NL.RIVM.AQ/SPO_F-NL00489_00007_100_100'
p3308
(dp3309
g34
(lp3310
sg36
(lp3311
S'51.869431037512186 4.580058'
p3312
aS'http://www.opengis.net/def/crs/EPSG/0/4326'
p3313
asssS'procedure'
p3314
(dp3315
S'NL.RIVM.AQ/SPP-NL_A_chemi_D9038'
p3316
(dp3317
S'http://dd.eionet.europa.eu/vocabulary/aq/pollutant/38'
p3318
(dp3319
g34
(lp3320
g2154
ag1792
ag117
asS'FOI'
p3321
g7
((lp3322
S'NL.RIVM.AQ/SPO_F-NL00643_00038_100_100'
p3323
aS'NL.RIVM.AQ/SPO_F-NL00446_00038_100_100'
p3324
aS'NL.RIVM.AQ/SPO_F-NL00240_00038_100_100'
p3325
atRp3326
ssS'http://dd.eionet.europa.eu/vocabulary/aq/pollutant/9'
p3327
(dp3328
g34
(lp3329
S'NL.RIVM.AQ/STA-NL00240/9'
p3330
aS'NL.RIVM.AQ/STA-NL00446/9'
p3331
asg3321
g7
((ltRp3332
ssS'http://dd.eionet.europa.eu/vocabulary/aq/pollutant/8'
p3333
(dp3334
g34
(lp3335
g63
ag3009
ag2594
asg3321
g7
((lp3336
S'NL.RIVM.AQ/SPO_F-NL00446_00008_100_100'
p3337
aS'NL.RIVM.AQ/SPO_F-NL00240_00008_100_100'
p3338
aS'NL.RIVM.AQ/SPO_F-NL00643_00008_100_100'
p3339
atRp3340
sssS'NL.RIVM.AQ/SPP-NL_A_chemi_thermo42i'
p3341
(dp3342
S'http://dd.eionet.europa.eu/vocabulary/aq/pollutant/38'
p3343
(dp3344
g34
(lp3345
S'NL.RIVM.AQ/STA-NL00014/38'
p3346
aS'NL.RIVM.AQ/STA-NL00019/38'
p3347
aS'NL.RIVM.AQ/STA-NL00020/38'
p3348
aS'NL.RIVM.AQ/STA-NL00021/38'
p3349
aS'NL.RIVM.AQ/STA-NL00022/38'
p3350
aS'NL.RIVM.AQ/STA-NL00701/38'
p3351
asg3321
g7
((ltRp3352
ssS'http://dd.eionet.europa.eu/vocabulary/aq/pollutant/9'
p3353
(dp3354
g34
(lp3355
S'NL.RIVM.AQ/STA-NL00014/9'
p3356
aS'NL.RIVM.AQ/STA-NL00019/9'
p3357
aS'NL.RIVM.AQ/STA-NL00020/9'
p3358
aS'NL.RIVM.AQ/STA-NL00021/9'
p3359
aS'NL.RIVM.AQ/STA-NL00022/9'
p3360
aS'NL.RIVM.AQ/STA-NL00701/9'
p3361
asg3321
g7
((ltRp3362
ssS'http://dd.eionet.europa.eu/vocabulary/aq/pollutant/8'
p3363
(dp3364
g34
(lp3365
S'NL.RIVM.AQ/STA-NL00014/8'
p3366
aS'NL.RIVM.AQ/STA-NL00019/8'
p3367
aS'NL.RIVM.AQ/STA-NL00020/8'
p3368
aS'NL.RIVM.AQ/STA-NL00021/8'
p3369
aS'NL.RIVM.AQ/STA-NL00022/8'
p3370
aS'NL.RIVM.AQ/STA-NL00701/8'
p3371
asg3321
g7
((ltRp3372
sssS'NL.RIVM.AQ/SPP-NL_N_ICP-MS_leckelSEQ47-50'
p3373
(dp3374
S'http://dd.eionet.europa.eu/vocabulary/aq/pollutant/659'
p3375
(dp3376
g34
(lp3377
S'NL.RIVM.AQ/STA-NL00131/659'
p3378
aS'NL.RIVM.AQ/STA-NL00433/659'
p3379
aS'NL.RIVM.AQ/STA-NL00627/659'
p3380
aS'NL.RIVM.AQ/STA-NL00934/659'
p3381
asg3321
g7
((ltRp3382
ssS'http://dd.eionet.europa.eu/vocabulary/aq/pollutant/18'
p3383
(dp3384
g34
(lp3385
S'NL.RIVM.AQ/STA-NL00131/18'
p3386
aS'NL.RIVM.AQ/STA-NL00433/18'
p3387
aS'NL.RIVM.AQ/STA-NL00627/18'
p3388
aS'NL.RIVM.AQ/STA-NL00934/18'
p3389
asg3321
g7
((ltRp3390
ssS'http://dd.eionet.europa.eu/vocabulary/aq/pollutant/668'
p3391
(dp3392
g34
(lp3393
S'NL.RIVM.AQ/STA-NL00131/668'
p3394
aS'NL.RIVM.AQ/STA-NL00433/668'
p3395
aS'NL.RIVM.AQ/STA-NL00627/668'
p3396
aS'NL.RIVM.AQ/STA-NL00934/668'
p3397
asg3321
g7
((ltRp3398
ssS'http://dd.eionet.europa.eu/vocabulary/aq/pollutant/15'
p3399
(dp3400
g34
(lp3401
S'NL.RIVM.AQ/STA-NL00131/15'
p3402
aS'NL.RIVM.AQ/STA-NL00433/15'
p3403
aS'NL.RIVM.AQ/STA-NL00627/15'
p3404
aS'NL.RIVM.AQ/STA-NL00934/15'
p3405
asg3321
g7
((ltRp3406
ssS'http://dd.eionet.europa.eu/vocabulary/aq/pollutant/14'
p3407
(dp3408
g34
(lp3409
S'NL.RIVM.AQ/STA-NL00131/14'
p3410
aS'NL.RIVM.AQ/STA-NL00433/14'
p3411
aS'NL.RIVM.AQ/STA-NL00627/14'
p3412
aS'NL.RIVM.AQ/STA-NL00934/14'
p3413
asg3321
g7
((ltRp3414
ssS'http://dd.eionet.europa.eu/vocabulary/aq/pollutant/12'
p3415
(dp3416
g34
(lp3417
S'NL.RIVM.AQ/STA-NL00131/12'
p3418
aS'NL.RIVM.AQ/STA-NL00433/12'
p3419
aS'NL.RIVM.AQ/STA-NL00627/12'
p3420
aS'NL.RIVM.AQ/STA-NL00934/12'
p3421
asg3321
g7
((ltRp3422
ssS'http://dd.eionet.europa.eu/vocabulary/aq/pollutant/629'
p3423
(dp3424
g34
(lp3425
S'NL.RIVM.AQ/STA-NL00131/629'
p3426
aS'NL.RIVM.AQ/STA-NL00433/629'
p3427
aS'NL.RIVM.AQ/STA-NL00627/629'
p3428
aS'NL.RIVM.AQ/STA-NL00934/629'
p3429
asg3321
g7
((ltRp3430
ssS'http://dd.eionet.europa.eu/vocabulary/aq/pollutant/63'
p3431
(dp3432
g34
(lp3433
S'NL.RIVM.AQ/STA-NL00131/63'
p3434
aS'NL.RIVM.AQ/STA-NL00433/63'
p3435
aS'NL.RIVM.AQ/STA-NL00627/63'
p3436
aS'NL.RIVM.AQ/STA-NL00934/63'
p3437
asg3321
g7
((ltRp3438
sssS'NL.RIVM.AQ/SPP-NL_N_01466chrompackVOC-AIR'
p3439
(dp3440
S'http://dd.eionet.europa.eu/vocabulary/aq/pollutant/20'
p3441
(dp3442
g34
(lp3443
S'NL.RIVM.AQ/STA-NL00495/20'
p3444
asg3321
g7
((ltRp3445
ssS'http://dd.eionet.europa.eu/vocabulary/aq/pollutant/21'
p3446
(dp3447
g34
(lp3448
S'NL.RIVM.AQ/STA-NL00495/21'
p3449
asg3321
g7
((ltRp3450
sssS'NL.RIVM.AQ/SPP-NL_A_UV-FL_thermo43i'
p3451
(dp3452
S'http://dd.eionet.europa.eu/vocabulary/aq/pollutant/1'
p3453
(dp3454
g34
(lp3455
S'NL.RIVM.AQ/STA-NL00016/1'
p3456
aS'NL.RIVM.AQ/STA-NL00551/1'
p3457
aS'NL.RIVM.AQ/STA-NL00553/1'
p3458
aS'NL.RIVM.AQ/STA-NL00704/1'
p3459
asg3321
g7
((ltRp3460
sssS'NL.RIVM.AQ/SPP-NL_A_UV-P_thermo49c'
p3461
(dp3462
S'http://dd.eionet.europa.eu/vocabulary/aq/pollutant/7'
p3463
(dp3464
g34
(lp3465
S'NL.RIVM.AQ/STA-NL00485/7'
p3466
aS'NL.RIVM.AQ/STA-NL00489/7'
p3467
aS'NL.RIVM.AQ/STA-NL00493/7'
p3468
aS'NL.RIVM.AQ/STA-NL00494/7'
p3469
aS'NL.RIVM.AQ/STA-NL00495/7'
p3470
aS'NL.RIVM.AQ/STA-NL00496/7'
p3471
asg3321
g7
((ltRp3472
sssS'NL.RIVM.AQ/SPP-NL_A_UV-P_thermo49i'
p3473
(dp3474
S'http://dd.eionet.europa.eu/vocabulary/aq/pollutant/7'
p3475
(dp3476
g34
(lp3477
S'NL.RIVM.AQ/STA-NL00003/7'
p3478
aS'NL.RIVM.AQ/STA-NL00012/7'
p3479
aS'NL.RIVM.AQ/STA-NL00014/7'
p3480
ag136
ag2775
ag2013
aS'NL.RIVM.AQ/STA-NL00137/7'
p3481
ag3214
ag161
ag276
ag791
ag1319
ag2794
ag1830
ag1067
ag2325
ag656
ag2568
ag996
ag1021
aS'NL.RIVM.AQ/STA-NL00537/7'
p3482
ag951
aS'NL.RIVM.AQ/STA-NL00564/7'
p3483
ag110
ag754
ag3304
ag1563
ag1264
aS'NL.RIVM.AQ/STA-NL00701/7'
p3484
ag1556
ag2909
ag1779
ag199
ag1060
ag90
ag2123
ag643
ag2224
asg3321
g7
((lp3485
S'NL.RIVM.AQ/SPO_F-NL00538_00007_111_112'
p3486
aS'NL.RIVM.AQ/SPO_F-NL00738_00007_100_101'
p3487
aS'NL.RIVM.AQ/SPO_F-NL00742_00007_100_101'
p3488
aS'NL.RIVM.AQ/SPO_F-NL00236_00007_101_102'
p3489
aS'NL.RIVM.AQ/SPO_F-NL00241_00007_100_101'
p3490
aS'NL.RIVM.AQ/SPO_F-NL00818_00007_100_101'
p3491
aS'NL.RIVM.AQ/SPO_F-NL00918_00007_101_102'
p3492
aS'NL.RIVM.AQ/SPO_F-NL00938_00007_100_101'
p3493
aS'NL.RIVM.AQ/SPO_F-NL00722_00007_111_112'
p3494
aS'NL.RIVM.AQ/SPO_F-NL00247_00007_100_100'
p3495
aS'NL.RIVM.AQ/SPO_F-NL00444_00007_100_101'
p3496
aS'NL.RIVM.AQ/SPO_F-NL00934_00007_111_112'
p3497
aS'NL.RIVM.AQ/SPO_F-NL00631_00007_111_112'
p3498
aS'NL.RIVM.AQ/SPO_F-NL00433_00007_101_102'
p3499
aS'NL.RIVM.AQ/SPO_F-NL00107_00007_101_102'
p3500
aS'NL.RIVM.AQ/SPO_F-NL00133_00007_111_112'
p3501
aS'NL.RIVM.AQ/SPO_F-NL00442_00007_100_100'
p3502
aS'NL.RIVM.AQ/SPO_F-NL00404_00007_111_112'
p3503
aS'NL.RIVM.AQ/SPO_F-NL00641_00007_100_101'
p3504
aS'NL.RIVM.AQ/SPO_F-NL00131_00007_111_112'
p3505
aS'NL.RIVM.AQ/SPO_F-NL00235_00007_111_112'
p3506
aS'NL.RIVM.AQ/SPO_F-NL00301_00007_101_102'
p3507
aS'NL.RIVM.AQ/SPO_F-NL00318_00007_111_112'
p3508
aS'NL.RIVM.AQ/SPO_F-NL00643_00007_100_100'
p3509
aS'NL.RIVM.AQ/SPO_F-NL00230_00007_101_102'
p3510
aS'NL.RIVM.AQ/SPO_F-NL00807_00007_101_102'
p3511
aS'NL.RIVM.AQ/SPO_F-NL00418_00007_120_121'
p3512
aS'NL.RIVM.AQ/SPO_F-NL00437_00007_101_102'
p3513
aS'NL.RIVM.AQ/SPO_F-NL00929_00007_100_101'
p3514
aS'NL.RIVM.AQ/SPO_F-NL00633_00007_111_112'
p3515
aS'NL.RIVM.AQ/SPO_F-NL00639_00007_101_102'
p3516
atRp3517
sssS'NL.RIVM.AQ/SPP-NL_A_D9042D9042'
p3518
(dp3519
S'http://dd.eionet.europa.eu/vocabulary/aq/pollutant/20'
p3520
(dp3521
g34
(lp3522
S'NL.RIVM.AQ/STA-NL00017/20'
p3523
aS'NL.RIVM.AQ/STA-NL00703/20'
p3524
aS'NL.RIVM.AQ/STA-NL00704/20'
p3525
asg3321
g7
((ltRp3526
ssS'http://dd.eionet.europa.eu/vocabulary/aq/pollutant/21'
p3527
(dp3528
g34
(lp3529
S'NL.RIVM.AQ/STA-NL00017/21'
p3530
aS'NL.RIVM.AQ/STA-NL00703/21'
p3531
aS'NL.RIVM.AQ/STA-NL00704/21'
p3532
asg3321
g7
((ltRp3533
sssS'NL.RIVM.AQ/SPP-NL_A_UV-P_thermo49w'
p3534
(dp3535
S'http://dd.eionet.europa.eu/vocabulary/aq/pollutant/7'
p3536
(dp3537
g34
(lp3538
g3253
asg3321
g7
((lp3539
S'NL.RIVM.AQ/SPO_F-NL00644_00007_100_100'
p3540
atRp3541
sssS'NL.RIVM.AQ/SPP-NL_A_chemi_API200E'
p3542
(dp3543
S'http://dd.eionet.europa.eu/vocabulary/aq/pollutant/38'
p3544
(dp3545
g34
(lp3546
g442
ag1401
ag561
ag1047
aS'NL.RIVM.AQ/STA-NL00137/38'
p3547
ag243
ag1232
ag1609
ag1504
ag429
aS'NL.RIVM.AQ/STA-NL00245/38'
p3548
ag3085
ag2647
ag881
ag3233
ag3002
ag346
ag2040
ag1811
ag2601
ag397
ag43
aS'NL.RIVM.AQ/STA-NL00485/38'
p3549
aS'NL.RIVM.AQ/STA-NL00486/38'
p3550
aS'NL.RIVM.AQ/STA-NL00487/38'
p3551
aS'NL.RIVM.AQ/STA-NL00488/38'
p3552
aS'NL.RIVM.AQ/STA-NL00489/38'
p3553
aS'NL.RIVM.AQ/STA-NL00491/38'
p3554
aS'NL.RIVM.AQ/STA-NL00493/38'
p3555
aS'NL.RIVM.AQ/STA-NL00494/38'
p3556
aS'NL.RIVM.AQ/STA-NL00495/38'
p3557
aS'NL.RIVM.AQ/STA-NL00496/38'
p3558
aS'NL.RIVM.AQ/STA-NL00537/38'
p3559
ag2896
ag2116
aS'NL.RIVM.AQ/STA-NL00548/38'
p3560
ag2205
ag326
ag2370
ag2053
ag339
ag1375
ag2698
ag2467
ag212
ag919
ag1239
ag1874
ag2192
ag1524
ag2033
ag1408
ag83
ag2768
asg3321
g7
((lp3561
S'NL.RIVM.AQ/SPO_F-NL00246_00038_100_100'
p3562
aS'NL.RIVM.AQ/SPO_F-NL00442_00038_100_100'
p3563
aS'NL.RIVM.AQ/SPO_F-NL00918_00038_101_102'
p3564
aS'NL.RIVM.AQ/SPO_F-NL00445_00038_100_101'
p3565
aS'NL.RIVM.AQ/SPO_F-NL00230_00038_101_102'
p3566
aS'NL.RIVM.AQ/SPO_F-NL00538_00038_111_112'
p3567
aS'NL.RIVM.AQ/SPO_F-NL00818_00038_100_101'
p3568
aS'NL.RIVM.AQ/SPO_F-NL00549_00038_100_100'
p3569
aS'NL.RIVM.AQ/SPO_F-NL00937_00038_100_101'
p3570
aS'NL.RIVM.AQ/SPO_F-NL00241_00038_100_101'
p3571
aS'NL.RIVM.AQ/SPO_F-NL00247_00038_100_100'
p3572
aS'NL.RIVM.AQ/SPO_F-NL00107_00038_101_102'
p3573
aS'NL.RIVM.AQ/SPO_F-NL00641_00038_100_101'
p3574
aS'NL.RIVM.AQ/SPO_F-NL00722_00038_111_112'
p3575
aS'NL.RIVM.AQ/SPO_F-NL00235_00038_101_102'
p3576
aS'NL.RIVM.AQ/SPO_F-NL00631_00038_111_113'
p3577
aS'NL.RIVM.AQ/SPO_F-NL00644_00038_100_100'
p3578
aS'NL.RIVM.AQ/SPO_F-NL00136_00038_100_101'
p3579
aS'NL.RIVM.AQ/SPO_F-NL00639_00038_101_102'
p3580
aS'NL.RIVM.AQ/SPO_F-NL00418_00038_111_112'
p3581
aS'NL.RIVM.AQ/SPO_F-NL00131_00038_111_112'
p3582
aS'NL.RIVM.AQ/SPO_F-NL00934_00038_111_112'
p3583
aS'NL.RIVM.AQ/SPO_F-NL00738_00038_100_101'
p3584
aS'NL.RIVM.AQ/SPO_F-NL00404_00038_111_112'
p3585
aS'NL.RIVM.AQ/SPO_F-NL00938_00038_100_101'
p3586
aS'NL.RIVM.AQ/SPO_F-NL00929_00038_100_101'
p3587
aS'NL.RIVM.AQ/SPO_F-NL00433_00038_111_112'
p3588
aS'NL.RIVM.AQ/SPO_F-NL00636_00038_111_112'
p3589
aS'NL.RIVM.AQ/SPO_F-NL00437_00038_101_102'
p3590
aS'NL.RIVM.AQ/SPO_F-NL00633_00038_101_102'
p3591
aS'NL.RIVM.AQ/SPO_F-NL00236_00038_101_102'
p3592
aS'NL.RIVM.AQ/SPO_F-NL00742_00038_100_101'
p3593
aS'NL.RIVM.AQ/SPO_F-NL00318_00038_111_112'
p3594
aS'NL.RIVM.AQ/SPO_F-NL00301_00038_101_102'
p3595
aS'NL.RIVM.AQ/SPO_F-NL00444_00038_100_101'
p3596
aS'NL.RIVM.AQ/SPO_F-NL00741_00038_100_101'
p3597
aS'NL.RIVM.AQ/SPO_F-NL00807_00038_101_102'
p3598
aS'NL.RIVM.AQ/SPO_F-NL00133_00038_101_102'
p3599
aS'NL.RIVM.AQ/SPO_F-NL00237_00038_101_102'
p3600
aS'NL.RIVM.AQ/SPO_F-NL00547_00038_100_100'
p3601
atRp3602
ssS'http://dd.eionet.europa.eu/vocabulary/aq/pollutant/9'
p3603
(dp3604
g34
(lp3605
S'NL.RIVM.AQ/STA-NL00107/9'
p3606
aS'NL.RIVM.AQ/STA-NL00131/9'
p3607
aS'NL.RIVM.AQ/STA-NL00133/9'
p3608
aS'NL.RIVM.AQ/STA-NL00136/9'
p3609
aS'NL.RIVM.AQ/STA-NL00137/9'
p3610
aS'NL.RIVM.AQ/STA-NL00230/9'
p3611
aS'NL.RIVM.AQ/STA-NL00235/9'
p3612
aS'NL.RIVM.AQ/STA-NL00236/9'
p3613
aS'NL.RIVM.AQ/STA-NL00237/9'
p3614
aS'NL.RIVM.AQ/STA-NL00241/9'
p3615
aS'NL.RIVM.AQ/STA-NL00245/9'
p3616
aS'NL.RIVM.AQ/STA-NL00246/9'
p3617
aS'NL.RIVM.AQ/STA-NL00247/9'
p3618
aS'NL.RIVM.AQ/STA-NL00301/9'
p3619
aS'NL.RIVM.AQ/STA-NL00318/9'
p3620
aS'NL.RIVM.AQ/STA-NL00404/9'
p3621
aS'NL.RIVM.AQ/STA-NL00418/9'
p3622
aS'NL.RIVM.AQ/STA-NL00433/9'
p3623
aS'NL.RIVM.AQ/STA-NL00437/9'
p3624
aS'NL.RIVM.AQ/STA-NL00442/9'
p3625
aS'NL.RIVM.AQ/STA-NL00444/9'
p3626
aS'NL.RIVM.AQ/STA-NL00445/9'
p3627
aS'NL.RIVM.AQ/STA-NL00485/9'
p3628
aS'NL.RIVM.AQ/STA-NL00486/9'
p3629
aS'NL.RIVM.AQ/STA-NL00487/9'
p3630
aS'NL.RIVM.AQ/STA-NL00488/9'
p3631
aS'NL.RIVM.AQ/STA-NL00489/9'
p3632
aS'NL.RIVM.AQ/STA-NL00491/9'
p3633
aS'NL.RIVM.AQ/STA-NL00493/9'
p3634
aS'NL.RIVM.AQ/STA-NL00494/9'
p3635
aS'NL.RIVM.AQ/STA-NL00495/9'
p3636
aS'NL.RIVM.AQ/STA-NL00496/9'
p3637
aS'NL.RIVM.AQ/STA-NL00537/9'
p3638
aS'NL.RIVM.AQ/STA-NL00538/9'
p3639
aS'NL.RIVM.AQ/STA-NL00547/9'
p3640
aS'NL.RIVM.AQ/STA-NL00548/9'
p3641
aS'NL.RIVM.AQ/STA-NL00549/9'
p3642
aS'NL.RIVM.AQ/STA-NL00631/9'
p3643
aS'NL.RIVM.AQ/STA-NL00633/9'
p3644
aS'NL.RIVM.AQ/STA-NL00636/9'
p3645
aS'NL.RIVM.AQ/STA-NL00639/9'
p3646
aS'NL.RIVM.AQ/STA-NL00641/9'
p3647
aS'NL.RIVM.AQ/STA-NL00644/9'
p3648
aS'NL.RIVM.AQ/STA-NL00722/9'
p3649
aS'NL.RIVM.AQ/STA-NL00738/9'
p3650
aS'NL.RIVM.AQ/STA-NL00741/9'
p3651
aS'NL.RIVM.AQ/STA-NL00742/9'
p3652
aS'NL.RIVM.AQ/STA-NL00807/9'
p3653
aS'NL.RIVM.AQ/STA-NL00818/9'
p3654
aS'NL.RIVM.AQ/STA-NL00918/9'
p3655
aS'NL.RIVM.AQ/STA-NL00929/9'
p3656
aS'NL.RIVM.AQ/STA-NL00934/9'
p3657
aS'NL.RIVM.AQ/STA-NL00937/9'
p3658
aS'NL.RIVM.AQ/STA-NL00938/9'
p3659
asg3321
g7
((ltRp3660
ssS'http://dd.eionet.europa.eu/vocabulary/aq/pollutant/8'
p3661
(dp3662
g34
(lp3663
g3168
ag518
ag3046
ag1517
aS'NL.RIVM.AQ/STA-NL00137/8'
p3664
ag2363
ag2870
ag1976
ag410
ag701
aS'NL.RIVM.AQ/STA-NL00245/8'
p3665
ag1459
ag721
ag2404
ag283
ag2988
ag2634
ag1583
ag1338
ag2615
ag688
ag2384
aS'NL.RIVM.AQ/STA-NL00485/8'
p3666
aS'NL.RIVM.AQ/STA-NL00486/8'
p3667
aS'NL.RIVM.AQ/STA-NL00487/8'
p3668
aS'NL.RIVM.AQ/STA-NL00488/8'
p3669
aS'NL.RIVM.AQ/STA-NL00489/8'
p3670
aS'NL.RIVM.AQ/STA-NL00491/8'
p3671
aS'NL.RIVM.AQ/STA-NL00493/8'
p3672
aS'NL.RIVM.AQ/STA-NL00494/8'
p3673
aS'NL.RIVM.AQ/STA-NL00495/8'
p3674
aS'NL.RIVM.AQ/STA-NL00496/8'
p3675
aS'NL.RIVM.AQ/STA-NL00537/8'
p3676
ag1531
ag669
aS'NL.RIVM.AQ/STA-NL00548/8'
p3677
ag3130
ag168
ag3272
ag1654
ag473
ag3149
ag3279
ag359
ag1709
ag1576
ag2231
ag2549
ag2282
ag1931
ag2391
ag1760
ag384
ag831
asg3321
g7
((lp3678
S'NL.RIVM.AQ/SPO_F-NL00230_00008_101_102'
p3679
aS'NL.RIVM.AQ/SPO_F-NL00136_00008_100_101'
p3680
aS'NL.RIVM.AQ/SPO_F-NL00538_00008_111_112'
p3681
aS'NL.RIVM.AQ/SPO_F-NL00445_00008_100_101'
p3682
aS'NL.RIVM.AQ/SPO_F-NL00442_00008_100_100'
p3683
aS'NL.RIVM.AQ/SPO_F-NL00918_00008_101_102'
p3684
aS'NL.RIVM.AQ/SPO_F-NL00237_00008_101_102'
p3685
aS'NL.RIVM.AQ/SPO_F-NL00418_00008_111_112'
p3686
aS'NL.RIVM.AQ/SPO_F-NL00318_00008_111_112'
p3687
aS'NL.RIVM.AQ/SPO_F-NL00301_00008_101_102'
p3688
aS'NL.RIVM.AQ/SPO_F-NL00437_00008_101_102'
p3689
aS'NL.RIVM.AQ/SPO_F-NL00934_00008_111_112'
p3690
aS'NL.RIVM.AQ/SPO_F-NL00444_00008_100_101'
p3691
aS'NL.RIVM.AQ/SPO_F-NL00641_00008_100_101'
p3692
aS'NL.RIVM.AQ/SPO_F-NL00722_00008_111_112'
p3693
aS'NL.RIVM.AQ/SPO_F-NL00631_00008_111_113'
p3694
aS'NL.RIVM.AQ/SPO_F-NL00742_00008_100_101'
p3695
aS'NL.RIVM.AQ/SPO_F-NL00107_00008_101_102'
p3696
aS'NL.RIVM.AQ/SPO_F-NL00741_00008_100_101'
p3697
aS'NL.RIVM.AQ/SPO_F-NL00433_00008_111_112'
p3698
aS'NL.RIVM.AQ/SPO_F-NL00236_00008_101_102'
p3699
aS'NL.RIVM.AQ/SPO_F-NL00547_00008_100_100'
p3700
aS'NL.RIVM.AQ/SPO_F-NL00738_00008_100_101'
p3701
aS'NL.RIVM.AQ/SPO_F-NL00639_00008_101_102'
p3702
aS'NL.RIVM.AQ/SPO_F-NL00404_00008_111_112'
p3703
aS'NL.RIVM.AQ/SPO_F-NL00818_00008_100_101'
p3704
aS'NL.RIVM.AQ/SPO_F-NL00937_00008_100_101'
p3705
aS'NL.RIVM.AQ/SPO_F-NL00241_00008_100_101'
p3706
aS'NL.RIVM.AQ/SPO_F-NL00929_00008_100_101'
p3707
aS'NL.RIVM.AQ/SPO_F-NL00246_00008_100_100'
p3708
aS'NL.RIVM.AQ/SPO_F-NL00131_00008_111_112'
p3709
aS'NL.RIVM.AQ/SPO_F-NL00807_00008_101_102'
p3710
aS'NL.RIVM.AQ/SPO_F-NL00247_00008_100_100'
p3711
aS'NL.RIVM.AQ/SPO_F-NL00133_00008_101_102'
p3712
aS'NL.RIVM.AQ/SPO_F-NL00633_00008_101_102'
p3713
aS'NL.RIVM.AQ/SPO_F-NL00636_00008_111_112'
p3714
aS'NL.RIVM.AQ/SPO_F-NL00938_00008_100_101'
p3715
aS'NL.RIVM.AQ/SPO_F-NL00549_00008_100_100'
p3716
aS'NL.RIVM.AQ/SPO_F-NL00235_00008_101_102'
p3717
aS'NL.RIVM.AQ/SPO_F-NL00644_00008_100_100'
p3718
atRp3719
sssS'NL.RIVM.AQ/SPP-NL_A_NDIR_thermo48w'
p3720
(dp3721
S'http://dd.eionet.europa.eu/vocabulary/aq/pollutant/10'
p3722
(dp3723
g34
(lp3724
g2377
ag599
ag747
aS'NL.RIVM.AQ/STA-NL00742/10'
p3725
asg3321
g7
((lp3726
S'NL.RIVM.AQ/SPO_F-NL00741_00010_100_100'
p3727
aS'NL.RIVM.AQ/SPO_F-NL00644_00010_100_100'
p3728
aS'NL.RIVM.AQ/SPO_F-NL00633_00010_101_101'
p3729
atRp3730
sssS'NL.RIVM.AQ/SPP-NL_A_5090150901'
p3731
(dp3732
S'http://dd.eionet.europa.eu/vocabulary/aq/pollutant/35'
p3733
(dp3734
g34
(lp3735
g740
aS'NL.RIVM.AQ/STA-NL00235/35'
p3736
aS'NL.RIVM.AQ/STA-NL00244/35'
p3737
ag2608
ag2672
ag2705
aS'NL.RIVM.AQ/STA-NL00722/35'
p3738
ag2411
ag2814
asg3321
g7
((lp3739
S'NL.RIVM.AQ/SPO_F-NL00929_00035_100_100'
p3740
aS'NL.RIVM.AQ/SPO_F-NL00538_00035_100_100'
p3741
aS'NL.RIVM.AQ/SPO_F-NL00444_00035_100_100'
p3742
aS'NL.RIVM.AQ/SPO_F-NL00131_00035_100_100'
p3743
aS'NL.RIVM.AQ/SPO_F-NL00633_00035_100_100'
p3744
aS'NL.RIVM.AQ/SPO_F-NL00738_00035_100_100'
p3745
atRp3746
sssS'NL.RIVM.AQ/SPP-NL_A_UV-FL_API100E'
p3747
(dp3748
S'http://dd.eionet.europa.eu/vocabulary/aq/pollutant/1'
p3749
(dp3750
g34
(lp3751
S'NL.RIVM.AQ/STA-NL00484/1'
p3752
aS'NL.RIVM.AQ/STA-NL00485/1'
p3753
aS'NL.RIVM.AQ/STA-NL00486/1'
p3754
aS'NL.RIVM.AQ/STA-NL00494/1'
p3755
aS'NL.RIVM.AQ/STA-NL00495/1'
p3756
aS'NL.RIVM.AQ/STA-NL00496/1'
p3757
asg3321
g7
((ltRp3758
sssS'NL.RIVM.AQ/SPP-NL_N_gravi_leckelSEQ47-50'
p3759
(dp3760
S'http://dd.eionet.europa.eu/vocabulary/aq/pollutant/6001'
p3761
(dp3762
g34
(lp3763
g56
asg3321
g7
((lp3764
S'NL.RIVM.AQ/SPO_F-NL00230_06001_100_101'
p3765
atRp3766
sssS'NL.RIVM.AQ/SPP-NL_A_UV-FL_thermo43w'
p3767
(dp3768
S'http://dd.eionet.europa.eu/vocabulary/aq/pollutant/1'
p3769
(dp3770
g34
(lp3771
g1741
ag1647
ag2995
ag3201
ag1074
ag505
asg3321
g7
((lp3772
S'NL.RIVM.AQ/SPO_F-NL00722_00001_111_111'
p3773
aS'NL.RIVM.AQ/SPO_F-NL00133_00001_101_101'
p3774
aS'NL.RIVM.AQ/SPO_F-NL00444_00001_100_100'
p3775
aS'NL.RIVM.AQ/SPO_F-NL00934_00001_101_101'
p3776
aS'NL.RIVM.AQ/SPO_F-NL00644_00001_100_100'
p3777
aS'NL.RIVM.AQ/SPO_F-NL00318_00001_111_111'
p3778
atRp3779
sssS'NL.RIVM.AQ/SPP-NL_A_BETA_andersenFH62IR'
p3780
(dp3781
S'http://dd.eionet.europa.eu/vocabulary/aq/pollutant/5'
p3782
(dp3783
g34
(lp3784
g1969
ag2424
ag3053
aS'NL.RIVM.AQ/STA-NL00137/5'
p3785
ag3182
ag1484
ag1388
ag976
ag2256
ag983
ag574
aS'NL.RIVM.AQ/STA-NL00244/5'
p3786
ag1144
ag3105
aS'NL.RIVM.AQ/STA-NL00312/5'
p3787
ag2587
aS'NL.RIVM.AQ/STA-NL00319/5'
p3788
ag2096
ag1157
ag2523
ag263
ag912
ag97
ag2275
ag3240
aS'NL.RIVM.AQ/STA-NL00447/5'
p3789
aS'NL.RIVM.AQ/STA-NL00537/5'
p3790
ag824
ag798
ag498
aS'NL.RIVM.AQ/STA-NL00633/5'
p3791
ag3175
ag250
ag1938
ag3060
ag1119
aS'NL.RIVM.AQ/STA-NL00728/5'
p3792
ag1918
ag805
aS'NL.RIVM.AQ/STA-NL00743/5'
p3793
ag2679
ag3092
ag2350
ag1446
ag1590
asg3321
g7
((lp3794
S'NL.RIVM.AQ/SPO_F-NL00918_00005_100_101'
p3795
aS'NL.RIVM.AQ/SPO_F-NL00247_00005_100_100'
p3796
aS'NL.RIVM.AQ/SPO_F-NL00639_00005_100_101'
p3797
aS'NL.RIVM.AQ/SPO_F-NL00437_00005_100_101'
p3798
aS'NL.RIVM.AQ/SPO_F-NL00644_00005_100_100'
p3799
aS'NL.RIVM.AQ/SPO_F-NL00236_00005_100_101'
p3800
aS'NL.RIVM.AQ/SPO_F-NL00545_00005_100_100'
p3801
aS'NL.RIVM.AQ/SPO_F-NL00741_00005_100_101'
p3802
aS'NL.RIVM.AQ/SPO_F-NL00240_00005_100_101'
p3803
aS'NL.RIVM.AQ/SPO_F-NL00133_00005_100_101'
p3804
aS'NL.RIVM.AQ/SPO_F-NL00818_00005_100_101'
p3805
aS'NL.RIVM.AQ/SPO_F-NL00538_00005_100_101'
p3806
aS'NL.RIVM.AQ/SPO_F-NL00444_00005_100_101'
p3807
aS'NL.RIVM.AQ/SPO_F-NL00131_00005_100_101'
p3808
aS'NL.RIVM.AQ/SPO_F-NL00641_00005_101_101'
p3809
aS'NL.RIVM.AQ/SPO_F-NL00636_00005_100_101'
p3810
aS'NL.RIVM.AQ/SPO_F-NL00237_00005_100_101'
p3811
aS'NL.RIVM.AQ/SPO_F-NL00138_00005_100_100'
p3812
aS'NL.RIVM.AQ/SPO_F-NL00937_00005_100_101'
p3813
aS'NL.RIVM.AQ/SPO_F-NL00445_00005_100_101'
p3814
aS'NL.RIVM.AQ/SPO_F-NL00934_00005_100_100'
p3815
aS'NL.RIVM.AQ/SPO_F-NL00631_00005_100_100'
p3816
aS'NL.RIVM.AQ/SPO_F-NL00738_00005_101_101'
p3817
aS'NL.RIVM.AQ/SPO_F-NL00433_00005_100_101'
p3818
aS'NL.RIVM.AQ/SPO_F-NL00446_00005_100_101'
p3819
aS'NL.RIVM.AQ/SPO_F-NL00241_00005_100_101'
p3820
aS'NL.RIVM.AQ/SPO_F-NL00442_00005_100_100'
p3821
aS'NL.RIVM.AQ/SPO_F-NL00404_00005_100_101'
p3822
aS'NL.RIVM.AQ/SPO_F-NL00722_00005_100_101'
p3823
aS'NL.RIVM.AQ/SPO_F-NL00136_00005_100_101'
p3824
aS'NL.RIVM.AQ/SPO_F-NL00230_00005_100_101'
p3825
aS'NL.RIVM.AQ/SPO_F-NL00246_00005_100_100'
p3826
aS'NL.RIVM.AQ/SPO_F-NL00235_00005_100_100'
p3827
aS'NL.RIVM.AQ/SPO_F-NL00318_00005_100_101'
p3828
aS'NL.RIVM.AQ/SPO_F-NL00929_00005_100_101'
p3829
aS'NL.RIVM.AQ/SPO_F-NL00418_00005_100_101'
p3830
atRp3831
sssS'NL.RIVM.AQ/SPP-NL_A_reflect_08001'
p3832
(dp3833
S'http://dd.eionet.europa.eu/vocabulary/aq/pollutant/6'
p3834
(dp3835
g34
(lp3836
S'NL.RIVM.AQ/STA-NL00131/6'
p3837
aS'NL.RIVM.AQ/STA-NL00240/6'
p3838
aS'NL.RIVM.AQ/STA-NL00241/6'
p3839
aS'NL.RIVM.AQ/STA-NL00433/6'
p3840
aS'NL.RIVM.AQ/STA-NL00444/6'
p3841
aS'NL.RIVM.AQ/STA-NL00448/6'
p3842
aS'NL.RIVM.AQ/STA-NL00538/6'
p3843
asg3321
g7
((ltRp3844
sssS'NL.RIVM.AQ/SPP-NL_A_NDIR_API300E'
p3845
(dp3846
S'http://dd.eionet.europa.eu/vocabulary/aq/pollutant/10'
p3847
(dp3848
g34
(lp3849
S'NL.RIVM.AQ/STA-NL00487/10'
p3850
aS'NL.RIVM.AQ/STA-NL00488/10'
p3851
aS'NL.RIVM.AQ/STA-NL00491/10'
p3852
aS'NL.RIVM.AQ/STA-NL00493/10'
p3853
asg3321
g7
((ltRp3854
sssS'NL.RIVM.AQ/SPP-NL_A_IR-GFC_06003'
p3855
(dp3856
S'http://dd.eionet.europa.eu/vocabulary/aq/pollutant/10'
p3857
(dp3858
g34
(lp3859
S'NL.RIVM.AQ/STA-NL00007/10'
p3860
aS'NL.RIVM.AQ/STA-NL00012/10'
p3861
aS'NL.RIVM.AQ/STA-NL00014/10'
p3862
aS'NL.RIVM.AQ/STA-NL00551/10'
p3863
aS'NL.RIVM.AQ/STA-NL00553/10'
p3864
aS'NL.RIVM.AQ/STA-NL00561/10'
p3865
asg3321
g7
((ltRp3866
sssS'NL.RIVM.AQ/SPP-NL_N_CFA_leckelSEQ47-50'
p3867
(dp3868
S'http://dd.eionet.europa.eu/vocabulary/aq/pollutant/45'
p3869
(dp3870
g34
(lp3871
S'NL.RIVM.AQ/STA-NL00131/45'
p3872
aS'NL.RIVM.AQ/STA-NL00444/45'
p3873
aS'NL.RIVM.AQ/STA-NL00538/45'
p3874
aS'NL.RIVM.AQ/STA-NL00929/45'
p3875
asg3321
g7
((ltRp3876
sssS'NL.RIVM.AQ/SPP-NL_A_BETA_BAM1020'
p3877
(dp3878
S'http://dd.eionet.europa.eu/vocabulary/aq/pollutant/6001'
p3879
(dp3880
g34
(lp3881
S'NL.RIVM.AQ/STA-NL00007/6001'
p3882
aS'NL.RIVM.AQ/STA-NL00012/6001'
p3883
aS'NL.RIVM.AQ/STA-NL00014/6001'
p3884
aS'NL.RIVM.AQ/STA-NL00016/6001'
p3885
aS'NL.RIVM.AQ/STA-NL00017/6001'
p3886
aS'NL.RIVM.AQ/STA-NL00482/6001'
p3887
aS'NL.RIVM.AQ/STA-NL00487/6001'
p3888
aS'NL.RIVM.AQ/STA-NL00488/6001'
p3889
aS'NL.RIVM.AQ/STA-NL00489/6001'
p3890
aS'NL.RIVM.AQ/STA-NL00491/6001'
p3891
aS'NL.RIVM.AQ/STA-NL00494/6001'
p3892
aS'NL.RIVM.AQ/STA-NL00495/6001'
p3893
aS'NL.RIVM.AQ/STA-NL00496/6001'
p3894
aS'NL.RIVM.AQ/STA-NL00551/6001'
p3895
aS'NL.RIVM.AQ/STA-NL00553/6001'
p3896
aS'NL.RIVM.AQ/STA-NL00561/6001'
p3897
aS'NL.RIVM.AQ/STA-NL00570/6001'
p3898
aS'NL.RIVM.AQ/STA-NL00572/6001'
p3899
aS'NL.RIVM.AQ/STA-NL00573/6001'
p3900
aS'NL.RIVM.AQ/STA-NL00701/6001'
p3901
aS'NL.RIVM.AQ/STA-NL00703/6001'
p3902
aS'NL.RIVM.AQ/STA-NL00704/6001'
p3903
asg3321
g7
((ltRp3904
ssS'http://dd.eionet.europa.eu/vocabulary/aq/pollutant/5'
p3905
(dp3906
g34
(lp3907
S'NL.RIVM.AQ/STA-NL00007/5'
p3908
aS'NL.RIVM.AQ/STA-NL00012/5'
p3909
aS'NL.RIVM.AQ/STA-NL00014/5'
p3910
aS'NL.RIVM.AQ/STA-NL00016/5'
p3911
aS'NL.RIVM.AQ/STA-NL00017/5'
p3912
aS'NL.RIVM.AQ/STA-NL00482/5'
p3913
aS'NL.RIVM.AQ/STA-NL00485/5'
p3914
aS'NL.RIVM.AQ/STA-NL00487/5'
p3915
aS'NL.RIVM.AQ/STA-NL00488/5'
p3916
aS'NL.RIVM.AQ/STA-NL00489/5'
p3917
aS'NL.RIVM.AQ/STA-NL00491/5'
p3918
aS'NL.RIVM.AQ/STA-NL00493/5'
p3919
aS'NL.RIVM.AQ/STA-NL00494/5'
p3920
aS'NL.RIVM.AQ/STA-NL00495/5'
p3921
aS'NL.RIVM.AQ/STA-NL00496/5'
p3922
aS'NL.RIVM.AQ/STA-NL00546/5'
p3923
aS'NL.RIVM.AQ/STA-NL00551/5'
p3924
aS'NL.RIVM.AQ/STA-NL00553/5'
p3925
aS'NL.RIVM.AQ/STA-NL00556/5'
p3926
aS'NL.RIVM.AQ/STA-NL00561/5'
p3927
aS'NL.RIVM.AQ/STA-NL00564/5'
p3928
aS'NL.RIVM.AQ/STA-NL00565/5'
p3929
aS'NL.RIVM.AQ/STA-NL00570/5'
p3930
aS'NL.RIVM.AQ/STA-NL00572/5'
p3931
aS'NL.RIVM.AQ/STA-NL00573/5'
p3932
aS'NL.RIVM.AQ/STA-NL00701/5'
p3933
aS'NL.RIVM.AQ/STA-NL00703/5'
p3934
aS'NL.RIVM.AQ/STA-NL00704/5'
p3935
asg3321
g7
((ltRp3936
sssS'NL.RIVM.AQ/SPP-NL_A_D9037D9037'
p3937
(dp3938
S'http://dd.eionet.europa.eu/vocabulary/aq/pollutant/20'
p3939
(dp3940
g34
(lp3941
S'NL.RIVM.AQ/STA-NL00483/20'
p3942
aS'NL.RIVM.AQ/STA-NL00485/20'
p3943
aS'NL.RIVM.AQ/STA-NL00496/20'
p3944
asg3321
g7
((ltRp3945
ssS'http://dd.eionet.europa.eu/vocabulary/aq/pollutant/21'
p3946
(dp3947
g34
(lp3948
S'NL.RIVM.AQ/STA-NL00483/21'
p3949
aS'NL.RIVM.AQ/STA-NL00485/21'
p3950
aS'NL.RIVM.AQ/STA-NL00496/21'
p3951
asg3321
g7
((ltRp3952
sssS'NL.RIVM.AQ/SPP-NL_A_D9040D9040'
p3953
(dp3954
S'http://dd.eionet.europa.eu/vocabulary/aq/pollutant/431'
p3955
(dp3956
g34
(lp3957
S'NL.RIVM.AQ/STA-NL00633/431'
p3958
aS'NL.RIVM.AQ/STA-NL00639/431'
p3959
asg3321
g7
((ltRp3960
ssS'http://dd.eionet.europa.eu/vocabulary/aq/pollutant/20'
p3961
(dp3962
g34
(lp3963
S'NL.RIVM.AQ/STA-NL00546/20'
p3964
aS'NL.RIVM.AQ/STA-NL00633/20'
p3965
aS'NL.RIVM.AQ/STA-NL00639/20'
p3966
asg3321
g7
((ltRp3967
ssS'http://dd.eionet.europa.eu/vocabulary/aq/pollutant/21'
p3968
(dp3969
g34
(lp3970
S'NL.RIVM.AQ/STA-NL00546/21'
p3971
aS'NL.RIVM.AQ/STA-NL00633/21'
p3972
aS'NL.RIVM.AQ/STA-NL00639/21'
p3973
asg3321
g7
((ltRp3974
ssS'http://dd.eionet.europa.eu/vocabulary/aq/pollutant/482'
p3975
(dp3976
g34
(lp3977
S'NL.RIVM.AQ/STA-NL00633/482'
p3978
aS'NL.RIVM.AQ/STA-NL00639/482'
p3979
asg3321
g7
((ltRp3980
ssS'http://dd.eionet.europa.eu/vocabulary/aq/pollutant/464'
p3981
(dp3982
g34
(lp3983
S'NL.RIVM.AQ/STA-NL00633/464'
p3984
aS'NL.RIVM.AQ/STA-NL00639/464'
p3985
asg3321
g7
((ltRp3986
sssS'NL.RIVM.AQ/SPP-NL_N_gravi_derenda'
p3987
(dp3988
S'http://dd.eionet.europa.eu/vocabulary/aq/pollutant/6001'
p3989
(dp3990
g34
(lp3991
g944
ag1219
ag2109
ag2020
ag2161
ag2755
ag1212
ag2889
ag1728
ag1427
ag844
ag606
ag2718
ag76
ag1893
ag1497
ag1034
ag2542
ag1105
ag1112
ag2801
ag1622
ag708
asg3321
g7
((lp3992
S'NL.RIVM.AQ/SPO_F-NL00241_06001_100_101'
p3993
aS'NL.RIVM.AQ/SPO_F-NL00448_06001_100_101'
p3994
aS'NL.RIVM.AQ/SPO_F-NL00433_06001_100_101'
p3995
aS'NL.RIVM.AQ/SPO_F-NL00444_06001_100_101'
p3996
aS'NL.RIVM.AQ/SPO_F-NL00641_06001_100_100'
p3997
aS'NL.RIVM.AQ/SPO_F-NL00404_06001_100_101'
p3998
aS'NL.RIVM.AQ/SPO_F-NL00136_06001_100_100'
p3999
aS'NL.RIVM.AQ/SPO_F-NL00738_06001_100_100'
p4000
aS'NL.RIVM.AQ/SPO_F-NL00418_06001_100_101'
p4001
aS'NL.RIVM.AQ/SPO_F-NL00636_06001_100_100'
p4002
aS'NL.RIVM.AQ/SPO_F-NL00240_06001_100_100'
p4003
aS'NL.RIVM.AQ/SPO_F-NL00247_06001_100_100'
p4004
aS'NL.RIVM.AQ/SPO_F-NL00934_06001_100_100'
p4005
aS'NL.RIVM.AQ/SPO_F-NL00938_06001_100_101'
p4006
aS'NL.RIVM.AQ/SPO_F-NL00937_06001_100_100'
p4007
aS'NL.RIVM.AQ/SPO_F-NL00741_06001_100_100'
p4008
aS'NL.RIVM.AQ/SPO_F-NL00742_06001_100_100'
p4009
aS'NL.RIVM.AQ/SPO_F-NL00821_06001_100_100'
p4010
aS'NL.RIVM.AQ/SPO_F-NL00538_06001_100_100'
p4011
aS'NL.RIVM.AQ/SPO_F-NL00138_06001_100_100'
p4012
aS'NL.RIVM.AQ/SPO_F-NL00644_06001_100_100'
p4013
aS'NL.RIVM.AQ/SPO_F-NL00643_06001_100_100'
p4014
aS'NL.RIVM.AQ/SPO_F-NL00131_06001_100_101'
p4015
atRp4016
sssS'NL.RIVM.AQ/SPP-NL_N_IC_leckelSEQ47-50'
p4017
(dp4018
S'http://dd.eionet.europa.eu/vocabulary/aq/pollutant/46'
p4019
(dp4020
g34
(lp4021
S'NL.RIVM.AQ/STA-NL00131/46'
p4022
aS'NL.RIVM.AQ/STA-NL00444/46'
p4023
aS'NL.RIVM.AQ/STA-NL00538/46'
p4024
aS'NL.RIVM.AQ/STA-NL00929/46'
p4025
asg3321
g7
((ltRp4026
ssS'http://dd.eionet.europa.eu/vocabulary/aq/pollutant/47'
p4027
(dp4028
g34
(lp4029
S'NL.RIVM.AQ/STA-NL00131/47'
p4030
aS'NL.RIVM.AQ/STA-NL00444/47'
p4031
aS'NL.RIVM.AQ/STA-NL00538/47'
p4032
aS'NL.RIVM.AQ/STA-NL00929/47'
p4033
asg3321
g7
((ltRp4034
ssS'http://dd.eionet.europa.eu/vocabulary/aq/pollutant/631'
p4035
(dp4036
g34
(lp4037
S'NL.RIVM.AQ/STA-NL00131/631'
p4038
aS'NL.RIVM.AQ/STA-NL00444/631'
p4039
aS'NL.RIVM.AQ/STA-NL00538/631'
p4040
aS'NL.RIVM.AQ/STA-NL00929/631'
p4041
asg3321
g7
((ltRp4042
sssS'NL.RIVM.AQ/SPP-NL_A_BETA_D9041'
p4043
(dp4044
S'http://dd.eionet.europa.eu/vocabulary/aq/pollutant/5'
p4045
(dp4046
g34
(lp4047
g2516
ag1837
asg3321
g7
((lp4048
S'NL.RIVM.AQ/SPO_F-NL00549_00005_100_100'
p4049
aS'NL.RIVM.AQ/SPO_F-NL00547_00005_100_100'
p4050
atRp4051
sssS'NL.RIVM.AQ/SPP-NL_A_chemi_API200'
p4052
(dp4053
S'http://dd.eionet.europa.eu/vocabulary/aq/pollutant/38'
p4054
(dp4055
g34
(lp4056
S'NL.RIVM.AQ/STA-NL00002/38'
p4057
aS'NL.RIVM.AQ/STA-NL00003/38'
p4058
aS'NL.RIVM.AQ/STA-NL00007/38'
p4059
aS'NL.RIVM.AQ/STA-NL00012/38'
p4060
aS'NL.RIVM.AQ/STA-NL00017/38'
p4061
aS'NL.RIVM.AQ/STA-NL00546/38'
p4062
aS'NL.RIVM.AQ/STA-NL00551/38'
p4063
aS'NL.RIVM.AQ/STA-NL00553/38'
p4064
aS'NL.RIVM.AQ/STA-NL00561/38'
p4065
aS'NL.RIVM.AQ/STA-NL00564/38'
p4066
aS'NL.RIVM.AQ/STA-NL00565/38'
p4067
aS'NL.RIVM.AQ/STA-NL00703/38'
p4068
aS'NL.RIVM.AQ/STA-NL00704/38'
p4069
asg3321
g7
((ltRp4070
ssS'http://dd.eionet.europa.eu/vocabulary/aq/pollutant/9'
p4071
(dp4072
g34
(lp4073
S'NL.RIVM.AQ/STA-NL00002/9'
p4074
aS'NL.RIVM.AQ/STA-NL00003/9'
p4075
aS'NL.RIVM.AQ/STA-NL00007/9'
p4076
aS'NL.RIVM.AQ/STA-NL00012/9'
p4077
aS'NL.RIVM.AQ/STA-NL00017/9'
p4078
aS'NL.RIVM.AQ/STA-NL00546/9'
p4079
aS'NL.RIVM.AQ/STA-NL00551/9'
p4080
aS'NL.RIVM.AQ/STA-NL00553/9'
p4081
aS'NL.RIVM.AQ/STA-NL00561/9'
p4082
aS'NL.RIVM.AQ/STA-NL00564/9'
p4083
aS'NL.RIVM.AQ/STA-NL00565/9'
p4084
aS'NL.RIVM.AQ/STA-NL00703/9'
p4085
aS'NL.RIVM.AQ/STA-NL00704/9'
p4086
asg3321
g7
((ltRp4087
ssS'http://dd.eionet.europa.eu/vocabulary/aq/pollutant/8'
p4088
(dp4089
g34
(lp4090
S'NL.RIVM.AQ/STA-NL00002/8'
p4091
aS'NL.RIVM.AQ/STA-NL00003/8'
p4092
aS'NL.RIVM.AQ/STA-NL00007/8'
p4093
aS'NL.RIVM.AQ/STA-NL00012/8'
p4094
aS'NL.RIVM.AQ/STA-NL00017/8'
p4095
aS'NL.RIVM.AQ/STA-NL00546/8'
p4096
aS'NL.RIVM.AQ/STA-NL00551/8'
p4097
aS'NL.RIVM.AQ/STA-NL00553/8'
p4098
aS'NL.RIVM.AQ/STA-NL00561/8'
p4099
aS'NL.RIVM.AQ/STA-NL00564/8'
p4100
aS'NL.RIVM.AQ/STA-NL00565/8'
p4101
aS'NL.RIVM.AQ/STA-NL00703/8'
p4102
aS'NL.RIVM.AQ/STA-NL00704/8'
p4103
asg3321
g7
((ltRp4104
sssS'NL.RIVM.AQ/SPP-NL_A_UV-P_D9039'
p4105
(dp4106
S'http://dd.eionet.europa.eu/vocabulary/aq/pollutant/7'
p4107
(dp4108
g34
(lp4109
g2827
asg3321
g7
((lp4110
S'NL.RIVM.AQ/SPO_F-NL00446_00007_100_100'
p4111
atRp4112
ssssS'accesConstraints'
p4113
S'NONE'
p4114
sb.