(isosRequests
SOS
p1
(dp2
S'accessConstraints'
p3
S''
sS'name'
p4
S'RIVM SOS Service Air Quality'
p5
sS'resourceDescriptionFormat'
p6
c__builtin__
set
p7
((lp8
S'\n        '
p9
atRp10
sS'url'
p11
S'http://inspire.rivm.nl/sos/eaq/service?'
p12
sS'responseFormat'
p13
g7
((lp14
S'http://www.opengis.net/om/2.0'
p15
aS'http://www.opengis.net/waterml/2.0'
p16
aS'http://dd.eionet.europa.eu/schemaset/id2011850eu-1.0'
p17
aS'http://www.opengis.net/waterml-dr/2.0'
p18
aS'application/zip'
p19
aS'application/json'
p20
atRp21
sS'organisation'
p22
S'RIVM'
p23
sS'costs'
p24
S'NONE'
p25
sS'version'
p26
g7
((lp27
S'1.0.0'
p28
aS'2.0.0'
p29
atRp30
sS'error'
p31
I00
sS'featureofinterest'
p32
(dp33
S'NL.RIVM.AQ/SPO_F-NL00131_00046_101_101'
p34
(dp35
S'offerings'
p36
(lp37
sS'coords'
p38
(lp39
S'5.853069999999999 51.540520037824535 28.0'
p40
aS'http://www.opengis.net/def/crs/EPSG/0/4326'
p41
assS'NL.RIVM.AQ/SPO_F-NL00445_00038_100_101'
p42
(dp43
g36
(lp44
S'NL.RIVM.AQ/STA-NL00445/38'
p45
asg38
(lp46
S'4.315872 52.075071037310146 4.0'
p47
aS'http://www.opengis.net/def/crs/EPSG/0/4326'
p48
assS'NL.RIVM.AQ/SPO_F-NL00017_00021_100_100'
p49
(dp50
g36
(lp51
sg38
(lp52
S'4.8997 52.358039037023744 4.0'
p53
aS'http://www.opengis.net/def/crs/EPSG/0/4326'
p54
assS'NL.RIVM.AQ/SPO_F-NL00230_06001_100_101'
p55
(dp56
g36
(lp57
S'NL.RIVM.AQ/STA-NL00230/6001'
p58
asg38
(lp59
S'5.1484499999999995 51.518440037845004 15.0'
p60
aS'http://www.opengis.net/def/crs/EPSG/0/4326'
p61
assS'NL.RIVM.AQ/SPO_F-NL00240_00008_100_100'
p62
(dp63
g36
(lp64
S'NL.RIVM.AQ/STA-NL00240/8'
p65
asg38
(lp66
S'4.824944 51.5935330377751 4.0'
p67
aS'http://www.opengis.net/def/crs/EPSG/0/4326'
p68
assS'NL.RIVM.AQ/SPO_F-NL00245_00009_100_100'
p69
(dp70
g36
(lp71
sg38
(lp72
S'4.623598000000001 51.69938903767535 1.0'
p73
aS'http://www.opengis.net/def/crs/EPSG/0/4326'
p74
assS'NL.RIVM.AQ/SPO_F-NL00641_06001_100_100'
p75
(dp76
g36
(lp77
S'NL.RIVM.AQ/STA-NL00641/6001'
p78
asg38
(lp79
S'4.987444000000001 52.20153003718333 -1.0'
p80
aS'http://www.opengis.net/def/crs/EPSG/0/4326'
p81
assS'NL.RIVM.AQ/SPO_F-NL00937_00038_100_101'
p82
(dp83
g36
(lp84
S'NL.RIVM.AQ/STA-NL00937/38'
p85
asg38
(lp86
S'6.578900999999999 53.217796036096054 2.0'
p87
aS'http://www.opengis.net/def/crs/EPSG/0/4326'
p88
assS'NL.RIVM.AQ/SPO_F-NL00918_00007_101_102'
p89
(dp90
g36
(lp91
S'NL.RIVM.AQ/STA-NL00918/7'
p92
asg38
(lp93
S'5.573491569999999 52.91691592643034 1.0'
p94
aS'http://www.opengis.net/def/crs/EPSG/0/4326'
p95
assS'NL.RIVM.AQ/SPO_F-NL00444_00005_100_101'
p96
(dp97
g36
(lp98
S'NL.RIVM.AQ/STA-NL00444/5'
p99
asg38
(lp100
S'4.510817 52.2965560370868 4.0'
p101
aS'http://www.opengis.net/def/crs/EPSG/0/4326'
p102
assS'NL.RIVM.AQ/SPO_F-NL00627_00629_101_101'
p103
(dp104
g36
(lp105
sg38
(lp106
S'5.195567 52.12083303726448 3.0'
p107
aS'http://www.opengis.net/def/crs/EPSG/0/4326'
p108
assS'NL.RIVM.AQ/SPO_F-NL00631_00007_111_112'
p109
(dp110
g36
(lp111
S'NL.RIVM.AQ/STA-NL00631/7'
p112
asg38
(lp113
S'5.619210000000001 52.448710036929945 -4.0'
p114
aS'http://www.opengis.net/def/crs/EPSG/0/4326'
p115
assS'NL.RIVM.AQ/SPO_F-NL00643_00038_100_100'
p116
(dp117
g36
(lp118
S'NL.RIVM.AQ/STA-NL00643/38'
p119
asg38
(lp120
S'5.128183 52.101308037284014 2.0'
p121
aS'http://www.opengis.net/def/crs/EPSG/0/4326'
p122
assS'NL.RIVM.AQ/SPO_F-NL00537_00038_101_102'
p123
(dp124
g36
(lp125
sg38
(lp126
S'4.64759 52.38104003700004 1.0'
p127
aS'http://www.opengis.net/def/crs/EPSG/0/4326'
p128
assS'NL.RIVM.AQ/SPO_F-NL00631_00009_111_103'
p129
(dp130
g36
(lp131
sg38
(lp132
S'5.619210000000001 52.448710036929945 -4.0'
p133
aS'http://www.opengis.net/def/crs/EPSG/0/4326'
p134
assS'NL.RIVM.AQ/SPO_F-NL00107_00007_101_102'
p135
(dp136
g36
(lp137
S'NL.RIVM.AQ/STA-NL00107/7'
p138
asg38
(lp139
S'6.0423990000000005 51.11919403820476 32.0'
p140
aS'http://www.opengis.net/def/crs/EPSG/0/4326'
p141
assS'NL.RIVM.AQ/SPO_F-NL00014_00038_100_100'
p142
(dp143
g36
(lp144
sg38
(lp145
S'4.866208 52.359714037022016 2.0'
p146
aS'http://www.opengis.net/def/crs/EPSG/0/4326'
p147
assS'NL.RIVM.AQ/SPO_F-NL00929_00045_101_101'
p148
(dp149
g36
(lp150
sg38
(lp151
S'6.932432000000001 52.87572503647533 10.0'
p152
aS'http://www.opengis.net/def/crs/EPSG/0/4326'
p153
assS'NL.RIVM.AQ/SPO_F-NL00131_00659_100_100'
p154
(dp155
g36
(lp156
sg38
(lp157
S'5.853069999999999 51.540520037824535 28.0'
p158
aS'http://www.opengis.net/def/crs/EPSG/0/4326'
p159
assS'NL.RIVM.AQ/SPO_F-NL00235_00007_111_112'
p160
(dp161
g36
(lp162
S'NL.RIVM.AQ/STA-NL00235/7'
p163
asg38
(lp164
S'4.359835 51.43444303792239 18.0'
p165
aS'http://www.opengis.net/def/crs/EPSG/0/4326'
p166
assS'NL.RIVM.AQ/SPO_F-NL00631_00008_111_113'
p167
(dp168
g36
(lp169
S'NL.RIVM.AQ/STA-NL00631/8'
p170
asg38
(lp171
S'5.619210000000001 52.448710036929945 -4.0'
p172
aS'http://www.opengis.net/def/crs/EPSG/0/4326'
p173
assS'NL.RIVM.AQ/SPO_F-NL00561_06001_100_100'
p174
(dp175
g36
(lp176
sg38
(lp177
S'4.774006 52.33400303704845 1.0'
p178
aS'http://www.opengis.net/def/crs/EPSG/0/4326'
p179
assS'NL.RIVM.AQ/SPO_F-NL00131_00045_101_101'
p180
(dp181
g36
(lp182
sg38
(lp183
S'5.853069999999999 51.540520037824535 28.0'
p184
aS'http://www.opengis.net/def/crs/EPSG/0/4326'
p185
assS'NL.RIVM.AQ/SPO_F-NL00012_00038_101_101'
p186
(dp187
g36
(lp188
sg38
(lp189
S'4.887811 52.38998303699083 4.0'
p190
aS'http://www.opengis.net/def/crs/EPSG/0/4326'
p191
assS'NL.RIVM.AQ/SPO_F-NL00137_00008_100_101'
p192
(dp193
g36
(lp194
sg38
(lp195
S'5.977283 50.88487003840636 115.0'
p196
aS'http://www.opengis.net/def/crs/EPSG/0/4326'
p197
assS'NL.RIVM.AQ/SPO_F-NL00807_00007_101_102'
p198
(dp199
g36
(lp200
S'NL.RIVM.AQ/STA-NL00807/7'
p201
asg38
(lp202
S'6.402933000000001 52.388272036992596 7.0'
p203
aS'http://www.opengis.net/def/crs/EPSG/0/4326'
p204
assS'NL.RIVM.AQ/SPO_F-NL00496_00001_100_100'
p205
(dp206
g36
(lp207
sg38
(lp208
S'4.121944000000001 51.97780303740636 0.0'
p209
aS'http://www.opengis.net/def/crs/EPSG/0/4326'
p210
assS'NL.RIVM.AQ/SPO_F-NL00738_00038_100_101'
p211
(dp212
g36
(lp213
S'NL.RIVM.AQ/STA-NL00738/38'
p214
asg38
(lp215
S'5.708418999999999 52.111621037273686 18.0'
p216
aS'http://www.opengis.net/def/crs/EPSG/0/4326'
p217
assS'NL.RIVM.AQ/SPO_F-NL00627_00015_101_101'
p218
(dp219
g36
(lp220
sg38
(lp221
S'5.195567 52.12083303726448 3.0'
p222
aS'http://www.opengis.net/def/crs/EPSG/0/4326'
p223
assS'NL.RIVM.AQ/SPO_F-NL00561_00010_100_100'
p224
(dp225
g36
(lp226
sg38
(lp227
S'4.774006 52.33400303704845 1.0'
p228
aS'http://www.opengis.net/def/crs/EPSG/0/4326'
p229
assS'NL.RIVM.AQ/SPO_F-NL00487_00005_100_100'
p230
(dp231
g36
(lp232
sg38
(lp233
S'4.480690000000001 51.89114703749109 0.0'
p234
aS'http://www.opengis.net/def/crs/EPSG/0/4326'
p235
assS'NL.RIVM.AQ/SPO_F-NL00485_00008_100_100'
p236
(dp237
g36
(lp238
sg38
(lp239
S'4.355241999999999 51.867411037514145 1.0'
p240
aS'http://www.opengis.net/def/crs/EPSG/0/4326'
p241
assS'NL.RIVM.AQ/SPO_F-NL00230_00038_101_102'
p242
(dp243
g36
(lp244
S'NL.RIVM.AQ/STA-NL00230/38'
p245
asg38
(lp246
S'5.1484499999999995 51.518440037845004 15.0'
p247
aS'http://www.opengis.net/def/crs/EPSG/0/4326'
p248
assS'NL.RIVM.AQ/SPO_F-NL00639_00005_100_101'
p249
(dp250
g36
(lp251
S'NL.RIVM.AQ/STA-NL00639/5'
p252
asg38
(lp253
S'5.120507000000001 52.06774803731743 1.0'
p254
aS'http://www.opengis.net/def/crs/EPSG/0/4326'
p255
assS'NL.RIVM.AQ/SPO_F-NL00017_00038_101_101'
p256
(dp257
g36
(lp258
sg38
(lp259
S'4.8997 52.358039037023744 4.0'
p260
aS'http://www.opengis.net/def/crs/EPSG/0/4326'
p261
assS'NL.RIVM.AQ/SPO_F-NL00437_00005_100_101'
p262
(dp263
g36
(lp264
S'NL.RIVM.AQ/STA-NL00437/5'
p265
asg38
(lp266
S'4.450529000000001 51.78657903759214 -1.0'
p267
aS'http://www.opengis.net/def/crs/EPSG/0/4326'
p268
assS'NL.RIVM.AQ/SPO_F-NL00627_00014_102_102'
p269
(dp270
g36
(lp271
sg38
(lp272
S'5.195567 52.12083303726448 3.0'
p273
aS'http://www.opengis.net/def/crs/EPSG/0/4326'
p274
assS'NL.RIVM.AQ/SPO_F-NL00236_00007_101_102'
p275
(dp276
g36
(lp277
S'NL.RIVM.AQ/STA-NL00236/7'
p278
asg38
(lp279
S'5.47235 51.46866203789098 17.0'
p280
aS'http://www.opengis.net/def/crs/EPSG/0/4326'
p281
assS'NL.RIVM.AQ/SPO_F-NL00318_00008_111_112'
p282
(dp283
g36
(lp284
S'NL.RIVM.AQ/STA-NL00318/8'
p285
asg38
(lp286
S'3.749483999999999 51.294498038049305 5.0'
p287
aS'http://www.opengis.net/def/crs/EPSG/0/4326'
p288
assS'NL.RIVM.AQ/SPO_F-NL00633_00482_102_102'
p289
(dp290
g36
(lp291
sg38
(lp292
S'4.83819 52.13795003724734 -2.0'
p293
aS'http://www.opengis.net/def/crs/EPSG/0/4326'
p294
assS'NL.RIVM.AQ/SPO_F-NL00487_06001_100_100'
p295
(dp296
g36
(lp297
sg38
(lp298
S'4.480690000000001 51.89114703749109 0.0'
p299
aS'http://www.opengis.net/def/crs/EPSG/0/4326'
p300
assS'NL.RIVM.AQ/SPO_F-NL00012_06001_100_100'
p301
(dp302
g36
(lp303
sg38
(lp304
S'4.887811 52.38998303699083 4.0'
p305
aS'http://www.opengis.net/def/crs/EPSG/0/4326'
p306
assS'NL.RIVM.AQ/SPO_F-NL00014_00010_100_100'
p307
(dp308
g36
(lp309
sg38
(lp310
S'4.866208 52.359714037022016 2.0'
p311
aS'http://www.opengis.net/def/crs/EPSG/0/4326'
p312
assS'NL.RIVM.AQ/SPO_F-NL00244_00035_100_100'
p313
(dp314
g36
(lp315
sg38
(lp316
S'5.808593 51.535901037828836 1.0'
p317
aS'http://www.opengis.net/def/crs/EPSG/0/4326'
p318
assS'NL.RIVM.AQ/SPO_F-NL00020_00038_101_101'
p319
(dp320
g36
(lp321
sg38
(lp322
S'4.860319 52.3747860370065 4.0'
p323
aS'http://www.opengis.net/def/crs/EPSG/0/4326'
p324
assS'NL.RIVM.AQ/SPO_F-NL00631_00038_111_113'
p325
(dp326
g36
(lp327
S'NL.RIVM.AQ/STA-NL00631/38'
p328
asg38
(lp329
S'5.619210000000001 52.448710036929945 -4.0'
p330
aS'http://www.opengis.net/def/crs/EPSG/0/4326'
p331
assS'NL.RIVM.AQ/SPO_F-NL00433_00018_101_101'
p332
(dp333
g36
(lp334
sg38
(lp335
S'4.326303 51.910474037472305 -1.0'
p336
aS'http://www.opengis.net/def/crs/EPSG/0/4326'
p337
assS'NL.RIVM.AQ/SPO_F-NL00639_00038_101_102'
p338
(dp339
g36
(lp340
S'NL.RIVM.AQ/STA-NL00639/38'
p341
asg38
(lp342
S'5.120507000000001 52.06774803731743 1.0'
p343
aS'http://www.opengis.net/def/crs/EPSG/0/4326'
p344
assS'NL.RIVM.AQ/SPO_F-NL00418_00038_111_112'
p345
(dp346
g36
(lp347
S'NL.RIVM.AQ/STA-NL00418/38'
p348
asg38
(lp349
S'4.479923 51.914233037468634 3.0'
p350
aS'http://www.opengis.net/def/crs/EPSG/0/4326'
p351
assS'NL.RIVM.AQ/SPO_F-NL00485_00038_100_100'
p352
(dp353
g36
(lp354
sg38
(lp355
S'4.355241999999999 51.867411037514145 1.0'
p356
aS'http://www.opengis.net/def/crs/EPSG/0/4326'
p357
assS'NL.RIVM.AQ/SPO_F-NL00722_00008_111_112'
p358
(dp359
g36
(lp360
S'NL.RIVM.AQ/STA-NL00722/8'
p361
asg38
(lp362
S'6.605367 52.09180103729347 19.0'
p363
aS'http://www.opengis.net/def/crs/EPSG/0/4326'
p364
assS'NL.RIVM.AQ/SPO_F-NL00444_00631_101_101'
p365
(dp366
g36
(lp367
sg38
(lp368
S'4.510817 52.2965560370868 4.0'
p369
aS'http://www.opengis.net/def/crs/EPSG/0/4326'
p370
assS'NL.RIVM.AQ/SPO_F-NL00551_00038_100_100'
p371
(dp372
g36
(lp373
sg38
(lp374
S'4.6018419999999995 52.46303903691505 1.0'
p375
aS'http://www.opengis.net/def/crs/EPSG/0/4326'
p376
assS'NL.RIVM.AQ/SPO_F-NL00703_00009_100_100'
p377
(dp378
g36
(lp379
sg38
(lp380
S'4.728581 52.39843703698208 1.0'
p381
aS'http://www.opengis.net/def/crs/EPSG/0/4326'
p382
assS'NL.RIVM.AQ/SPO_F-NL00937_00008_100_101'
p383
(dp384
g36
(lp385
S'NL.RIVM.AQ/STA-NL00937/8'
p386
asg38
(lp387
S'6.578900999999999 53.217796036096054 2.0'
p388
aS'http://www.opengis.net/def/crs/EPSG/0/4326'
p389
assS'NL.RIVM.AQ/SPO_F-NL00486_00038_100_100'
p390
(dp391
g36
(lp392
sg38
(lp393
S'4.388808000000001 51.8878690374943 0.0'
p394
aS'http://www.opengis.net/def/crs/EPSG/0/4326'
p395
assS'NL.RIVM.AQ/SPO_F-NL00444_00038_100_101'
p396
(dp397
g36
(lp398
S'NL.RIVM.AQ/STA-NL00444/38'
p399
asg38
(lp400
S'4.510817 52.2965560370868 4.0'
p401
aS'http://www.opengis.net/def/crs/EPSG/0/4326'
p402
assS'NL.RIVM.AQ/SPO_F-NL00448_00006_100_100'
p403
(dp404
g36
(lp405
sg38
(lp406
S'4.461340000000001 51.927110037456046 2.0'
p407
aS'http://www.opengis.net/def/crs/EPSG/0/4326'
p408
assS'NL.RIVM.AQ/SPO_F-NL00237_00008_101_102'
p409
(dp410
g36
(lp411
S'NL.RIVM.AQ/STA-NL00237/8'
p412
asg38
(lp413
S'5.444833000000001 51.44415703791349 18.0'
p414
aS'http://www.opengis.net/def/crs/EPSG/0/4326'
p415
assS'NL.RIVM.AQ/SPO_F-NL00496_00020_100_100'
p416
(dp417
g36
(lp418
sg38
(lp419
S'4.121944000000001 51.97780303740636 0.0'
p420
aS'http://www.opengis.net/def/crs/EPSG/0/4326'
p421
assS'NL.RIVM.AQ/SPO_F-NL00488_06001_100_100'
p422
(dp423
g36
(lp424
sg38
(lp425
S'4.487528 51.893617037488696 0.0'
p426
aS'http://www.opengis.net/def/crs/EPSG/0/4326'
p427
assS'NL.RIVM.AQ/SPO_F-NL00241_00038_100_101'
p428
(dp429
g36
(lp430
S'NL.RIVM.AQ/STA-NL00241/38'
p431
asg38
(lp432
S'4.781016000000001 51.60308003776617 1.0'
p433
aS'http://www.opengis.net/def/crs/EPSG/0/4326'
p434
assS'NL.RIVM.AQ/SPO_F-NL00003_00038_101_101'
p435
(dp436
g36
(lp437
sg38
(lp438
S'4.943822 52.38931403699149 1.0'
p439
aS'http://www.opengis.net/def/crs/EPSG/0/4326'
p440
assS'NL.RIVM.AQ/SPO_F-NL00107_00038_101_102'
p441
(dp442
g36
(lp443
S'NL.RIVM.AQ/STA-NL00107/38'
p444
asg38
(lp445
S'6.0423990000000005 51.11919403820476 32.0'
p446
aS'http://www.opengis.net/def/crs/EPSG/0/4326'
p447
assS'NL.RIVM.AQ/SPO_F-NL00546_00005_100_100'
p448
(dp449
g36
(lp450
sg38
(lp451
S'4.83206 52.420230036959516 1.0'
p452
aS'http://www.opengis.net/def/crs/EPSG/0/4326'
p453
assS'NL.RIVM.AQ/SPO_F-NL00131_00015_101_101'
p454
(dp455
g36
(lp456
sg38
(lp457
S'5.853069999999999 51.540520037824535 28.0'
p458
aS'http://www.opengis.net/def/crs/EPSG/0/4326'
p459
assS'NL.RIVM.AQ/SPO_F-NL00929_00009_100_101'
p460
(dp461
g36
(lp462
sg38
(lp463
S'6.932432000000001 52.87572503647533 10.0'
p464
aS'http://www.opengis.net/def/crs/EPSG/0/4326'
p465
assS'NL.RIVM.AQ/SPO_F-NL00546_00021_100_100'
p466
(dp467
g36
(lp468
sg38
(lp469
S'4.83206 52.420230036959516 1.0'
p470
aS'http://www.opengis.net/def/crs/EPSG/0/4326'
p471
assS'NL.RIVM.AQ/SPO_F-NL00639_00008_101_102'
p472
(dp473
g36
(lp474
S'NL.RIVM.AQ/STA-NL00639/8'
p475
asg38
(lp476
S'5.120507000000001 52.06774803731743 1.0'
p477
aS'http://www.opengis.net/def/crs/EPSG/0/4326'
p478
assS'NL.RIVM.AQ/SPO_F-NL00485_00007_100_100'
p479
(dp480
g36
(lp481
sg38
(lp482
S'4.355241999999999 51.867411037514145 1.0'
p483
aS'http://www.opengis.net/def/crs/EPSG/0/4326'
p484
assS'NL.RIVM.AQ/SPO_F-NL00022_00009_101_101'
p485
(dp486
g36
(lp487
sg38
(lp488
S'4.793344000000001 52.36681103701471 -1.0'
p489
aS'http://www.opengis.net/def/crs/EPSG/0/4326'
p490
assS'NL.RIVM.AQ/SPO_F-NL00538_00006_112_112'
p491
(dp492
g36
(lp493
sg38
(lp494
S'5.050509 52.803657036553524 -4.0'
p495
aS'http://www.opengis.net/def/crs/EPSG/0/4326'
p496
assS'NL.RIVM.AQ/SPO_F-NL00631_00005_100_100'
p497
(dp498
g36
(lp499
S'NL.RIVM.AQ/STA-NL00631/5'
p500
asg38
(lp501
S'5.619210000000001 52.448710036929945 -4.0'
p502
aS'http://www.opengis.net/def/crs/EPSG/0/4326'
p503
assS'NL.RIVM.AQ/SPO_F-NL00934_00001_101_101'
p504
(dp505
g36
(lp506
S'NL.RIVM.AQ/STA-NL00934/1'
p507
asg38
(lp508
S'6.276815 53.330425035968325 1.0'
p509
aS'http://www.opengis.net/def/crs/EPSG/0/4326'
p510
assS'NL.RIVM.AQ/SPO_F-NL00131_00629_101_101'
p511
(dp512
g36
(lp513
sg38
(lp514
S'5.853069999999999 51.540520037824535 28.0'
p515
aS'http://www.opengis.net/def/crs/EPSG/0/4326'
p516
assS'NL.RIVM.AQ/SPO_F-NL00131_00008_111_112'
p517
(dp518
g36
(lp519
S'NL.RIVM.AQ/STA-NL00131/8'
p520
asg38
(lp521
S'5.853069999999999 51.540520037824535 28.0'
p522
aS'http://www.opengis.net/def/crs/EPSG/0/4326'
p523
assS'NL.RIVM.AQ/SPO_F-NL00131_00009_101_102'
p524
(dp525
g36
(lp526
sg38
(lp527
S'5.853069999999999 51.540520037824535 28.0'
p528
aS'http://www.opengis.net/def/crs/EPSG/0/4326'
p529
assS'NL.RIVM.AQ/SPO_F-NL00012_00010_100_100'
p530
(dp531
g36
(lp532
sg38
(lp533
S'4.887811 52.38998303699083 4.0'
p534
aS'http://www.opengis.net/def/crs/EPSG/0/4326'
p535
assS'NL.RIVM.AQ/SPO_F-NL00488_00008_100_100'
p536
(dp537
g36
(lp538
sg38
(lp539
S'4.487528 51.893617037488696 0.0'
p540
aS'http://www.opengis.net/def/crs/EPSG/0/4326'
p541
assS'NL.RIVM.AQ/SPO_F-NL00488_00009_100_100'
p542
(dp543
g36
(lp544
sg38
(lp545
S'4.487528 51.893617037488696 0.0'
p546
aS'http://www.opengis.net/def/crs/EPSG/0/4326'
p547
assS'NL.RIVM.AQ/SPO_F-NL00561_00038_100_100'
p548
(dp549
g36
(lp550
sg38
(lp551
S'4.774006 52.33400303704845 1.0'
p552
aS'http://www.opengis.net/def/crs/EPSG/0/4326'
p553
assS'NL.RIVM.AQ/SPO_F-NL00537_00008_101_102'
p554
(dp555
g36
(lp556
sg38
(lp557
S'4.64759 52.38104003700004 1.0'
p558
aS'http://www.opengis.net/def/crs/EPSG/0/4326'
p559
assS'NL.RIVM.AQ/SPO_F-NL00133_00038_101_102'
p560
(dp561
g36
(lp562
S'NL.RIVM.AQ/STA-NL00133/38'
p563
asg38
(lp564
S'5.881748000000001 50.902281038391635 96.0'
p565
aS'http://www.opengis.net/def/crs/EPSG/0/4326'
p566
assS'NL.RIVM.AQ/SPO_F-NL00561_00008_100_100'
p567
(dp568
g36
(lp569
sg38
(lp570
S'4.774006 52.33400303704845 1.0'
p571
aS'http://www.opengis.net/def/crs/EPSG/0/4326'
p572
assS'NL.RIVM.AQ/SPO_F-NL00241_00005_100_101'
p573
(dp574
g36
(lp575
S'NL.RIVM.AQ/STA-NL00241/5'
p576
asg38
(lp577
S'4.781016000000001 51.60308003776617 1.0'
p578
aS'http://www.opengis.net/def/crs/EPSG/0/4326'
p579
assS'NL.RIVM.AQ/SPO_F-NL00495_00005_100_100'
p580
(dp581
g36
(lp582
sg38
(lp583
S'4.228024999999998 51.932039037451226 0.0'
p584
aS'http://www.opengis.net/def/crs/EPSG/0/4326'
p585
assS'NL.RIVM.AQ/SPO_F-NL00131_00012_101_101'
p586
(dp587
g36
(lp588
sg38
(lp589
S'5.853069999999999 51.540520037824535 28.0'
p590
aS'http://www.opengis.net/def/crs/EPSG/0/4326'
p591
assS'NL.RIVM.AQ/SPO_F-NL00491_00009_100_100'
p592
(dp593
g36
(lp594
sg38
(lp595
S'4.430692 51.93847203744493 0.0'
p596
aS'http://www.opengis.net/def/crs/EPSG/0/4326'
p597
assS'NL.RIVM.AQ/SPO_F-NL00644_00010_100_100'
p598
(dp599
g36
(lp600
S'NL.RIVM.AQ/STA-NL00644/10'
p601
asg38
(lp602
S'4.923301 51.97448903740961 1.0'
p603
aS'http://www.opengis.net/def/crs/EPSG/0/4326'
p604
assS'NL.RIVM.AQ/SPO_F-NL00538_06001_100_100'
p605
(dp606
g36
(lp607
S'NL.RIVM.AQ/STA-NL00538/6001'
p608
asg38
(lp609
S'5.050509 52.803657036553524 -4.0'
p610
aS'http://www.opengis.net/def/crs/EPSG/0/4326'
p611
assS'NL.RIVM.AQ/SPO_F-NL00444_00046_101_101'
p612
(dp613
g36
(lp614
sg38
(lp615
S'4.510817 52.2965560370868 4.0'
p616
aS'http://www.opengis.net/def/crs/EPSG/0/4326'
p617
assS'NL.RIVM.AQ/SPO_F-NL00230_00009_101_102'
p618
(dp619
g36
(lp620
sg38
(lp621
S'5.1484499999999995 51.518440037845004 15.0'
p622
aS'http://www.opengis.net/def/crs/EPSG/0/4326'
p623
assS'NL.RIVM.AQ/SPO_F-NL00564_00008_100_100'
p624
(dp625
g36
(lp626
sg38
(lp627
S'4.766614000000001 52.28745003709609 1.0'
p628
aS'http://www.opengis.net/def/crs/EPSG/0/4326'
p629
assS'NL.RIVM.AQ/SPO_F-NL00546_00009_100_100'
p630
(dp631
g36
(lp632
sg38
(lp633
S'4.83206 52.420230036959516 1.0'
p634
aS'http://www.opengis.net/def/crs/EPSG/0/4326'
p635
assS'NL.RIVM.AQ/SPO_F-NL00485_00005_100_100'
p636
(dp637
g36
(lp638
sg38
(lp639
S'4.355241999999999 51.867411037514145 1.0'
p640
aS'http://www.opengis.net/def/crs/EPSG/0/4326'
p641
assS'NL.RIVM.AQ/SPO_F-NL00934_00007_111_112'
p642
(dp643
g36
(lp644
S'NL.RIVM.AQ/STA-NL00934/7'
p645
asg38
(lp646
S'6.276815 53.330425035968325 1.0'
p647
aS'http://www.opengis.net/def/crs/EPSG/0/4326'
p648
assS'NL.RIVM.AQ/SPO_F-NL00934_00659_100_100'
p649
(dp650
g36
(lp651
sg38
(lp652
S'6.276815 53.330425035968325 1.0'
p653
aS'http://www.opengis.net/def/crs/EPSG/0/4326'
p654
assS'NL.RIVM.AQ/SPO_F-NL00433_00007_101_102'
p655
(dp656
g36
(lp657
S'NL.RIVM.AQ/STA-NL00433/7'
p658
asg38
(lp659
S'4.326303 51.910474037472305 -1.0'
p660
aS'http://www.opengis.net/def/crs/EPSG/0/4326'
p661
assS'NL.RIVM.AQ/SPO_F-NL00245_00038_100_100'
p662
(dp663
g36
(lp664
sg38
(lp665
S'4.623598000000001 51.69938903767535 1.0'
p666
aS'http://www.opengis.net/def/crs/EPSG/0/4326'
p667
assS'NL.RIVM.AQ/SPO_F-NL00547_00008_100_100'
p668
(dp669
g36
(lp670
S'NL.RIVM.AQ/STA-NL00547/8'
p671
asg38
(lp672
S'5.181552 52.23508303714937 1.0'
p673
aS'http://www.opengis.net/def/crs/EPSG/0/4326'
p674
assS'NL.RIVM.AQ/SPO_F-NL00014_00008_100_100'
p675
(dp676
g36
(lp677
sg38
(lp678
S'4.866208 52.359714037022016 2.0'
p679
aS'http://www.opengis.net/def/crs/EPSG/0/4326'
p680
assS'NL.RIVM.AQ/SPO_F-NL00538_00009_101_102'
p681
(dp682
g36
(lp683
sg38
(lp684
S'5.050509 52.803657036553524 -4.0'
p685
aS'http://www.opengis.net/def/crs/EPSG/0/4326'
p686
assS'NL.RIVM.AQ/SPO_F-NL00444_00008_100_101'
p687
(dp688
g36
(lp689
S'NL.RIVM.AQ/STA-NL00444/8'
p690
asg38
(lp691
S'4.510817 52.2965560370868 4.0'
p692
aS'http://www.opengis.net/def/crs/EPSG/0/4326'
p693
assS'NL.RIVM.AQ/SPO_F-NL00633_00020_102_102'
p694
(dp695
g36
(lp696
sg38
(lp697
S'4.83819 52.13795003724734 -2.0'
p698
aS'http://www.opengis.net/def/crs/EPSG/0/4326'
p699
assS'NL.RIVM.AQ/SPO_F-NL00241_00008_100_101'
p700
(dp701
g36
(lp702
S'NL.RIVM.AQ/STA-NL00241/8'
p703
asg38
(lp704
S'4.781016000000001 51.60308003776617 1.0'
p705
aS'http://www.opengis.net/def/crs/EPSG/0/4326'
p706
assS'NL.RIVM.AQ/SPO_F-NL00938_06001_100_101'
p707
(dp708
g36
(lp709
S'NL.RIVM.AQ/STA-NL00938/6001'
p710
asg38
(lp711
S'6.608937 53.2465350360636 -1.0'
p712
aS'http://www.opengis.net/def/crs/EPSG/0/4326'
p713
assS'NL.RIVM.AQ/SPO_F-NL00003_00008_101_101'
p714
(dp715
g36
(lp716
sg38
(lp717
S'4.943822 52.38931403699149 1.0'
p718
aS'http://www.opengis.net/def/crs/EPSG/0/4326'
p719
assS'NL.RIVM.AQ/SPO_F-NL00247_00008_100_100'
p720
(dp721
g36
(lp722
S'NL.RIVM.AQ/STA-NL00247/8'
p723
asg38
(lp724
S'5.3933279999999995 51.40736503794714 22.0'
p725
aS'http://www.opengis.net/def/crs/EPSG/0/4326'
p726
assS'NL.RIVM.AQ/SPO_F-NL00017_00009_101_101'
p727
(dp728
g36
(lp729
sg38
(lp730
S'4.8997 52.358039037023744 4.0'
p731
aS'http://www.opengis.net/def/crs/EPSG/0/4326'
p732
assS'NL.RIVM.AQ/SPO_F-NL00704_00001_100_100'
p733
(dp734
g36
(lp735
sg38
(lp736
S'4.773478 52.428017036951445 4.0'
p737
aS'http://www.opengis.net/def/crs/EPSG/0/4326'
p738
assS'NL.RIVM.AQ/SPO_F-NL00131_00035_100_100'
p739
(dp740
g36
(lp741
S'NL.RIVM.AQ/STA-NL00131/35'
p742
asg38
(lp743
S'5.853069999999999 51.540520037824535 28.0'
p744
aS'http://www.opengis.net/def/crs/EPSG/0/4326'
p745
assS'NL.RIVM.AQ/SPO_F-NL00741_00010_100_100'
p746
(dp747
g36
(lp748
S'NL.RIVM.AQ/STA-NL00741/10'
p749
asg38
(lp750
S'5.857777 51.841372037539365 30.0'
p751
aS'http://www.opengis.net/def/crs/EPSG/0/4326'
p752
assS'NL.RIVM.AQ/SPO_F-NL00633_00007_111_112'
p753
(dp754
g36
(lp755
S'NL.RIVM.AQ/STA-NL00633/7'
p756
asg38
(lp757
S'4.83819 52.13795003724734 -2.0'
p758
aS'http://www.opengis.net/def/crs/EPSG/0/4326'
p759
assS'NL.RIVM.AQ/SPO_F-NL00934_00629_101_101'
p760
(dp761
g36
(lp762
sg38
(lp763
S'6.276815 53.330425035968325 1.0'
p764
aS'http://www.opengis.net/def/crs/EPSG/0/4326'
p765
assS'NL.RIVM.AQ/SPO_F-NL00495_06001_100_100'
p766
(dp767
g36
(lp768
sg38
(lp769
S'4.228024999999998 51.932039037451226 0.0'
p770
aS'http://www.opengis.net/def/crs/EPSG/0/4326'
p771
assS'NL.RIVM.AQ/SPO_F-NL00131_00631_101_101'
p772
(dp773
g36
(lp774
sg38
(lp775
S'5.853069999999999 51.540520037824535 28.0'
p776
aS'http://www.opengis.net/def/crs/EPSG/0/4326'
p777
assS'NL.RIVM.AQ/SPO_F-NL00003_00007_100_100'
p778
(dp779
g36
(lp780
sg38
(lp781
S'4.943822 52.38931403699149 1.0'
p782
aS'http://www.opengis.net/def/crs/EPSG/0/4326'
p783
assS'NL.RIVM.AQ/SPO_F-NL00484_00001_100_100'
p784
(dp785
g36
(lp786
sg38
(lp787
S'4.312500000000001 51.88888903749329 0.0'
p788
aS'http://www.opengis.net/def/crs/EPSG/0/4326'
p789
assS'NL.RIVM.AQ/SPO_F-NL00241_00007_100_101'
p790
(dp791
g36
(lp792
S'NL.RIVM.AQ/STA-NL00241/7'
p793
asg38
(lp794
S'4.781016000000001 51.60308003776617 1.0'
p795
aS'http://www.opengis.net/def/crs/EPSG/0/4326'
p796
assS'NL.RIVM.AQ/SPO_F-NL00545_00005_100_100'
p797
(dp798
g36
(lp799
S'NL.RIVM.AQ/STA-NL00545/5'
p800
asg38
(lp801
S'4.84102249 52.339496647042814 1.0'
p802
aS'http://www.opengis.net/def/crs/EPSG/0/4326'
p803
assS'NL.RIVM.AQ/SPO_F-NL00741_00005_100_101'
p804
(dp805
g36
(lp806
S'NL.RIVM.AQ/STA-NL00741/5'
p807
asg38
(lp808
S'5.857777 51.841372037539365 30.0'
p809
aS'http://www.opengis.net/def/crs/EPSG/0/4326'
p810
assS'NL.RIVM.AQ/SPO_F-NL00486_00001_100_100'
p811
(dp812
g36
(lp813
sg38
(lp814
S'4.388808000000001 51.8878690374943 0.0'
p815
aS'http://www.opengis.net/def/crs/EPSG/0/4326'
p816
assS'NL.RIVM.AQ/SPO_F-NL00491_06001_100_100'
p817
(dp818
g36
(lp819
sg38
(lp820
S'4.430692 51.93847203744493 0.0'
p821
aS'http://www.opengis.net/def/crs/EPSG/0/4326'
p822
assS'NL.RIVM.AQ/SPO_F-NL00538_00005_100_101'
p823
(dp824
g36
(lp825
S'NL.RIVM.AQ/STA-NL00538/5'
p826
asg38
(lp827
S'5.050509 52.803657036553524 -4.0'
p828
aS'http://www.opengis.net/def/crs/EPSG/0/4326'
p829
assS'NL.RIVM.AQ/SPO_F-NL00938_00008_100_101'
p830
(dp831
g36
(lp832
S'NL.RIVM.AQ/STA-NL00938/8'
p833
asg38
(lp834
S'6.608937 53.2465350360636 -1.0'
p835
aS'http://www.opengis.net/def/crs/EPSG/0/4326'
p836
assS'NL.RIVM.AQ/SPO_F-NL00489_00038_100_100'
p837
(dp838
g36
(lp839
sg38
(lp840
S'4.580058 51.869431037512186 0.0'
p841
aS'http://www.opengis.net/def/crs/EPSG/0/4326'
p842
assS'NL.RIVM.AQ/SPO_F-NL00448_06001_100_101'
p843
(dp844
g36
(lp845
S'NL.RIVM.AQ/STA-NL00448/6001'
p846
asg38
(lp847
S'4.461340000000001 51.927110037456046 2.0'
p848
aS'http://www.opengis.net/def/crs/EPSG/0/4326'
p849
assS'NL.RIVM.AQ/SPO_F-NL00003_00009_101_101'
p850
(dp851
g36
(lp852
sg38
(lp853
S'4.943822 52.38931403699149 1.0'
p854
aS'http://www.opengis.net/def/crs/EPSG/0/4326'
p855
assS'NL.RIVM.AQ/SPO_F-NL00633_00021_101_101'
p856
(dp857
g36
(lp858
sg38
(lp859
S'4.83819 52.13795003724734 -2.0'
p860
aS'http://www.opengis.net/def/crs/EPSG/0/4326'
p861
assS'NL.RIVM.AQ/SPO_F-NL00639_00021_100_101'
p862
(dp863
g36
(lp864
sg38
(lp865
S'5.120507000000001 52.06774803731743 1.0'
p866
aS'http://www.opengis.net/def/crs/EPSG/0/4326'
p867
assS'NL.RIVM.AQ/SPO_F-NL00137_00009_100_101'
p868
(dp869
g36
(lp870
sg38
(lp871
S'5.977283 50.88487003840636 115.0'
p872
aS'http://www.opengis.net/def/crs/EPSG/0/4326'
p873
assS'NL.RIVM.AQ/SPO_F-NL00012_00008_101_101'
p874
(dp875
g36
(lp876
sg38
(lp877
S'4.887811 52.38998303699083 4.0'
p878
aS'http://www.opengis.net/def/crs/EPSG/0/4326'
p879
assS'NL.RIVM.AQ/SPO_F-NL00301_00038_101_102'
p880
(dp881
g36
(lp882
S'NL.RIVM.AQ/STA-NL00301/38'
p883
asg38
(lp884
S'3.9166229999999995 51.634706037736464 -1.0'
p885
aS'http://www.opengis.net/def/crs/EPSG/0/4326'
p886
assS'NL.RIVM.AQ/SPO_F-NL00433_00629_101_101'
p887
(dp888
g36
(lp889
sg38
(lp890
S'4.326303 51.910474037472305 -1.0'
p891
aS'http://www.opengis.net/def/crs/EPSG/0/4326'
p892
assS'NL.RIVM.AQ/SPO_F-NL00564_00007_100_100'
p893
(dp894
g36
(lp895
sg38
(lp896
S'4.766614000000001 52.28745003709609 1.0'
p897
aS'http://www.opengis.net/def/crs/EPSG/0/4326'
p898
assS'NL.RIVM.AQ/SPO_F-NL00547_00009_100_100'
p899
(dp900
g36
(lp901
sg38
(lp902
S'5.181552 52.23508303714937 1.0'
p903
aS'http://www.opengis.net/def/crs/EPSG/0/4326'
p904
assS'NL.RIVM.AQ/SPO_F-NL00131_00018_101_101'
p905
(dp906
g36
(lp907
sg38
(lp908
S'5.853069999999999 51.540520037824535 28.0'
p909
aS'http://www.opengis.net/def/crs/EPSG/0/4326'
p910
assS'NL.RIVM.AQ/SPO_F-NL00442_00005_100_100'
p911
(dp912
g36
(lp913
S'NL.RIVM.AQ/STA-NL00442/5'
p914
asg38
(lp915
S'4.708238999999999 51.80065803757861 1.0'
p916
aS'http://www.opengis.net/def/crs/EPSG/0/4326'
p917
assS'NL.RIVM.AQ/SPO_F-NL00741_00038_100_101'
p918
(dp919
g36
(lp920
S'NL.RIVM.AQ/STA-NL00741/38'
p921
asg38
(lp922
S'5.857777 51.841372037539365 30.0'
p923
aS'http://www.opengis.net/def/crs/EPSG/0/4326'
p924
assS'NL.RIVM.AQ/SPO_F-NL00002_00038_101_101'
p925
(dp926
g36
(lp927
sg38
(lp928
S'4.87575 52.385422036995514 4.0'
p929
aS'http://www.opengis.net/def/crs/EPSG/0/4326'
p930
assS'NL.RIVM.AQ/SPO_F-NL00494_00005_100_100'
p931
(dp932
g36
(lp933
sg38
(lp934
S'4.401388999999999 51.92138903746164 3.0'
p935
aS'http://www.opengis.net/def/crs/EPSG/0/4326'
p936
assS'NL.RIVM.AQ/SPO_F-NL00633_00431_102_102'
p937
(dp938
g36
(lp939
sg38
(lp940
S'4.83819 52.13795003724734 -2.0'
p941
aS'http://www.opengis.net/def/crs/EPSG/0/4326'
p942
assS'NL.RIVM.AQ/SPO_F-NL00131_06001_100_101'
p943
(dp944
g36
(lp945
S'NL.RIVM.AQ/STA-NL00131/6001'
p946
asg38
(lp947
S'5.853069999999999 51.540520037824535 28.0'
p948
aS'http://www.opengis.net/def/crs/EPSG/0/4326'
p949
assS'NL.RIVM.AQ/SPO_F-NL00538_00007_111_112'
p950
(dp951
g36
(lp952
S'NL.RIVM.AQ/STA-NL00538/7'
p953
asg38
(lp954
S'5.050509 52.803657036553524 -4.0'
p955
aS'http://www.opengis.net/def/crs/EPSG/0/4326'
p956
assS'NL.RIVM.AQ/SPO_F-NL00918_00009_101_102'
p957
(dp958
g36
(lp959
sg38
(lp960
S'5.573491569999999 52.91691592643034 1.0'
p961
aS'http://www.opengis.net/def/crs/EPSG/0/4326'
p962
assS'NL.RIVM.AQ/SPO_F-NL00002_00009_101_101'
p963
(dp964
g36
(lp965
sg38
(lp966
S'4.87575 52.385422036995514 4.0'
p967
aS'http://www.opengis.net/def/crs/EPSG/0/4326'
p968
assS'NL.RIVM.AQ/SPO_F-NL00433_00015_101_101'
p969
(dp970
g36
(lp971
sg38
(lp972
S'4.326303 51.910474037472305 -1.0'
p973
aS'http://www.opengis.net/def/crs/EPSG/0/4326'
p974
assS'NL.RIVM.AQ/SPO_F-NL00236_00005_100_101'
p975
(dp976
g36
(lp977
S'NL.RIVM.AQ/STA-NL00236/5'
p978
asg38
(lp979
S'5.47235 51.46866203789098 17.0'
p980
aS'http://www.opengis.net/def/crs/EPSG/0/4326'
p981
assS'NL.RIVM.AQ/SPO_F-NL00240_00005_100_101'
p982
(dp983
g36
(lp984
S'NL.RIVM.AQ/STA-NL00240/5'
p985
asg38
(lp986
S'4.824944 51.5935330377751 4.0'
p987
aS'http://www.opengis.net/def/crs/EPSG/0/4326'
p988
assS'NL.RIVM.AQ/SPO_F-NL00014_00009_100_100'
p989
(dp990
g36
(lp991
sg38
(lp992
S'4.866208 52.359714037022016 2.0'
p993
aS'http://www.opengis.net/def/crs/EPSG/0/4326'
p994
assS'NL.RIVM.AQ/SPO_F-NL00442_00007_100_100'
p995
(dp996
g36
(lp997
S'NL.RIVM.AQ/STA-NL00442/7'
p998
asg38
(lp999
S'4.708238999999999 51.80065803757861 1.0'
p1000
aS'http://www.opengis.net/def/crs/EPSG/0/4326'
p1001
assS'NL.RIVM.AQ/SPO_F-NL00240_00006_100_100'
p1002
(dp1003
g36
(lp1004
sg38
(lp1005
S'4.824944 51.5935330377751 4.0'
p1006
aS'http://www.opengis.net/def/crs/EPSG/0/4326'
p1007
assS'NL.RIVM.AQ/SPO_F-NL00627_00668_100_100'
p1008
(dp1009
g36
(lp1010
sg38
(lp1011
S'5.195567 52.12083303726448 3.0'
p1012
aS'http://www.opengis.net/def/crs/EPSG/0/4326'
p1013
assS'NL.RIVM.AQ/SPO_F-NL00496_06001_100_100'
p1014
(dp1015
g36
(lp1016
sg38
(lp1017
S'4.121944000000001 51.97780303740636 0.0'
p1018
aS'http://www.opengis.net/def/crs/EPSG/0/4326'
p1019
assS'NL.RIVM.AQ/SPO_F-NL00444_00007_100_101'
p1020
(dp1021
g36
(lp1022
S'NL.RIVM.AQ/STA-NL00444/7'
p1023
asg38
(lp1024
S'4.510817 52.2965560370868 4.0'
p1025
aS'http://www.opengis.net/def/crs/EPSG/0/4326'
p1026
assS'NL.RIVM.AQ/SPO_F-NL00639_00431_100_101'
p1027
(dp1028
g36
(lp1029
sg38
(lp1030
S'5.120507000000001 52.06774803731743 1.0'
p1031
aS'http://www.opengis.net/def/crs/EPSG/0/4326'
p1032
assS'NL.RIVM.AQ/SPO_F-NL00738_06001_100_100'
p1033
(dp1034
g36
(lp1035
S'NL.RIVM.AQ/STA-NL00738/6001'
p1036
asg38
(lp1037
S'5.708418999999999 52.111621037273686 18.0'
p1038
aS'http://www.opengis.net/def/crs/EPSG/0/4326'
p1039
assS'NL.RIVM.AQ/SPO_F-NL00312_00005_100_100'
p1040
(dp1041
g36
(lp1042
sg38
(lp1043
S'3.9153460000000004 51.28452803805824 1.0'
p1044
aS'http://www.opengis.net/def/crs/EPSG/0/4326'
p1045
assS'NL.RIVM.AQ/SPO_F-NL00136_00038_100_101'
p1046
(dp1047
g36
(lp1048
S'NL.RIVM.AQ/STA-NL00136/38'
p1049
asg38
(lp1050
S'5.970496 50.88795903840375 100.0'
p1051
aS'http://www.opengis.net/def/crs/EPSG/0/4326'
p1052
assS'NL.RIVM.AQ/SPO_F-NL00538_00047_101_101'
p1053
(dp1054
g36
(lp1055
sg38
(lp1056
S'5.050509 52.803657036553524 -4.0'
p1057
aS'http://www.opengis.net/def/crs/EPSG/0/4326'
p1058
assS'NL.RIVM.AQ/SPO_F-NL00818_00007_100_101'
p1059
(dp1060
g36
(lp1061
S'NL.RIVM.AQ/STA-NL00818/7'
p1062
asg38
(lp1063
S'6.017571 52.65414403671388 1.0'
p1064
aS'http://www.opengis.net/def/crs/EPSG/0/4326'
p1065
assS'NL.RIVM.AQ/SPO_F-NL00404_00007_111_112'
p1066
(dp1067
g36
(lp1068
S'NL.RIVM.AQ/STA-NL00404/7'
p1069
asg38
(lp1070
S'4.289185000000001 52.07714803730809 2.0'
p1071
aS'http://www.opengis.net/def/crs/EPSG/0/4326'
p1072
assS'NL.RIVM.AQ/SPO_F-NL00722_00001_111_111'
p1073
(dp1074
g36
(lp1075
S'NL.RIVM.AQ/STA-NL00722/1'
p1076
asg38
(lp1077
S'6.605367 52.09180103729347 19.0'
p1078
aS'http://www.opengis.net/def/crs/EPSG/0/4326'
p1079
assS'NL.RIVM.AQ/SPO_F-NL00022_00038_101_101'
p1080
(dp1081
g36
(lp1082
sg38
(lp1083
S'4.793344000000001 52.36681103701471 -1.0'
p1084
aS'http://www.opengis.net/def/crs/EPSG/0/4326'
p1085
assS'NL.RIVM.AQ/SPO_F-NL00016_00005_100_100'
p1086
(dp1087
g36
(lp1088
sg38
(lp1089
S'4.870157000000001 52.39397203698668 3.0'
p1090
aS'http://www.opengis.net/def/crs/EPSG/0/4326'
p1091
assS'NL.RIVM.AQ/SPO_F-NL00564_00009_100_100'
p1092
(dp1093
g36
(lp1094
sg38
(lp1095
S'4.766614000000001 52.28745003709609 1.0'
p1096
aS'http://www.opengis.net/def/crs/EPSG/0/4326'
p1097
assS'NL.RIVM.AQ/SPO_F-NL00556_00005_100_100'
p1098
(dp1099
g36
(lp1100
sg38
(lp1101
S'4.8617 52.56359003680973 1.0'
p1102
aS'http://www.opengis.net/def/crs/EPSG/0/4326'
p1103
assS'NL.RIVM.AQ/SPO_F-NL00742_06001_100_100'
p1104
(dp1105
g36
(lp1106
S'NL.RIVM.AQ/STA-NL00742/6001'
p1107
asg38
(lp1108
S'5.856938 51.83822103754241 30.0'
p1109
aS'http://www.opengis.net/def/crs/EPSG/0/4326'
p1110
assS'NL.RIVM.AQ/SPO_F-NL00821_06001_100_100'
p1111
(dp1112
g36
(lp1113
S'NL.RIVM.AQ/STA-NL00821/6001'
p1114
asg38
(lp1115
S'6.919493999999999 52.23450403714996 38.0'
p1116
aS'http://www.opengis.net/def/crs/EPSG/0/4326'
p1117
assS'NL.RIVM.AQ/SPO_F-NL00722_00005_100_101'
p1118
(dp1119
g36
(lp1120
S'NL.RIVM.AQ/STA-NL00722/5'
p1121
asg38
(lp1122
S'6.605367 52.09180103729347 19.0'
p1123
aS'http://www.opengis.net/def/crs/EPSG/0/4326'
p1124
assS'NL.RIVM.AQ/SPO_F-NL00551_00005_100_100'
p1125
(dp1126
g36
(lp1127
sg38
(lp1128
S'4.6018419999999995 52.46303903691505 1.0'
p1129
aS'http://www.opengis.net/def/crs/EPSG/0/4326'
p1130
assS'NL.RIVM.AQ/SPO_F-NL00446_00009_100_100'
p1131
(dp1132
g36
(lp1133
sg38
(lp1134
S'4.359376000000001 52.03902303734593 -2.0'
p1135
aS'http://www.opengis.net/def/crs/EPSG/0/4326'
p1136
assS'NL.RIVM.AQ/SPO_F-NL00319_00005_100_100'
p1137
(dp1138
g36
(lp1139
sg38
(lp1140
S'3.744999 51.46445703789485 1.0'
p1141
aS'http://www.opengis.net/def/crs/EPSG/0/4326'
p1142
assS'NL.RIVM.AQ/SPO_F-NL00246_00005_100_100'
p1143
(dp1144
g36
(lp1145
S'NL.RIVM.AQ/STA-NL00246/5'
p1146
asg38
(lp1147
S'4.515271 51.65372903771855 1.0'
p1148
aS'http://www.opengis.net/def/crs/EPSG/0/4326'
p1149
assS'NL.RIVM.AQ/SPO_F-NL00485_00021_100_100'
p1150
(dp1151
g36
(lp1152
sg38
(lp1153
S'4.355241999999999 51.867411037514145 1.0'
p1154
aS'http://www.opengis.net/def/crs/EPSG/0/4326'
p1155
assS'NL.RIVM.AQ/SPO_F-NL00418_00005_100_101'
p1156
(dp1157
g36
(lp1158
S'NL.RIVM.AQ/STA-NL00418/5'
p1159
asg38
(lp1160
S'4.479923 51.914233037468634 3.0'
p1161
aS'http://www.opengis.net/def/crs/EPSG/0/4326'
p1162
assS'NL.RIVM.AQ/SPO_F-NL00014_06001_101_101'
p1163
(dp1164
g36
(lp1165
sg38
(lp1166
S'4.866208 52.359714037022016 2.0'
p1167
aS'http://www.opengis.net/def/crs/EPSG/0/4326'
p1168
assS'NL.RIVM.AQ/SPO_F-NL00019_00038_101_101'
p1169
(dp1170
g36
(lp1171
sg38
(lp1172
S'4.9044 52.372056037009315 2.0'
p1173
aS'http://www.opengis.net/def/crs/EPSG/0/4326'
p1174
assS'NL.RIVM.AQ/SPO_F-NL00488_00038_100_100'
p1175
(dp1176
g36
(lp1177
sg38
(lp1178
S'4.487528 51.893617037488696 0.0'
p1179
aS'http://www.opengis.net/def/crs/EPSG/0/4326'
p1180
assS'NL.RIVM.AQ/SPO_F-NL00487_00008_100_100'
p1181
(dp1182
g36
(lp1183
sg38
(lp1184
S'4.480690000000001 51.89114703749109 0.0'
p1185
aS'http://www.opengis.net/def/crs/EPSG/0/4326'
p1186
assS'NL.RIVM.AQ/SPO_F-NL00561_00005_100_100'
p1187
(dp1188
g36
(lp1189
sg38
(lp1190
S'4.774006 52.33400303704845 1.0'
p1191
aS'http://www.opengis.net/def/crs/EPSG/0/4326'
p1192
assS'NL.RIVM.AQ/SPO_F-NL00627_00012_102_102'
p1193
(dp1194
g36
(lp1195
sg38
(lp1196
S'5.195567 52.12083303726448 3.0'
p1197
aS'http://www.opengis.net/def/crs/EPSG/0/4326'
p1198
assS'NL.RIVM.AQ/SPO_F-NL00704_00038_100_100'
p1199
(dp1200
g36
(lp1201
sg38
(lp1202
S'4.773478 52.428017036951445 4.0'
p1203
aS'http://www.opengis.net/def/crs/EPSG/0/4326'
p1204
assS'NL.RIVM.AQ/SPO_F-NL00633_00009_101_102'
p1205
(dp1206
g36
(lp1207
sg38
(lp1208
S'4.83819 52.13795003724734 -2.0'
p1209
aS'http://www.opengis.net/def/crs/EPSG/0/4326'
p1210
assS'NL.RIVM.AQ/SPO_F-NL00404_06001_100_101'
p1211
(dp1212
g36
(lp1213
S'NL.RIVM.AQ/STA-NL00404/6001'
p1214
asg38
(lp1215
S'4.289185000000001 52.07714803730809 2.0'
p1216
aS'http://www.opengis.net/def/crs/EPSG/0/4326'
p1217
assS'NL.RIVM.AQ/SPO_F-NL00136_06001_100_100'
p1218
(dp1219
g36
(lp1220
S'NL.RIVM.AQ/STA-NL00136/6001'
p1221
asg38
(lp1222
S'5.970496 50.88795903840375 100.0'
p1223
aS'http://www.opengis.net/def/crs/EPSG/0/4326'
p1224
assS'NL.RIVM.AQ/SPO_F-NL00553_00010_100_100'
p1225
(dp1226
g36
(lp1227
sg38
(lp1228
S'4.601986000000001 52.49399203688275 7.0'
p1229
aS'http://www.opengis.net/def/crs/EPSG/0/4326'
p1230
assS'NL.RIVM.AQ/SPO_F-NL00235_00038_101_102'
p1231
(dp1232
g36
(lp1233
S'NL.RIVM.AQ/STA-NL00235/38'
p1234
asg38
(lp1235
S'4.359835 51.43444303792239 18.0'
p1236
aS'http://www.opengis.net/def/crs/EPSG/0/4326'
p1237
assS'NL.RIVM.AQ/SPO_F-NL00742_00038_100_101'
p1238
(dp1239
g36
(lp1240
S'NL.RIVM.AQ/STA-NL00742/38'
p1241
asg38
(lp1242
S'5.856938 51.83822103754241 30.0'
p1243
aS'http://www.opengis.net/def/crs/EPSG/0/4326'
p1244
assS'NL.RIVM.AQ/SPO_F-NL00482_00005_100_100'
p1245
(dp1246
g36
(lp1247
sg38
(lp1248
S'4.091394000000001 51.95941703742444 0.0'
p1249
aS'http://www.opengis.net/def/crs/EPSG/0/4326'
p1250
assS'NL.RIVM.AQ/SPO_F-NL00807_00009_101_102'
p1251
(dp1252
g36
(lp1253
sg38
(lp1254
S'6.402933000000001 52.388272036992596 7.0'
p1255
aS'http://www.opengis.net/def/crs/EPSG/0/4326'
p1256
assS'NL.RIVM.AQ/SPO_F-NL00489_06001_100_100'
p1257
(dp1258
g36
(lp1259
sg38
(lp1260
S'4.580058 51.869431037512186 0.0'
p1261
aS'http://www.opengis.net/def/crs/EPSG/0/4326'
p1262
assS'NL.RIVM.AQ/SPO_F-NL00643_00007_100_100'
p1263
(dp1264
g36
(lp1265
S'NL.RIVM.AQ/STA-NL00643/7'
p1266
asg38
(lp1267
S'5.128183 52.101308037284014 2.0'
p1268
aS'http://www.opengis.net/def/crs/EPSG/0/4326'
p1269
assS'NL.RIVM.AQ/SPO_F-NL00017_00005_100_100'
p1270
(dp1271
g36
(lp1272
sg38
(lp1273
S'4.8997 52.358039037023744 4.0'
p1274
aS'http://www.opengis.net/def/crs/EPSG/0/4326'
p1275
assS'NL.RIVM.AQ/SPO_F-NL00495_00001_100_100'
p1276
(dp1277
g36
(lp1278
sg38
(lp1279
S'4.228024999999998 51.932039037451226 0.0'
p1280
aS'http://www.opengis.net/def/crs/EPSG/0/4326'
p1281
assS'NL.RIVM.AQ/SPO_F-NL00551_00009_100_100'
p1282
(dp1283
g36
(lp1284
sg38
(lp1285
S'4.6018419999999995 52.46303903691505 1.0'
p1286
aS'http://www.opengis.net/def/crs/EPSG/0/4326'
p1287
assS'NL.RIVM.AQ/SPO_F-NL00495_00021_100_100'
p1288
(dp1289
g36
(lp1290
sg38
(lp1291
S'4.228024999999998 51.932039037451226 0.0'
p1292
aS'http://www.opengis.net/def/crs/EPSG/0/4326'
p1293
assS'NL.RIVM.AQ/SPO_F-NL00722_00009_101_102'
p1294
(dp1295
g36
(lp1296
sg38
(lp1297
S'6.605367 52.09180103729347 19.0'
p1298
aS'http://www.opengis.net/def/crs/EPSG/0/4326'
p1299
assS'NL.RIVM.AQ/SPO_F-NL00553_00009_100_100'
p1300
(dp1301
g36
(lp1302
sg38
(lp1303
S'4.601986000000001 52.49399203688275 7.0'
p1304
aS'http://www.opengis.net/def/crs/EPSG/0/4326'
p1305
assS'NL.RIVM.AQ/SPO_F-NL00627_00063_101_101'
p1306
(dp1307
g36
(lp1308
sg38
(lp1309
S'5.195567 52.12083303726448 3.0'
p1310
aS'http://www.opengis.net/def/crs/EPSG/0/4326'
p1311
assS'NL.RIVM.AQ/SPO_F-NL00703_00038_100_100'
p1312
(dp1313
g36
(lp1314
sg38
(lp1315
S'4.728581 52.39843703698208 1.0'
p1316
aS'http://www.opengis.net/def/crs/EPSG/0/4326'
p1317
assS'NL.RIVM.AQ/SPO_F-NL00247_00007_100_100'
p1318
(dp1319
g36
(lp1320
S'NL.RIVM.AQ/STA-NL00247/7'
p1321
asg38
(lp1322
S'5.3933279999999995 51.40736503794714 22.0'
p1323
aS'http://www.opengis.net/def/crs/EPSG/0/4326'
p1324
assS'NL.RIVM.AQ/SPO_F-NL00703_06001_100_100'
p1325
(dp1326
g36
(lp1327
sg38
(lp1328
S'4.728581 52.39843703698208 1.0'
p1329
aS'http://www.opengis.net/def/crs/EPSG/0/4326'
p1330
assS'NL.RIVM.AQ/SPO_F-NL00444_00045_101_101'
p1331
(dp1332
g36
(lp1333
sg38
(lp1334
S'4.510817 52.2965560370868 4.0'
p1335
aS'http://www.opengis.net/def/crs/EPSG/0/4326'
p1336
assS'NL.RIVM.AQ/SPO_F-NL00437_00008_101_102'
p1337
(dp1338
g36
(lp1339
S'NL.RIVM.AQ/STA-NL00437/8'
p1340
asg38
(lp1341
S'4.450529000000001 51.78657903759214 -1.0'
p1342
aS'http://www.opengis.net/def/crs/EPSG/0/4326'
p1343
assS'NL.RIVM.AQ/SPO_F-NL00444_00009_100_101'
p1344
(dp1345
g36
(lp1346
sg38
(lp1347
S'4.510817 52.2965560370868 4.0'
p1348
aS'http://www.opengis.net/def/crs/EPSG/0/4326'
p1349
assS'NL.RIVM.AQ/SPO_F-NL00538_00631_101_101'
p1350
(dp1351
g36
(lp1352
sg38
(lp1353
S'5.050509 52.803657036553524 -4.0'
p1354
aS'http://www.opengis.net/def/crs/EPSG/0/4326'
p1355
assS'NL.RIVM.AQ/SPO_F-NL00496_00009_100_100'
p1356
(dp1357
g36
(lp1358
sg38
(lp1359
S'4.121944000000001 51.97780303740636 0.0'
p1360
aS'http://www.opengis.net/def/crs/EPSG/0/4326'
p1361
assS'NL.RIVM.AQ/SPO_F-NL00929_00047_101_101'
p1362
(dp1363
g36
(lp1364
sg38
(lp1365
S'6.932432000000001 52.87572503647533 10.0'
p1366
aS'http://www.opengis.net/def/crs/EPSG/0/4326'
p1367
assS'NL.RIVM.AQ/SPO_F-NL00017_00008_101_101'
p1368
(dp1369
g36
(lp1370
sg38
(lp1371
S'4.8997 52.358039037023744 4.0'
p1372
aS'http://www.opengis.net/def/crs/EPSG/0/4326'
p1373
assS'NL.RIVM.AQ/SPO_F-NL00641_00038_100_101'
p1374
(dp1375
g36
(lp1376
S'NL.RIVM.AQ/STA-NL00641/38'
p1377
asg38
(lp1378
S'4.987444000000001 52.20153003718333 -1.0'
p1379
aS'http://www.opengis.net/def/crs/EPSG/0/4326'
p1380
assS'NL.RIVM.AQ/SPO_F-NL00240_00009_100_100'
p1381
(dp1382
g36
(lp1383
sg38
(lp1384
S'4.824944 51.5935330377751 4.0'
p1385
aS'http://www.opengis.net/def/crs/EPSG/0/4326'
p1386
assS'NL.RIVM.AQ/SPO_F-NL00235_00005_100_100'
p1387
(dp1388
g36
(lp1389
S'NL.RIVM.AQ/STA-NL00235/5'
p1390
asg38
(lp1391
S'4.359835 51.43444303792239 18.0'
p1392
aS'http://www.opengis.net/def/crs/EPSG/0/4326'
p1393
assS'NL.RIVM.AQ/SPO_F-NL00489_00005_100_100'
p1394
(dp1395
g36
(lp1396
sg38
(lp1397
S'4.580058 51.869431037512186 0.0'
p1398
aS'http://www.opengis.net/def/crs/EPSG/0/4326'
p1399
assS'NL.RIVM.AQ/SPO_F-NL00131_00038_111_112'
p1400
(dp1401
g36
(lp1402
S'NL.RIVM.AQ/STA-NL00131/38'
p1403
asg38
(lp1404
S'5.853069999999999 51.540520037824535 28.0'
p1405
aS'http://www.opengis.net/def/crs/EPSG/0/4326'
p1406
assS'NL.RIVM.AQ/SPO_F-NL00934_00038_111_112'
p1407
(dp1408
g36
(lp1409
S'NL.RIVM.AQ/STA-NL00934/38'
p1410
asg38
(lp1411
S'6.276815 53.330425035968325 1.0'
p1412
aS'http://www.opengis.net/def/crs/EPSG/0/4326'
p1413
assS'NL.RIVM.AQ/SPO_F-NL00496_00008_100_100'
p1414
(dp1415
g36
(lp1416
sg38
(lp1417
S'4.121944000000001 51.97780303740636 0.0'
p1418
aS'http://www.opengis.net/def/crs/EPSG/0/4326'
p1419
assS'NL.RIVM.AQ/SPO_F-NL00639_00020_100_101'
p1420
(dp1421
g36
(lp1422
sg38
(lp1423
S'5.120507000000001 52.06774803731743 1.0'
p1424
aS'http://www.opengis.net/def/crs/EPSG/0/4326'
p1425
assS'NL.RIVM.AQ/SPO_F-NL00444_06001_100_101'
p1426
(dp1427
g36
(lp1428
S'NL.RIVM.AQ/STA-NL00444/6001'
p1429
asg38
(lp1430
S'4.510817 52.2965560370868 4.0'
p1431
aS'http://www.opengis.net/def/crs/EPSG/0/4326'
p1432
assS'NL.RIVM.AQ/SPO_F-NL00131_00014_101_101'
p1433
(dp1434
g36
(lp1435
sg38
(lp1436
S'5.853069999999999 51.540520037824535 28.0'
p1437
aS'http://www.opengis.net/def/crs/EPSG/0/4326'
p1438
assS'NL.RIVM.AQ/SPO_F-NL00493_00007_100_100'
p1439
(dp1440
g36
(lp1441
sg38
(lp1442
S'4.461344 51.92711103745604 0.0'
p1443
aS'http://www.opengis.net/def/crs/EPSG/0/4326'
p1444
assS'NL.RIVM.AQ/SPO_F-NL00934_00005_100_100'
p1445
(dp1446
g36
(lp1447
S'NL.RIVM.AQ/STA-NL00934/5'
p1448
asg38
(lp1449
S'6.276815 53.330425035968325 1.0'
p1450
aS'http://www.opengis.net/def/crs/EPSG/0/4326'
p1451
assS'NL.RIVM.AQ/SPO_F-NL00934_00009_101_102'
p1452
(dp1453
g36
(lp1454
sg38
(lp1455
S'6.276815 53.330425035968325 1.0'
p1456
aS'http://www.opengis.net/def/crs/EPSG/0/4326'
p1457
assS'NL.RIVM.AQ/SPO_F-NL00246_00008_100_100'
p1458
(dp1459
g36
(lp1460
S'NL.RIVM.AQ/STA-NL00246/8'
p1461
asg38
(lp1462
S'4.515271 51.65372903771855 1.0'
p1463
aS'http://www.opengis.net/def/crs/EPSG/0/4326'
p1464
assS'NL.RIVM.AQ/SPO_F-NL00548_00008_100_100'
p1465
(dp1466
g36
(lp1467
sg38
(lp1468
S'5.1758299999999995 52.26798003711595 1.0'
p1469
aS'http://www.opengis.net/def/crs/EPSG/0/4326'
p1470
assS'NL.RIVM.AQ/SPO_F-NL00565_00005_100_100'
p1471
(dp1472
g36
(lp1473
sg38
(lp1474
S'4.715008000000001 52.32746403705515 1.0'
p1475
aS'http://www.opengis.net/def/crs/EPSG/0/4326'
p1476
assS'NL.RIVM.AQ/SPO_F-NL00482_06001_100_100'
p1477
(dp1478
g36
(lp1479
sg38
(lp1480
S'4.091394000000001 51.95941703742444 0.0'
p1481
aS'http://www.opengis.net/def/crs/EPSG/0/4326'
p1482
assS'NL.RIVM.AQ/SPO_F-NL00230_00005_100_101'
p1483
(dp1484
g36
(lp1485
S'NL.RIVM.AQ/STA-NL00230/5'
p1486
asg38
(lp1487
S'5.1484499999999995 51.518440037845004 15.0'
p1488
aS'http://www.opengis.net/def/crs/EPSG/0/4326'
p1489
assS'NL.RIVM.AQ/SPO_F-NL00494_00009_100_100'
p1490
(dp1491
g36
(lp1492
sg38
(lp1493
S'4.401388999999999 51.92138903746164 3.0'
p1494
aS'http://www.opengis.net/def/crs/EPSG/0/4326'
p1495
assS'NL.RIVM.AQ/SPO_F-NL00644_06001_100_100'
p1496
(dp1497
g36
(lp1498
S'NL.RIVM.AQ/STA-NL00644/6001'
p1499
asg38
(lp1500
S'4.923301 51.97448903740961 1.0'
p1501
aS'http://www.opengis.net/def/crs/EPSG/0/4326'
p1502
assS'NL.RIVM.AQ/SPO_F-NL00237_00038_101_102'
p1503
(dp1504
g36
(lp1505
S'NL.RIVM.AQ/STA-NL00237/38'
p1506
asg38
(lp1507
S'5.444833000000001 51.44415703791349 18.0'
p1508
aS'http://www.opengis.net/def/crs/EPSG/0/4326'
p1509
assS'NL.RIVM.AQ/SPO_F-NL00496_00038_100_100'
p1510
(dp1511
g36
(lp1512
sg38
(lp1513
S'4.121944000000001 51.97780303740636 0.0'
p1514
aS'http://www.opengis.net/def/crs/EPSG/0/4326'
p1515
assS'NL.RIVM.AQ/SPO_F-NL00136_00008_100_101'
p1516
(dp1517
g36
(lp1518
S'NL.RIVM.AQ/STA-NL00136/8'
p1519
asg38
(lp1520
S'5.970496 50.88795903840375 100.0'
p1521
aS'http://www.opengis.net/def/crs/EPSG/0/4326'
p1522
assS'NL.RIVM.AQ/SPO_F-NL00918_00038_101_102'
p1523
(dp1524
g36
(lp1525
S'NL.RIVM.AQ/STA-NL00918/38'
p1526
asg38
(lp1527
S'5.573491569999999 52.91691592643034 1.0'
p1528
aS'http://www.opengis.net/def/crs/EPSG/0/4326'
p1529
assS'NL.RIVM.AQ/SPO_F-NL00538_00008_111_112'
p1530
(dp1531
g36
(lp1532
S'NL.RIVM.AQ/STA-NL00538/8'
p1533
asg38
(lp1534
S'5.050509 52.803657036553524 -4.0'
p1535
aS'http://www.opengis.net/def/crs/EPSG/0/4326'
p1536
assS'NL.RIVM.AQ/SPO_F-NL00495_00020_100_100'
p1537
(dp1538
g36
(lp1539
sg38
(lp1540
S'4.228024999999998 51.932039037451226 0.0'
p1541
aS'http://www.opengis.net/def/crs/EPSG/0/4326'
p1542
assS'NL.RIVM.AQ/SPO_F-NL00133_00009_101_102'
p1543
(dp1544
g36
(lp1545
sg38
(lp1546
S'5.881748000000001 50.902281038391635 96.0'
p1547
aS'http://www.opengis.net/def/crs/EPSG/0/4326'
p1548
assS'NL.RIVM.AQ/SPO_F-NL00633_00464_102_102'
p1549
(dp1550
g36
(lp1551
sg38
(lp1552
S'4.83819 52.13795003724734 -2.0'
p1553
aS'http://www.opengis.net/def/crs/EPSG/0/4326'
p1554
assS'NL.RIVM.AQ/SPO_F-NL00722_00007_111_112'
p1555
(dp1556
g36
(lp1557
S'NL.RIVM.AQ/STA-NL00722/7'
p1558
asg38
(lp1559
S'6.605367 52.09180103729347 19.0'
p1560
aS'http://www.opengis.net/def/crs/EPSG/0/4326'
p1561
assS'NL.RIVM.AQ/SPO_F-NL00641_00007_100_101'
p1562
(dp1563
g36
(lp1564
S'NL.RIVM.AQ/STA-NL00641/7'
p1565
asg38
(lp1566
S'4.987444000000001 52.20153003718333 -1.0'
p1567
aS'http://www.opengis.net/def/crs/EPSG/0/4326'
p1568
assS'NL.RIVM.AQ/SPO_F-NL00019_00009_101_101'
p1569
(dp1570
g36
(lp1571
sg38
(lp1572
S'4.9044 52.372056037009315 2.0'
p1573
aS'http://www.opengis.net/def/crs/EPSG/0/4326'
p1574
assS'NL.RIVM.AQ/SPO_F-NL00741_00008_100_101'
p1575
(dp1576
g36
(lp1577
S'NL.RIVM.AQ/STA-NL00741/8'
p1578
asg38
(lp1579
S'5.857777 51.841372037539365 30.0'
p1580
aS'http://www.opengis.net/def/crs/EPSG/0/4326'
p1581
assS'NL.RIVM.AQ/SPO_F-NL00433_00008_111_112'
p1582
(dp1583
g36
(lp1584
S'NL.RIVM.AQ/STA-NL00433/8'
p1585
asg38
(lp1586
S'4.326303 51.910474037472305 -1.0'
p1587
aS'http://www.opengis.net/def/crs/EPSG/0/4326'
p1588
assS'NL.RIVM.AQ/SPO_F-NL00937_00005_100_101'
p1589
(dp1590
g36
(lp1591
S'NL.RIVM.AQ/STA-NL00937/5'
p1592
asg38
(lp1593
S'6.578900999999999 53.217796036096054 2.0'
p1594
aS'http://www.opengis.net/def/crs/EPSG/0/4326'
p1595
assS'NL.RIVM.AQ/SPO_F-NL00934_00014_102_102'
p1596
(dp1597
g36
(lp1598
sg38
(lp1599
S'6.276815 53.330425035968325 1.0'
p1600
aS'http://www.opengis.net/def/crs/EPSG/0/4326'
p1601
assS'NL.RIVM.AQ/SPO_F-NL00237_00009_101_102'
p1602
(dp1603
g36
(lp1604
sg38
(lp1605
S'5.444833000000001 51.44415703791349 18.0'
p1606
aS'http://www.opengis.net/def/crs/EPSG/0/4326'
p1607
assS'NL.RIVM.AQ/SPO_F-NL00236_00038_101_102'
p1608
(dp1609
g36
(lp1610
S'NL.RIVM.AQ/STA-NL00236/38'
p1611
asg38
(lp1612
S'5.47235 51.46866203789098 17.0'
p1613
aS'http://www.opengis.net/def/crs/EPSG/0/4326'
p1614
assS'NL.RIVM.AQ/SPO_F-NL00494_00001_100_100'
p1615
(dp1616
g36
(lp1617
sg38
(lp1618
S'4.401388999999999 51.92138903746164 3.0'
p1619
aS'http://www.opengis.net/def/crs/EPSG/0/4326'
p1620
assS'NL.RIVM.AQ/SPO_F-NL00937_06001_100_100'
p1621
(dp1622
g36
(lp1623
S'NL.RIVM.AQ/STA-NL00937/6001'
p1624
asg38
(lp1625
S'6.578900999999999 53.217796036096054 2.0'
p1626
aS'http://www.opengis.net/def/crs/EPSG/0/4326'
p1627
assS'NL.RIVM.AQ/SPO_F-NL00007_00008_101_101'
p1628
(dp1629
g36
(lp1630
sg38
(lp1631
S'4.845233 52.381331036999754 2.0'
p1632
aS'http://www.opengis.net/def/crs/EPSG/0/4326'
p1633
assS'NL.RIVM.AQ/SPO_F-NL00136_00009_100_101'
p1634
(dp1635
g36
(lp1636
sg38
(lp1637
S'5.970496 50.88795903840375 100.0'
p1638
aS'http://www.opengis.net/def/crs/EPSG/0/4326'
p1639
assS'NL.RIVM.AQ/SPO_F-NL00639_00009_101_102'
p1640
(dp1641
g36
(lp1642
sg38
(lp1643
S'5.120507000000001 52.06774803731743 1.0'
p1644
aS'http://www.opengis.net/def/crs/EPSG/0/4326'
p1645
assS'NL.RIVM.AQ/SPO_F-NL00318_00001_111_111'
p1646
(dp1647
g36
(lp1648
S'NL.RIVM.AQ/STA-NL00318/1'
p1649
asg38
(lp1650
S'3.749483999999999 51.294498038049305 5.0'
p1651
aS'http://www.opengis.net/def/crs/EPSG/0/4326'
p1652
assS'NL.RIVM.AQ/SPO_F-NL00636_00008_111_112'
p1653
(dp1654
g36
(lp1655
S'NL.RIVM.AQ/STA-NL00636/8'
p1656
asg38
(lp1657
S'5.124464 52.105031037280284 1.0'
p1658
aS'http://www.opengis.net/def/crs/EPSG/0/4326'
p1659
assS'NL.RIVM.AQ/SPO_F-NL00553_00008_100_100'
p1660
(dp1661
g36
(lp1662
sg38
(lp1663
S'4.601986000000001 52.49399203688275 7.0'
p1664
aS'http://www.opengis.net/def/crs/EPSG/0/4326'
p1665
assS'NL.RIVM.AQ/SPO_F-NL00020_00008_101_101'
p1666
(dp1667
g36
(lp1668
sg38
(lp1669
S'4.860319 52.3747860370065 4.0'
p1670
aS'http://www.opengis.net/def/crs/EPSG/0/4326'
p1671
assS'NL.RIVM.AQ/SPO_F-NL00236_00009_101_102'
p1672
(dp1673
g36
(lp1674
sg38
(lp1675
S'5.47235 51.46866203789098 17.0'
p1676
aS'http://www.opengis.net/def/crs/EPSG/0/4326'
p1677
assS'NL.RIVM.AQ/SPO_F-NL00246_00009_100_100'
p1678
(dp1679
g36
(lp1680
sg38
(lp1681
S'4.515271 51.65372903771855 1.0'
p1682
aS'http://www.opengis.net/def/crs/EPSG/0/4326'
p1683
assS'NL.RIVM.AQ/SPO_F-NL00491_00005_100_100'
p1684
(dp1685
g36
(lp1686
sg38
(lp1687
S'4.430692 51.93847203744493 0.0'
p1688
aS'http://www.opengis.net/def/crs/EPSG/0/4326'
p1689
assS'NL.RIVM.AQ/SPO_F-NL00546_00008_100_100'
p1690
(dp1691
g36
(lp1692
sg38
(lp1693
S'4.83206 52.420230036959516 1.0'
p1694
aS'http://www.opengis.net/def/crs/EPSG/0/4326'
p1695
assS'NL.RIVM.AQ/SPO_F-NL00496_00007_100_100'
p1696
(dp1697
g36
(lp1698
sg38
(lp1699
S'4.121944000000001 51.97780303740636 0.0'
p1700
aS'http://www.opengis.net/def/crs/EPSG/0/4326'
p1701
assS'NL.RIVM.AQ/SPO_F-NL00486_00009_100_100'
p1702
(dp1703
g36
(lp1704
sg38
(lp1705
S'4.388808000000001 51.8878690374943 0.0'
p1706
aS'http://www.opengis.net/def/crs/EPSG/0/4326'
p1707
assS'NL.RIVM.AQ/SPO_F-NL00738_00008_100_101'
p1708
(dp1709
g36
(lp1710
S'NL.RIVM.AQ/STA-NL00738/8'
p1711
asg38
(lp1712
S'5.708418999999999 52.111621037273686 18.0'
p1713
aS'http://www.opengis.net/def/crs/EPSG/0/4326'
p1714
assS'NL.RIVM.AQ/SPO_F-NL00573_00005_100_100'
p1715
(dp1716
g36
(lp1717
sg38
(lp1718
S'4.579343 52.47887103689854 1.0'
p1719
aS'http://www.opengis.net/def/crs/EPSG/0/4326'
p1720
assS'NL.RIVM.AQ/SPO_F-NL00537_00007_100_101'
p1721
(dp1722
g36
(lp1723
sg38
(lp1724
S'4.64759 52.38104003700004 1.0'
p1725
aS'http://www.opengis.net/def/crs/EPSG/0/4326'
p1726
assS'NL.RIVM.AQ/SPO_F-NL00433_06001_100_101'
p1727
(dp1728
g36
(lp1729
S'NL.RIVM.AQ/STA-NL00433/6001'
p1730
asg38
(lp1731
S'4.326303 51.910474037472305 -1.0'
p1732
aS'http://www.opengis.net/def/crs/EPSG/0/4326'
p1733
assS'NL.RIVM.AQ/SPO_F-NL00704_00021_100_100'
p1734
(dp1735
g36
(lp1736
sg38
(lp1737
S'4.773478 52.428017036951445 4.0'
p1738
aS'http://www.opengis.net/def/crs/EPSG/0/4326'
p1739
assS'NL.RIVM.AQ/SPO_F-NL00133_00001_101_101'
p1740
(dp1741
g36
(lp1742
S'NL.RIVM.AQ/STA-NL00133/1'
p1743
asg38
(lp1744
S'5.881748000000001 50.902281038391635 96.0'
p1745
aS'http://www.opengis.net/def/crs/EPSG/0/4326'
p1746
assS'NL.RIVM.AQ/SPO_F-NL00743_00005_100_100'
p1747
(dp1748
g36
(lp1749
sg38
(lp1750
S'5.664074000000001 52.15406703723116 1.0'
p1751
aS'http://www.opengis.net/def/crs/EPSG/0/4326'
p1752
assS'NL.RIVM.AQ/SPO_F-NL00704_06001_100_100'
p1753
(dp1754
g36
(lp1755
sg38
(lp1756
S'4.773478 52.428017036951445 4.0'
p1757
aS'http://www.opengis.net/def/crs/EPSG/0/4326'
p1758
assS'NL.RIVM.AQ/SPO_F-NL00934_00008_111_112'
p1759
(dp1760
g36
(lp1761
S'NL.RIVM.AQ/STA-NL00934/8'
p1762
asg38
(lp1763
S'6.276815 53.330425035968325 1.0'
p1764
aS'http://www.opengis.net/def/crs/EPSG/0/4326'
p1765
assS'NL.RIVM.AQ/SPO_F-NL00433_00668_100_100'
p1766
(dp1767
g36
(lp1768
sg38
(lp1769
S'4.326303 51.910474037472305 -1.0'
p1770
aS'http://www.opengis.net/def/crs/EPSG/0/4326'
p1771
assS'NL.RIVM.AQ/SPO_F-NL00722_00035_100_100'
p1772
(dp1773
g36
(lp1774
sg38
(lp1775
S'6.605367 52.09180103729347 19.0'
p1776
aS'http://www.opengis.net/def/crs/EPSG/0/4326'
p1777
assS'NL.RIVM.AQ/SPO_F-NL00742_00007_100_101'
p1778
(dp1779
g36
(lp1780
S'NL.RIVM.AQ/STA-NL00742/7'
p1781
asg38
(lp1782
S'5.856938 51.83822103754241 30.0'
p1783
aS'http://www.opengis.net/def/crs/EPSG/0/4326'
p1784
assS'NL.RIVM.AQ/SPO_F-NL00491_00010_100_100'
p1785
(dp1786
g36
(lp1787
sg38
(lp1788
S'4.430692 51.93847203744493 0.0'
p1789
aS'http://www.opengis.net/def/crs/EPSG/0/4326'
p1790
assS'NL.RIVM.AQ/SPO_F-NL00446_00038_100_100'
p1791
(dp1792
g36
(lp1793
S'NL.RIVM.AQ/STA-NL00446/38'
p1794
asg38
(lp1795
S'4.359376000000001 52.03902303734593 -2.0'
p1796
aS'http://www.opengis.net/def/crs/EPSG/0/4326'
p1797
assS'NL.RIVM.AQ/SPO_F-NL00131_00668_100_100'
p1798
(dp1799
g36
(lp1800
sg38
(lp1801
S'5.853069999999999 51.540520037824535 28.0'
p1802
aS'http://www.opengis.net/def/crs/EPSG/0/4326'
p1803
assS'NL.RIVM.AQ/SPO_F-NL00495_00038_100_100'
p1804
(dp1805
g36
(lp1806
sg38
(lp1807
S'4.228024999999998 51.932039037451226 0.0'
p1808
aS'http://www.opengis.net/def/crs/EPSG/0/4326'
p1809
assS'NL.RIVM.AQ/SPO_F-NL00437_00038_101_102'
p1810
(dp1811
g36
(lp1812
S'NL.RIVM.AQ/STA-NL00437/38'
p1813
asg38
(lp1814
S'4.450529000000001 51.78657903759214 -1.0'
p1815
aS'http://www.opengis.net/def/crs/EPSG/0/4326'
p1816
assS'NL.RIVM.AQ/SPO_F-NL00483_00020_100_100'
p1817
(dp1818
g36
(lp1819
sg38
(lp1820
S'4.318061 51.87006903751158 0.0'
p1821
aS'http://www.opengis.net/def/crs/EPSG/0/4326'
p1822
assS'NL.RIVM.AQ/SPO_F-NL00493_00010_100_100'
p1823
(dp1824
g36
(lp1825
sg38
(lp1826
S'4.461344 51.92711103745604 0.0'
p1827
aS'http://www.opengis.net/def/crs/EPSG/0/4326'
p1828
assS'NL.RIVM.AQ/SPO_F-NL00318_00007_111_112'
p1829
(dp1830
g36
(lp1831
S'NL.RIVM.AQ/STA-NL00318/7'
p1832
asg38
(lp1833
S'3.749483999999999 51.294498038049305 5.0'
p1834
aS'http://www.opengis.net/def/crs/EPSG/0/4326'
p1835
assS'NL.RIVM.AQ/SPO_F-NL00549_00005_100_100'
p1836
(dp1837
g36
(lp1838
S'NL.RIVM.AQ/STA-NL00549/5'
p1839
asg38
(lp1840
S'5.235903 52.257356037126755 1.0'
p1841
aS'http://www.opengis.net/def/crs/EPSG/0/4326'
p1842
assS'NL.RIVM.AQ/SPO_F-NL00572_00005_100_100'
p1843
(dp1844
g36
(lp1845
sg38
(lp1846
S'4.628799999999999 52.47440003690322 1.0'
p1847
aS'http://www.opengis.net/def/crs/EPSG/0/4326'
p1848
assS'NL.RIVM.AQ/SPO_F-NL00012_00005_100_100'
p1849
(dp1850
g36
(lp1851
sg38
(lp1852
S'4.887811 52.38998303699083 4.0'
p1853
aS'http://www.opengis.net/def/crs/EPSG/0/4326'
p1854
assS'NL.RIVM.AQ/SPO_F-NL00564_00038_100_100'
p1855
(dp1856
g36
(lp1857
sg38
(lp1858
S'4.766614000000001 52.28745003709609 1.0'
p1859
aS'http://www.opengis.net/def/crs/EPSG/0/4326'
p1860
assS'NL.RIVM.AQ/SPO_F-NL00701_00007_100_100'
p1861
(dp1862
g36
(lp1863
sg38
(lp1864
S'4.816706000000001 52.44801103693068 1.0'
p1865
aS'http://www.opengis.net/def/crs/EPSG/0/4326'
p1866
assS'NL.RIVM.AQ/SPO_F-NL00486_00008_100_100'
p1867
(dp1868
g36
(lp1869
sg38
(lp1870
S'4.388808000000001 51.8878690374943 0.0'
p1871
aS'http://www.opengis.net/def/crs/EPSG/0/4326'
p1872
assS'NL.RIVM.AQ/SPO_F-NL00807_00038_101_102'
p1873
(dp1874
g36
(lp1875
S'NL.RIVM.AQ/STA-NL00807/38'
p1876
asg38
(lp1877
S'6.402933000000001 52.388272036992596 7.0'
p1878
aS'http://www.opengis.net/def/crs/EPSG/0/4326'
p1879
assS'NL.RIVM.AQ/SPO_F-NL00549_00009_100_100'
p1880
(dp1881
g36
(lp1882
sg38
(lp1883
S'5.235903 52.257356037126755 1.0'
p1884
aS'http://www.opengis.net/def/crs/EPSG/0/4326'
p1885
assS'NL.RIVM.AQ/SPO_F-NL00241_00009_100_101'
p1886
(dp1887
g36
(lp1888
sg38
(lp1889
S'4.781016000000001 51.60308003776617 1.0'
p1890
aS'http://www.opengis.net/def/crs/EPSG/0/4326'
p1891
assS'NL.RIVM.AQ/SPO_F-NL00643_06001_100_100'
p1892
(dp1893
g36
(lp1894
S'NL.RIVM.AQ/STA-NL00643/6001'
p1895
asg38
(lp1896
S'5.128183 52.101308037284014 2.0'
p1897
aS'http://www.opengis.net/def/crs/EPSG/0/4326'
p1898
assS'NL.RIVM.AQ/SPO_F-NL00487_00010_100_100'
p1899
(dp1900
g36
(lp1901
sg38
(lp1902
S'4.480690000000001 51.89114703749109 0.0'
p1903
aS'http://www.opengis.net/def/crs/EPSG/0/4326'
p1904
assS'NL.RIVM.AQ/SPO_F-NL00538_00045_101_101'
p1905
(dp1906
g36
(lp1907
sg38
(lp1908
S'5.050509 52.803657036553524 -4.0'
p1909
aS'http://www.opengis.net/def/crs/EPSG/0/4326'
p1910
assS'NL.RIVM.AQ/SPO_F-NL00639_00482_100_101'
p1911
(dp1912
g36
(lp1913
sg38
(lp1914
S'5.120507000000001 52.06774803731743 1.0'
p1915
aS'http://www.opengis.net/def/crs/EPSG/0/4326'
p1916
assS'NL.RIVM.AQ/SPO_F-NL00738_00005_101_101'
p1917
(dp1918
g36
(lp1919
S'NL.RIVM.AQ/STA-NL00738/5'
p1920
asg38
(lp1921
S'5.708418999999999 52.111621037273686 18.0'
p1922
aS'http://www.opengis.net/def/crs/EPSG/0/4326'
p1923
assS'NL.RIVM.AQ/SPO_F-NL00107_00009_101_102'
p1924
(dp1925
g36
(lp1926
sg38
(lp1927
S'6.0423990000000005 51.11919403820476 32.0'
p1928
aS'http://www.opengis.net/def/crs/EPSG/0/4326'
p1929
assS'NL.RIVM.AQ/SPO_F-NL00918_00008_101_102'
p1930
(dp1931
g36
(lp1932
S'NL.RIVM.AQ/STA-NL00918/8'
p1933
asg38
(lp1934
S'5.573491569999999 52.91691592643034 1.0'
p1935
aS'http://www.opengis.net/def/crs/EPSG/0/4326'
p1936
assS'NL.RIVM.AQ/SPO_F-NL00641_00005_101_101'
p1937
(dp1938
g36
(lp1939
S'NL.RIVM.AQ/STA-NL00641/5'
p1940
asg38
(lp1941
S'4.987444000000001 52.20153003718333 -1.0'
p1942
aS'http://www.opengis.net/def/crs/EPSG/0/4326'
p1943
assS'NL.RIVM.AQ/SPO_F-NL00318_00009_101_102'
p1944
(dp1945
g36
(lp1946
sg38
(lp1947
S'3.749483999999999 51.294498038049305 5.0'
p1948
aS'http://www.opengis.net/def/crs/EPSG/0/4326'
p1949
assS'NL.RIVM.AQ/SPO_F-NL00633_00005_100_100'
p1950
(dp1951
g36
(lp1952
sg38
(lp1953
S'4.83819 52.13795003724734 -2.0'
p1954
aS'http://www.opengis.net/def/crs/EPSG/0/4326'
p1955
assS'NL.RIVM.AQ/SPO_F-NL00017_00020_100_100'
p1956
(dp1957
g36
(lp1958
sg38
(lp1959
S'4.8997 52.358039037023744 4.0'
p1960
aS'http://www.opengis.net/def/crs/EPSG/0/4326'
p1961
assS'NL.RIVM.AQ/SPO_F-NL00022_00008_101_101'
p1962
(dp1963
g36
(lp1964
sg38
(lp1965
S'4.793344000000001 52.36681103701471 -1.0'
p1966
aS'http://www.opengis.net/def/crs/EPSG/0/4326'
p1967
assS'NL.RIVM.AQ/SPO_F-NL00131_00005_100_101'
p1968
(dp1969
g36
(lp1970
S'NL.RIVM.AQ/STA-NL00131/5'
p1971
asg38
(lp1972
S'5.853069999999999 51.540520037824535 28.0'
p1973
aS'http://www.opengis.net/def/crs/EPSG/0/4326'
p1974
assS'NL.RIVM.AQ/SPO_F-NL00236_00008_101_102'
p1975
(dp1976
g36
(lp1977
S'NL.RIVM.AQ/STA-NL00236/8'
p1978
asg38
(lp1979
S'5.47235 51.46866203789098 17.0'
p1980
aS'http://www.opengis.net/def/crs/EPSG/0/4326'
p1981
assS'NL.RIVM.AQ/SPO_F-NL00444_00047_101_101'
p1982
(dp1983
g36
(lp1984
sg38
(lp1985
S'4.510817 52.2965560370868 4.0'
p1986
aS'http://www.opengis.net/def/crs/EPSG/0/4326'
p1987
assS'NL.RIVM.AQ/SPO_F-NL00548_00009_100_100'
p1988
(dp1989
g36
(lp1990
sg38
(lp1991
S'5.1758299999999995 52.26798003711595 1.0'
p1992
aS'http://www.opengis.net/def/crs/EPSG/0/4326'
p1993
assS'NL.RIVM.AQ/SPO_F-NL00934_00012_102_102'
p1994
(dp1995
g36
(lp1996
sg38
(lp1997
S'6.276815 53.330425035968325 1.0'
p1998
aS'http://www.opengis.net/def/crs/EPSG/0/4326'
p1999
assS'NL.RIVM.AQ/SPO_F-NL00551_00010_100_100'
p2000
(dp2001
g36
(lp2002
sg38
(lp2003
S'4.6018419999999995 52.46303903691505 1.0'
p2004
aS'http://www.opengis.net/def/crs/EPSG/0/4326'
p2005
assS'NL.RIVM.AQ/SPO_F-NL00021_00009_101_101'
p2006
(dp2007
g36
(lp2008
sg38
(lp2009
S'4.988397000000001 52.32069203706209 -3.0'
p2010
aS'http://www.opengis.net/def/crs/EPSG/0/4326'
p2011
assS'NL.RIVM.AQ/SPO_F-NL00133_00007_111_112'
p2012
(dp2013
g36
(lp2014
S'NL.RIVM.AQ/STA-NL00133/7'
p2015
asg38
(lp2016
S'5.881748000000001 50.902281038391635 96.0'
p2017
aS'http://www.opengis.net/def/crs/EPSG/0/4326'
p2018
assS'NL.RIVM.AQ/SPO_F-NL00240_06001_100_100'
p2019
(dp2020
g36
(lp2021
S'NL.RIVM.AQ/STA-NL00240/6001'
p2022
asg38
(lp2023
S'4.824944 51.5935330377751 4.0'
p2024
aS'http://www.opengis.net/def/crs/EPSG/0/4326'
p2025
assS'NL.RIVM.AQ/SPO_F-NL00929_00631_101_101'
p2026
(dp2027
g36
(lp2028
sg38
(lp2029
S'6.932432000000001 52.87572503647533 10.0'
p2030
aS'http://www.opengis.net/def/crs/EPSG/0/4326'
p2031
assS'NL.RIVM.AQ/SPO_F-NL00929_00038_100_101'
p2032
(dp2033
g36
(lp2034
S'NL.RIVM.AQ/STA-NL00929/38'
p2035
asg38
(lp2036
S'6.932432000000001 52.87572503647533 10.0'
p2037
aS'http://www.opengis.net/def/crs/EPSG/0/4326'
p2038
assS'NL.RIVM.AQ/SPO_F-NL00433_00038_111_112'
p2039
(dp2040
g36
(lp2041
S'NL.RIVM.AQ/STA-NL00433/38'
p2042
asg38
(lp2043
S'4.326303 51.910474037472305 -1.0'
p2044
aS'http://www.opengis.net/def/crs/EPSG/0/4326'
p2045
assS'NL.RIVM.AQ/SPO_F-NL00489_00008_100_100'
p2046
(dp2047
g36
(lp2048
sg38
(lp2049
S'4.580058 51.869431037512186 0.0'
p2050
aS'http://www.opengis.net/def/crs/EPSG/0/4326'
p2051
assS'NL.RIVM.AQ/SPO_F-NL00636_00038_111_112'
p2052
(dp2053
g36
(lp2054
S'NL.RIVM.AQ/STA-NL00636/38'
p2055
asg38
(lp2056
S'5.124464 52.105031037280284 1.0'
p2057
aS'http://www.opengis.net/def/crs/EPSG/0/4326'
p2058
assS'NL.RIVM.AQ/SPO_F-NL00537_00009_101_102'
p2059
(dp2060
g36
(lp2061
sg38
(lp2062
S'4.64759 52.38104003700004 1.0'
p2063
aS'http://www.opengis.net/def/crs/EPSG/0/4326'
p2064
assS'NL.RIVM.AQ/SPO_F-NL00738_00009_100_101'
p2065
(dp2066
g36
(lp2067
sg38
(lp2068
S'5.708418999999999 52.111621037273686 18.0'
p2069
aS'http://www.opengis.net/def/crs/EPSG/0/4326'
p2070
assS'NL.RIVM.AQ/SPO_F-NL00433_00012_112_112'
p2071
(dp2072
g36
(lp2073
sg38
(lp2074
S'4.326303 51.910474037472305 -1.0'
p2075
aS'http://www.opengis.net/def/crs/EPSG/0/4326'
p2076
assS'NL.RIVM.AQ/SPO_F-NL00573_06001_100_100'
p2077
(dp2078
g36
(lp2079
sg38
(lp2080
S'4.579343 52.47887103689854 1.0'
p2081
aS'http://www.opengis.net/def/crs/EPSG/0/4326'
p2082
assS'NL.RIVM.AQ/SPO_F-NL00485_00009_100_100'
p2083
(dp2084
g36
(lp2085
sg38
(lp2086
S'4.355241999999999 51.867411037514145 1.0'
p2087
aS'http://www.opengis.net/def/crs/EPSG/0/4326'
p2088
assS'NL.RIVM.AQ/SPO_F-NL00546_00020_100_100'
p2089
(dp2090
g36
(lp2091
sg38
(lp2092
S'4.83206 52.420230036959516 1.0'
p2093
aS'http://www.opengis.net/def/crs/EPSG/0/4326'
p2094
assS'NL.RIVM.AQ/SPO_F-NL00404_00005_100_101'
p2095
(dp2096
g36
(lp2097
S'NL.RIVM.AQ/STA-NL00404/5'
p2098
asg38
(lp2099
S'4.289185000000001 52.07714803730809 2.0'
p2100
aS'http://www.opengis.net/def/crs/EPSG/0/4326'
p2101
assS'NL.RIVM.AQ/SPO_F-NL00565_00008_100_100'
p2102
(dp2103
g36
(lp2104
sg38
(lp2105
S'4.715008000000001 52.32746403705515 1.0'
p2106
aS'http://www.opengis.net/def/crs/EPSG/0/4326'
p2107
assS'NL.RIVM.AQ/SPO_F-NL00138_06001_100_100'
p2108
(dp2109
g36
(lp2110
S'NL.RIVM.AQ/STA-NL00138/6001'
p2111
asg38
(lp2112
S'5.986853 50.90031703839329 98.0'
p2113
aS'http://www.opengis.net/def/crs/EPSG/0/4326'
p2114
assS'NL.RIVM.AQ/SPO_F-NL00547_00038_100_100'
p2115
(dp2116
g36
(lp2117
S'NL.RIVM.AQ/STA-NL00547/38'
p2118
asg38
(lp2119
S'5.181552 52.23508303714937 1.0'
p2120
aS'http://www.opengis.net/def/crs/EPSG/0/4326'
p2121
assS'NL.RIVM.AQ/SPO_F-NL00929_00007_100_101'
p2122
(dp2123
g36
(lp2124
S'NL.RIVM.AQ/STA-NL00929/7'
p2125
asg38
(lp2126
S'6.932432000000001 52.87572503647533 10.0'
p2127
aS'http://www.opengis.net/def/crs/EPSG/0/4326'
p2128
assS'NL.RIVM.AQ/SPO_F-NL00494_00007_100_100'
p2129
(dp2130
g36
(lp2131
sg38
(lp2132
S'4.401388999999999 51.92138903746164 3.0'
p2133
aS'http://www.opengis.net/def/crs/EPSG/0/4326'
p2134
assS'NL.RIVM.AQ/SPO_F-NL00007_00009_101_101'
p2135
(dp2136
g36
(lp2137
sg38
(lp2138
S'4.845233 52.381331036999754 2.0'
p2139
aS'http://www.opengis.net/def/crs/EPSG/0/4326'
p2140
assS'NL.RIVM.AQ/SPO_F-NL00012_00007_100_100'
p2141
(dp2142
g36
(lp2143
sg38
(lp2144
S'4.887811 52.38998303699083 4.0'
p2145
aS'http://www.opengis.net/def/crs/EPSG/0/4326'
p2146
assS'NL.RIVM.AQ/SPO_F-NL00493_00038_100_100'
p2147
(dp2148
g36
(lp2149
sg38
(lp2150
S'4.461344 51.92711103745604 0.0'
p2151
aS'http://www.opengis.net/def/crs/EPSG/0/4326'
p2152
assS'NL.RIVM.AQ/SPO_F-NL00240_00038_100_100'
p2153
(dp2154
g36
(lp2155
S'NL.RIVM.AQ/STA-NL00240/38'
p2156
asg38
(lp2157
S'4.824944 51.5935330377751 4.0'
p2158
aS'http://www.opengis.net/def/crs/EPSG/0/4326'
p2159
assS'NL.RIVM.AQ/SPO_F-NL00241_06001_100_101'
p2160
(dp2161
g36
(lp2162
S'NL.RIVM.AQ/STA-NL00241/6001'
p2163
asg38
(lp2164
S'4.781016000000001 51.60308003776617 1.0'
p2165
aS'http://www.opengis.net/def/crs/EPSG/0/4326'
p2166
assS'NL.RIVM.AQ/SPO_F-NL00019_00008_101_101'
p2167
(dp2168
g36
(lp2169
sg38
(lp2170
S'4.9044 52.372056037009315 2.0'
p2171
aS'http://www.opengis.net/def/crs/EPSG/0/4326'
p2172
assS'NL.RIVM.AQ/SPO_F-NL00553_00001_100_100'
p2173
(dp2174
g36
(lp2175
sg38
(lp2176
S'4.601986000000001 52.49399203688275 7.0'
p2177
aS'http://www.opengis.net/def/crs/EPSG/0/4326'
p2178
assS'NL.RIVM.AQ/SPO_F-NL00433_00014_102_102'
p2179
(dp2180
g36
(lp2181
sg38
(lp2182
S'4.326303 51.910474037472305 -1.0'
p2183
aS'http://www.opengis.net/def/crs/EPSG/0/4326'
p2184
assS'NL.RIVM.AQ/SPO_F-NL00007_00005_100_100'
p2185
(dp2186
g36
(lp2187
sg38
(lp2188
S'4.845233 52.381331036999754 2.0'
p2189
aS'http://www.opengis.net/def/crs/EPSG/0/4326'
p2190
assS'NL.RIVM.AQ/SPO_F-NL00818_00038_100_101'
p2191
(dp2192
g36
(lp2193
S'NL.RIVM.AQ/STA-NL00818/38'
p2194
asg38
(lp2195
S'6.017571 52.65414403671388 1.0'
p2196
aS'http://www.opengis.net/def/crs/EPSG/0/4326'
p2197
assS'NL.RIVM.AQ/SPO_F-NL00433_00659_100_100'
p2198
(dp2199
g36
(lp2200
sg38
(lp2201
S'4.326303 51.910474037472305 -1.0'
p2202
aS'http://www.opengis.net/def/crs/EPSG/0/4326'
p2203
assS'NL.RIVM.AQ/SPO_F-NL00549_00038_100_100'
p2204
(dp2205
g36
(lp2206
S'NL.RIVM.AQ/STA-NL00549/38'
p2207
asg38
(lp2208
S'5.235903 52.257356037126755 1.0'
p2209
aS'http://www.opengis.net/def/crs/EPSG/0/4326'
p2210
assS'NL.RIVM.AQ/SPO_F-NL00494_00038_100_100'
p2211
(dp2212
g36
(lp2213
sg38
(lp2214
S'4.401388999999999 51.92138903746164 3.0'
p2215
aS'http://www.opengis.net/def/crs/EPSG/0/4326'
p2216
assS'NL.RIVM.AQ/SPO_F-NL00703_00021_100_100'
p2217
(dp2218
g36
(lp2219
sg38
(lp2220
S'4.728581 52.39843703698208 1.0'
p2221
aS'http://www.opengis.net/def/crs/EPSG/0/4326'
p2222
assS'NL.RIVM.AQ/SPO_F-NL00938_00007_100_101'
p2223
(dp2224
g36
(lp2225
S'NL.RIVM.AQ/STA-NL00938/7'
p2226
asg38
(lp2227
S'6.608937 53.2465350360636 -1.0'
p2228
aS'http://www.opengis.net/def/crs/EPSG/0/4326'
p2229
assS'NL.RIVM.AQ/SPO_F-NL00742_00008_100_101'
p2230
(dp2231
g36
(lp2232
S'NL.RIVM.AQ/STA-NL00742/8'
p2233
asg38
(lp2234
S'5.856938 51.83822103754241 30.0'
p2235
aS'http://www.opengis.net/def/crs/EPSG/0/4326'
p2236
assS'NL.RIVM.AQ/SPO_F-NL00487_00009_100_100'
p2237
(dp2238
g36
(lp2239
sg38
(lp2240
S'4.480690000000001 51.89114703749109 0.0'
p2241
aS'http://www.opengis.net/def/crs/EPSG/0/4326'
p2242
assS'NL.RIVM.AQ/SPO_F-NL00934_00015_101_101'
p2243
(dp2244
g36
(lp2245
sg38
(lp2246
S'6.276815 53.330425035968325 1.0'
p2247
aS'http://www.opengis.net/def/crs/EPSG/0/4326'
p2248
assS'NL.RIVM.AQ/SPO_F-NL00301_00009_101_102'
p2249
(dp2250
g36
(lp2251
sg38
(lp2252
S'3.9166229999999995 51.634706037736464 -1.0'
p2253
aS'http://www.opengis.net/def/crs/EPSG/0/4326'
p2254
assS'NL.RIVM.AQ/SPO_F-NL00237_00005_100_101'
p2255
(dp2256
g36
(lp2257
S'NL.RIVM.AQ/STA-NL00237/5'
p2258
asg38
(lp2259
S'5.444833000000001 51.44415703791349 18.0'
p2260
aS'http://www.opengis.net/def/crs/EPSG/0/4326'
p2261
assS'NL.RIVM.AQ/SPO_F-NL00493_00008_100_100'
p2262
(dp2263
g36
(lp2264
sg38
(lp2265
S'4.461344 51.92711103745604 0.0'
p2266
aS'http://www.opengis.net/def/crs/EPSG/0/4326'
p2267
assS'NL.RIVM.AQ/SPO_F-NL00247_00009_100_100'
p2268
(dp2269
g36
(lp2270
sg38
(lp2271
S'5.3933279999999995 51.40736503794714 22.0'
p2272
aS'http://www.opengis.net/def/crs/EPSG/0/4326'
p2273
assS'NL.RIVM.AQ/SPO_F-NL00445_00005_100_101'
p2274
(dp2275
g36
(lp2276
S'NL.RIVM.AQ/STA-NL00445/5'
p2277
asg38
(lp2278
S'4.315872 52.075071037310146 4.0'
p2279
aS'http://www.opengis.net/def/crs/EPSG/0/4326'
p2280
assS'NL.RIVM.AQ/SPO_F-NL00818_00008_100_101'
p2281
(dp2282
g36
(lp2283
S'NL.RIVM.AQ/STA-NL00818/8'
p2284
asg38
(lp2285
S'6.017571 52.65414403671388 1.0'
p2286
aS'http://www.opengis.net/def/crs/EPSG/0/4326'
p2287
assS'NL.RIVM.AQ/SPO_F-NL00495_00009_100_100'
p2288
(dp2289
g36
(lp2290
sg38
(lp2291
S'4.228024999999998 51.932039037451226 0.0'
p2292
aS'http://www.opengis.net/def/crs/EPSG/0/4326'
p2293
assS'NL.RIVM.AQ/SPO_F-NL00131_00047_101_101'
p2294
(dp2295
g36
(lp2296
sg38
(lp2297
S'5.853069999999999 51.540520037824535 28.0'
p2298
aS'http://www.opengis.net/def/crs/EPSG/0/4326'
p2299
assS'NL.RIVM.AQ/SPO_F-NL00703_00008_100_100'
p2300
(dp2301
g36
(lp2302
sg38
(lp2303
S'4.728581 52.39843703698208 1.0'
p2304
aS'http://www.opengis.net/def/crs/EPSG/0/4326'
p2305
assS'NL.RIVM.AQ/SPO_F-NL00235_00009_101_102'
p2306
(dp2307
g36
(lp2308
sg38
(lp2309
S'4.359835 51.43444303792239 18.0'
p2310
aS'http://www.opengis.net/def/crs/EPSG/0/4326'
p2311
assS'NL.RIVM.AQ/SPO_F-NL00489_00009_100_100'
p2312
(dp2313
g36
(lp2314
sg38
(lp2315
S'4.580058 51.869431037512186 0.0'
p2316
aS'http://www.opengis.net/def/crs/EPSG/0/4326'
p2317
assS'NL.RIVM.AQ/SPO_F-NL00491_00038_100_100'
p2318
(dp2319
g36
(lp2320
sg38
(lp2321
S'4.430692 51.93847203744493 0.0'
p2322
aS'http://www.opengis.net/def/crs/EPSG/0/4326'
p2323
assS'NL.RIVM.AQ/SPO_F-NL00418_00007_120_121'
p2324
(dp2325
g36
(lp2326
S'NL.RIVM.AQ/STA-NL00418/7'
p2327
asg38
(lp2328
S'4.479923 51.914233037468634 3.0'
p2329
aS'http://www.opengis.net/def/crs/EPSG/0/4326'
p2330
assS'NL.RIVM.AQ/SPO_F-NL00491_00008_100_100'
p2331
(dp2332
g36
(lp2333
sg38
(lp2334
S'4.430692 51.93847203744493 0.0'
p2335
aS'http://www.opengis.net/def/crs/EPSG/0/4326'
p2336
assS'NL.RIVM.AQ/SPO_F-NL00014_00007_100_100'
p2337
(dp2338
g36
(lp2339
sg38
(lp2340
S'4.866208 52.359714037022016 2.0'
p2341
aS'http://www.opengis.net/def/crs/EPSG/0/4326'
p2342
assS'NL.RIVM.AQ/SPO_F-NL00494_00008_100_100'
p2343
(dp2344
g36
(lp2345
sg38
(lp2346
S'4.401388999999999 51.92138903746164 3.0'
p2347
aS'http://www.opengis.net/def/crs/EPSG/0/4326'
p2348
assS'NL.RIVM.AQ/SPO_F-NL00929_00005_100_101'
p2349
(dp2350
g36
(lp2351
S'NL.RIVM.AQ/STA-NL00929/5'
p2352
asg38
(lp2353
S'6.932432000000001 52.87572503647533 10.0'
p2354
aS'http://www.opengis.net/def/crs/EPSG/0/4326'
p2355
assS'NL.RIVM.AQ/SPO_F-NL00494_06001_101_101'
p2356
(dp2357
g36
(lp2358
sg38
(lp2359
S'4.401388999999999 51.92138903746164 3.0'
p2360
aS'http://www.opengis.net/def/crs/EPSG/0/4326'
p2361
assS'NL.RIVM.AQ/SPO_F-NL00230_00008_101_102'
p2362
(dp2363
g36
(lp2364
S'NL.RIVM.AQ/STA-NL00230/8'
p2365
asg38
(lp2366
S'5.1484499999999995 51.518440037845004 15.0'
p2367
aS'http://www.opengis.net/def/crs/EPSG/0/4326'
p2368
assS'NL.RIVM.AQ/SPO_F-NL00633_00038_101_102'
p2369
(dp2370
g36
(lp2371
S'NL.RIVM.AQ/STA-NL00633/38'
p2372
asg38
(lp2373
S'4.83819 52.13795003724734 -2.0'
p2374
aS'http://www.opengis.net/def/crs/EPSG/0/4326'
p2375
assS'NL.RIVM.AQ/SPO_F-NL00633_00010_101_101'
p2376
(dp2377
g36
(lp2378
sg38
(lp2379
S'4.83819 52.13795003724734 -2.0'
p2380
aS'http://www.opengis.net/def/crs/EPSG/0/4326'
p2381
assS'NL.RIVM.AQ/SPO_F-NL00445_00008_100_101'
p2382
(dp2383
g36
(lp2384
S'NL.RIVM.AQ/STA-NL00445/8'
p2385
asg38
(lp2386
S'4.315872 52.075071037310146 4.0'
p2387
aS'http://www.opengis.net/def/crs/EPSG/0/4326'
p2388
assS'NL.RIVM.AQ/SPO_F-NL00929_00008_100_101'
p2389
(dp2390
g36
(lp2391
S'NL.RIVM.AQ/STA-NL00929/8'
p2392
asg38
(lp2393
S'6.932432000000001 52.87572503647533 10.0'
p2394
aS'http://www.opengis.net/def/crs/EPSG/0/4326'
p2395
assS'NL.RIVM.AQ/SPO_F-NL00741_00009_100_101'
p2396
(dp2397
g36
(lp2398
sg38
(lp2399
S'5.857777 51.841372037539365 30.0'
p2400
aS'http://www.opengis.net/def/crs/EPSG/0/4326'
p2401
assS'NL.RIVM.AQ/SPO_F-NL00301_00008_101_102'
p2402
(dp2403
g36
(lp2404
S'NL.RIVM.AQ/STA-NL00301/8'
p2405
asg38
(lp2406
S'3.9166229999999995 51.634706037736464 -1.0'
p2407
aS'http://www.opengis.net/def/crs/EPSG/0/4326'
p2408
assS'NL.RIVM.AQ/SPO_F-NL00738_00035_100_100'
p2409
(dp2410
g36
(lp2411
S'NL.RIVM.AQ/STA-NL00738/35'
p2412
asg38
(lp2413
S'5.708418999999999 52.111621037273686 18.0'
p2414
aS'http://www.opengis.net/def/crs/EPSG/0/4326'
p2415
assS'NL.RIVM.AQ/SPO_F-NL00701_00009_100_100'
p2416
(dp2417
g36
(lp2418
sg38
(lp2419
S'4.816706000000001 52.44801103693068 1.0'
p2420
aS'http://www.opengis.net/def/crs/EPSG/0/4326'
p2421
assS'NL.RIVM.AQ/SPO_F-NL00133_00005_100_101'
p2422
(dp2423
g36
(lp2424
S'NL.RIVM.AQ/STA-NL00133/5'
p2425
asg38
(lp2426
S'5.881748000000001 50.902281038391635 96.0'
p2427
aS'http://www.opengis.net/def/crs/EPSG/0/4326'
p2428
assS'NL.RIVM.AQ/SPO_F-NL00742_00010_100_100'
p2429
(dp2430
g36
(lp2431
sg38
(lp2432
S'5.856938 51.83822103754241 30.0'
p2433
aS'http://www.opengis.net/def/crs/EPSG/0/4326'
p2434
assS'NL.RIVM.AQ/SPO_F-NL00244_00005_100_100'
p2435
(dp2436
g36
(lp2437
sg38
(lp2438
S'5.808593 51.535901037828836 1.0'
p2439
aS'http://www.opengis.net/def/crs/EPSG/0/4326'
p2440
assS'NL.RIVM.AQ/SPO_F-NL00495_00008_100_100'
p2441
(dp2442
g36
(lp2443
sg38
(lp2444
S'4.228024999999998 51.932039037451226 0.0'
p2445
aS'http://www.opengis.net/def/crs/EPSG/0/4326'
p2446
assS'NL.RIVM.AQ/SPO_F-NL00818_00009_100_101'
p2447
(dp2448
g36
(lp2449
sg38
(lp2450
S'6.017571 52.65414403671388 1.0'
p2451
aS'http://www.opengis.net/def/crs/EPSG/0/4326'
p2452
assS'NL.RIVM.AQ/SPO_F-NL00012_00009_101_101'
p2453
(dp2454
g36
(lp2455
sg38
(lp2456
S'4.887811 52.38998303699083 4.0'
p2457
aS'http://www.opengis.net/def/crs/EPSG/0/4326'
p2458
assS'NL.RIVM.AQ/SPO_F-NL00444_00006_101_101'
p2459
(dp2460
g36
(lp2461
sg38
(lp2462
S'4.510817 52.2965560370868 4.0'
p2463
aS'http://www.opengis.net/def/crs/EPSG/0/4326'
p2464
assS'NL.RIVM.AQ/SPO_F-NL00722_00038_111_112'
p2465
(dp2466
g36
(lp2467
S'NL.RIVM.AQ/STA-NL00722/38'
p2468
asg38
(lp2469
S'6.605367 52.09180103729347 19.0'
p2470
aS'http://www.opengis.net/def/crs/EPSG/0/4326'
p2471
assS'NL.RIVM.AQ/SPO_F-NL00002_00008_101_101'
p2472
(dp2473
g36
(lp2474
sg38
(lp2475
S'4.87575 52.385422036995514 4.0'
p2476
aS'http://www.opengis.net/def/crs/EPSG/0/4326'
p2477
assS'NL.RIVM.AQ/SPO_F-NL00496_00021_100_100'
p2478
(dp2479
g36
(lp2480
sg38
(lp2481
S'4.121944000000001 51.97780303740636 0.0'
p2482
aS'http://www.opengis.net/def/crs/EPSG/0/4326'
p2483
assS'NL.RIVM.AQ/SPO_F-NL00701_00038_100_100'
p2484
(dp2485
g36
(lp2486
sg38
(lp2487
S'4.816706000000001 52.44801103693068 1.0'
p2488
aS'http://www.opengis.net/def/crs/EPSG/0/4326'
p2489
assS'NL.RIVM.AQ/SPO_F-NL00235_00035_100_100'
p2490
(dp2491
g36
(lp2492
sg38
(lp2493
S'4.359835 51.43444303792239 18.0'
p2494
aS'http://www.opengis.net/def/crs/EPSG/0/4326'
p2495
assS'NL.RIVM.AQ/SPO_F-NL00551_00008_100_100'
p2496
(dp2497
g36
(lp2498
sg38
(lp2499
S'4.6018419999999995 52.46303903691505 1.0'
p2500
aS'http://www.opengis.net/def/crs/EPSG/0/4326'
p2501
assS'NL.RIVM.AQ/SPO_F-NL00627_00659_100_100'
p2502
(dp2503
g36
(lp2504
sg38
(lp2505
S'5.195567 52.12083303726448 3.0'
p2506
aS'http://www.opengis.net/def/crs/EPSG/0/4326'
p2507
assS'NL.RIVM.AQ/SPO_F-NL00131_00063_101_101'
p2508
(dp2509
g36
(lp2510
sg38
(lp2511
S'5.853069999999999 51.540520037824535 28.0'
p2512
aS'http://www.opengis.net/def/crs/EPSG/0/4326'
p2513
assS'NL.RIVM.AQ/SPO_F-NL00547_00005_100_100'
p2514
(dp2515
g36
(lp2516
S'NL.RIVM.AQ/STA-NL00547/5'
p2517
asg38
(lp2518
S'5.181552 52.23508303714937 1.0'
p2519
aS'http://www.opengis.net/def/crs/EPSG/0/4326'
p2520
assS'NL.RIVM.AQ/SPO_F-NL00433_00005_100_101'
p2521
(dp2522
g36
(lp2523
S'NL.RIVM.AQ/STA-NL00433/5'
p2524
asg38
(lp2525
S'4.326303 51.910474037472305 -1.0'
p2526
aS'http://www.opengis.net/def/crs/EPSG/0/4326'
p2527
assS'NL.RIVM.AQ/SPO_F-NL00561_00009_100_100'
p2528
(dp2529
g36
(lp2530
sg38
(lp2531
S'4.774006 52.33400303704845 1.0'
p2532
aS'http://www.opengis.net/def/crs/EPSG/0/4326'
p2533
assS'NL.RIVM.AQ/SPO_F-NL00007_06001_100_100'
p2534
(dp2535
g36
(lp2536
sg38
(lp2537
S'4.845233 52.381331036999754 2.0'
p2538
aS'http://www.opengis.net/def/crs/EPSG/0/4326'
p2539
assS'NL.RIVM.AQ/SPO_F-NL00741_06001_100_100'
p2540
(dp2541
g36
(lp2542
S'NL.RIVM.AQ/STA-NL00741/6001'
p2543
asg38
(lp2544
S'5.857777 51.841372037539365 30.0'
p2545
aS'http://www.opengis.net/def/crs/EPSG/0/4326'
p2546
assS'NL.RIVM.AQ/SPO_F-NL00807_00008_101_102'
p2547
(dp2548
g36
(lp2549
S'NL.RIVM.AQ/STA-NL00807/8'
p2550
asg38
(lp2551
S'6.402933000000001 52.388272036992596 7.0'
p2552
aS'http://www.opengis.net/def/crs/EPSG/0/4326'
p2553
assS'NL.RIVM.AQ/SPO_F-NL00137_00007_100_101'
p2554
(dp2555
g36
(lp2556
sg38
(lp2557
S'5.977283 50.88487003840636 115.0'
p2558
aS'http://www.opengis.net/def/crs/EPSG/0/4326'
p2559
assS'NL.RIVM.AQ/SPO_F-NL00433_00063_101_101'
p2560
(dp2561
g36
(lp2562
sg38
(lp2563
S'4.326303 51.910474037472305 -1.0'
p2564
aS'http://www.opengis.net/def/crs/EPSG/0/4326'
p2565
assS'NL.RIVM.AQ/SPO_F-NL00437_00007_101_102'
p2566
(dp2567
g36
(lp2568
S'NL.RIVM.AQ/STA-NL00437/7'
p2569
asg38
(lp2570
S'4.450529000000001 51.78657903759214 -1.0'
p2571
aS'http://www.opengis.net/def/crs/EPSG/0/4326'
p2572
assS'NL.RIVM.AQ/SPO_F-NL00937_00009_100_101'
p2573
(dp2574
g36
(lp2575
sg38
(lp2576
S'6.578900999999999 53.217796036096054 2.0'
p2577
aS'http://www.opengis.net/def/crs/EPSG/0/4326'
p2578
assS'NL.RIVM.AQ/SPO_F-NL00483_00021_100_100'
p2579
(dp2580
g36
(lp2581
sg38
(lp2582
S'4.318061 51.87006903751158 0.0'
p2583
aS'http://www.opengis.net/def/crs/EPSG/0/4326'
p2584
assS'NL.RIVM.AQ/SPO_F-NL00318_00005_100_101'
p2585
(dp2586
g36
(lp2587
S'NL.RIVM.AQ/STA-NL00318/5'
p2588
asg38
(lp2589
S'3.749483999999999 51.294498038049305 5.0'
p2590
aS'http://www.opengis.net/def/crs/EPSG/0/4326'
p2591
assS'NL.RIVM.AQ/SPO_F-NL00643_00008_100_100'
p2592
(dp2593
g36
(lp2594
S'NL.RIVM.AQ/STA-NL00643/8'
p2595
asg38
(lp2596
S'5.128183 52.101308037284014 2.0'
p2597
aS'http://www.opengis.net/def/crs/EPSG/0/4326'
p2598
assS'NL.RIVM.AQ/SPO_F-NL00442_00038_100_100'
p2599
(dp2600
g36
(lp2601
S'NL.RIVM.AQ/STA-NL00442/38'
p2602
asg38
(lp2603
S'4.708238999999999 51.80065803757861 1.0'
p2604
aS'http://www.opengis.net/def/crs/EPSG/0/4326'
p2605
assS'NL.RIVM.AQ/SPO_F-NL00444_00035_100_100'
p2606
(dp2607
g36
(lp2608
S'NL.RIVM.AQ/STA-NL00444/35'
p2609
asg38
(lp2610
S'4.510817 52.2965560370868 4.0'
p2611
aS'http://www.opengis.net/def/crs/EPSG/0/4326'
p2612
assS'NL.RIVM.AQ/SPO_F-NL00442_00008_100_100'
p2613
(dp2614
g36
(lp2615
S'NL.RIVM.AQ/STA-NL00442/8'
p2616
asg38
(lp2617
S'4.708238999999999 51.80065803757861 1.0'
p2618
aS'http://www.opengis.net/def/crs/EPSG/0/4326'
p2619
assS'NL.RIVM.AQ/SPO_F-NL00704_00005_100_100'
p2620
(dp2621
g36
(lp2622
sg38
(lp2623
S'4.773478 52.428017036951445 4.0'
p2624
aS'http://www.opengis.net/def/crs/EPSG/0/4326'
p2625
assS'NL.RIVM.AQ/SPO_F-NL00488_00010_100_100'
p2626
(dp2627
g36
(lp2628
sg38
(lp2629
S'4.487528 51.893617037488696 0.0'
p2630
aS'http://www.opengis.net/def/crs/EPSG/0/4326'
p2631
assS'NL.RIVM.AQ/SPO_F-NL00418_00008_111_112'
p2632
(dp2633
g36
(lp2634
S'NL.RIVM.AQ/STA-NL00418/8'
p2635
asg38
(lp2636
S'4.479923 51.914233037468634 3.0'
p2637
aS'http://www.opengis.net/def/crs/EPSG/0/4326'
p2638
assS'NL.RIVM.AQ/SPO_F-NL00433_00009_101_102'
p2639
(dp2640
g36
(lp2641
sg38
(lp2642
S'4.326303 51.910474037472305 -1.0'
p2643
aS'http://www.opengis.net/def/crs/EPSG/0/4326'
p2644
assS'NL.RIVM.AQ/SPO_F-NL00247_00038_100_100'
p2645
(dp2646
g36
(lp2647
S'NL.RIVM.AQ/STA-NL00247/38'
p2648
asg38
(lp2649
S'5.3933279999999995 51.40736503794714 22.0'
p2650
aS'http://www.opengis.net/def/crs/EPSG/0/4326'
p2651
assS'NL.RIVM.AQ/SPO_F-NL00644_00009_100_100'
p2652
(dp2653
g36
(lp2654
sg38
(lp2655
S'4.923301 51.97448903740961 1.0'
p2656
aS'http://www.opengis.net/def/crs/EPSG/0/4326'
p2657
assS'NL.RIVM.AQ/SPO_F-NL00704_00020_100_100'
p2658
(dp2659
g36
(lp2660
sg38
(lp2661
S'4.773478 52.428017036951445 4.0'
p2662
aS'http://www.opengis.net/def/crs/EPSG/0/4326'
p2663
assS'NL.RIVM.AQ/SPO_F-NL00021_00008_101_101'
p2664
(dp2665
g36
(lp2666
sg38
(lp2667
S'4.988397000000001 52.32069203706209 -3.0'
p2668
aS'http://www.opengis.net/def/crs/EPSG/0/4326'
p2669
assS'NL.RIVM.AQ/SPO_F-NL00538_00035_100_100'
p2670
(dp2671
g36
(lp2672
S'NL.RIVM.AQ/STA-NL00538/35'
p2673
asg38
(lp2674
S'5.050509 52.803657036553524 -4.0'
p2675
aS'http://www.opengis.net/def/crs/EPSG/0/4326'
p2676
assS'NL.RIVM.AQ/SPO_F-NL00818_00005_100_101'
p2677
(dp2678
g36
(lp2679
S'NL.RIVM.AQ/STA-NL00818/5'
p2680
asg38
(lp2681
S'6.017571 52.65414403671388 1.0'
p2682
aS'http://www.opengis.net/def/crs/EPSG/0/4326'
p2683
assS'NL.RIVM.AQ/SPO_F-NL00021_00038_101_101'
p2684
(dp2685
g36
(lp2686
sg38
(lp2687
S'4.988397000000001 52.32069203706209 -3.0'
p2688
aS'http://www.opengis.net/def/crs/EPSG/0/4326'
p2689
assS'NL.RIVM.AQ/SPO_F-NL00137_00038_100_101'
p2690
(dp2691
g36
(lp2692
sg38
(lp2693
S'5.977283 50.88487003840636 115.0'
p2694
aS'http://www.opengis.net/def/crs/EPSG/0/4326'
p2695
assS'NL.RIVM.AQ/SPO_F-NL00644_00038_100_100'
p2696
(dp2697
g36
(lp2698
S'NL.RIVM.AQ/STA-NL00644/38'
p2699
asg38
(lp2700
S'4.923301 51.97448903740961 1.0'
p2701
aS'http://www.opengis.net/def/crs/EPSG/0/4326'
p2702
assS'NL.RIVM.AQ/SPO_F-NL00633_00035_100_100'
p2703
(dp2704
g36
(lp2705
S'NL.RIVM.AQ/STA-NL00633/35'
p2706
asg38
(lp2707
S'4.83819 52.13795003724734 -2.0'
p2708
aS'http://www.opengis.net/def/crs/EPSG/0/4326'
p2709
assS'NL.RIVM.AQ/SPO_F-NL00553_00038_100_100'
p2710
(dp2711
g36
(lp2712
sg38
(lp2713
S'4.601986000000001 52.49399203688275 7.0'
p2714
aS'http://www.opengis.net/def/crs/EPSG/0/4326'
p2715
assS'NL.RIVM.AQ/SPO_F-NL00636_06001_100_100'
p2716
(dp2717
g36
(lp2718
S'NL.RIVM.AQ/STA-NL00636/6001'
p2719
asg38
(lp2720
S'5.124464 52.105031037280284 1.0'
p2721
aS'http://www.opengis.net/def/crs/EPSG/0/4326'
p2722
assS'NL.RIVM.AQ/SPO_F-NL00447_00005_100_101'
p2723
(dp2724
g36
(lp2725
sg38
(lp2726
S'4.50756 52.1677530372174 1.0'
p2727
aS'http://www.opengis.net/def/crs/EPSG/0/4326'
p2728
assS'NL.RIVM.AQ/SPO_F-NL00703_00005_101_101'
p2729
(dp2730
g36
(lp2731
sg38
(lp2732
S'4.728581 52.39843703698208 1.0'
p2733
aS'http://www.opengis.net/def/crs/EPSG/0/4326'
p2734
assS'NL.RIVM.AQ/SPO_F-NL00704_00009_100_100'
p2735
(dp2736
g36
(lp2737
sg38
(lp2738
S'4.773478 52.428017036951445 4.0'
p2739
aS'http://www.opengis.net/def/crs/EPSG/0/4326'
p2740
assS'NL.RIVM.AQ/SPO_F-NL00639_00464_100_101'
p2741
(dp2742
g36
(lp2743
sg38
(lp2744
S'5.120507000000001 52.06774803731743 1.0'
p2745
aS'http://www.opengis.net/def/crs/EPSG/0/4326'
p2746
assS'NL.RIVM.AQ/SPO_F-NL00137_00005_100_101'
p2747
(dp2748
g36
(lp2749
sg38
(lp2750
S'5.977283 50.88487003840636 115.0'
p2751
aS'http://www.opengis.net/def/crs/EPSG/0/4326'
p2752
assS'NL.RIVM.AQ/SPO_F-NL00247_06001_100_100'
p2753
(dp2754
g36
(lp2755
S'NL.RIVM.AQ/STA-NL00247/6001'
p2756
asg38
(lp2757
S'5.3933279999999995 51.40736503794714 22.0'
p2758
aS'http://www.opengis.net/def/crs/EPSG/0/4326'
p2759
assS'NL.RIVM.AQ/SPO_F-NL00131_00006_112_112'
p2760
(dp2761
g36
(lp2762
sg38
(lp2763
S'5.853069999999999 51.540520037824535 28.0'
p2764
aS'http://www.opengis.net/def/crs/EPSG/0/4326'
p2765
assS'NL.RIVM.AQ/SPO_F-NL00938_00038_100_101'
p2766
(dp2767
g36
(lp2768
S'NL.RIVM.AQ/STA-NL00938/38'
p2769
asg38
(lp2770
S'6.608937 53.2465350360636 -1.0'
p2771
aS'http://www.opengis.net/def/crs/EPSG/0/4326'
p2772
assS'NL.RIVM.AQ/SPO_F-NL00131_00007_111_112'
p2773
(dp2774
g36
(lp2775
S'NL.RIVM.AQ/STA-NL00131/7'
p2776
asg38
(lp2777
S'5.853069999999999 51.540520037824535 28.0'
p2778
aS'http://www.opengis.net/def/crs/EPSG/0/4326'
p2779
assS'NL.RIVM.AQ/SPO_F-NL00014_00005_101_101'
p2780
(dp2781
g36
(lp2782
sg38
(lp2783
S'4.866208 52.359714037022016 2.0'
p2784
aS'http://www.opengis.net/def/crs/EPSG/0/4326'
p2785
assS'NL.RIVM.AQ/SPO_F-NL00418_00009_101_102'
p2786
(dp2787
g36
(lp2788
sg38
(lp2789
S'4.479923 51.914233037468634 3.0'
p2790
aS'http://www.opengis.net/def/crs/EPSG/0/4326'
p2791
assS'NL.RIVM.AQ/SPO_F-NL00301_00007_101_102'
p2792
(dp2793
g36
(lp2794
S'NL.RIVM.AQ/STA-NL00301/7'
p2795
asg38
(lp2796
S'3.9166229999999995 51.634706037736464 -1.0'
p2797
aS'http://www.opengis.net/def/crs/EPSG/0/4326'
p2798
assS'NL.RIVM.AQ/SPO_F-NL00934_06001_100_100'
p2799
(dp2800
g36
(lp2801
S'NL.RIVM.AQ/STA-NL00934/6001'
p2802
asg38
(lp2803
S'6.276815 53.330425035968325 1.0'
p2804
aS'http://www.opengis.net/def/crs/EPSG/0/4326'
p2805
assS'NL.RIVM.AQ/SPO_F-NL00016_00001_100_100'
p2806
(dp2807
g36
(lp2808
sg38
(lp2809
S'4.870157000000001 52.39397203698668 3.0'
p2810
aS'http://www.opengis.net/def/crs/EPSG/0/4326'
p2811
assS'NL.RIVM.AQ/SPO_F-NL00929_00035_100_100'
p2812
(dp2813
g36
(lp2814
S'NL.RIVM.AQ/STA-NL00929/35'
p2815
asg38
(lp2816
S'6.932432000000001 52.87572503647533 10.0'
p2817
aS'http://www.opengis.net/def/crs/EPSG/0/4326'
p2818
assS'NL.RIVM.AQ/SPO_F-NL00537_00005_100_101'
p2819
(dp2820
g36
(lp2821
sg38
(lp2822
S'4.64759 52.38104003700004 1.0'
p2823
aS'http://www.opengis.net/def/crs/EPSG/0/4326'
p2824
assS'NL.RIVM.AQ/SPO_F-NL00446_00007_100_100'
p2825
(dp2826
g36
(lp2827
S'NL.RIVM.AQ/STA-NL00446/7'
p2828
asg38
(lp2829
S'4.359376000000001 52.03902303734593 -2.0'
p2830
aS'http://www.opengis.net/def/crs/EPSG/0/4326'
p2831
assS'NL.RIVM.AQ/SPO_F-NL00495_00007_100_100'
p2832
(dp2833
g36
(lp2834
sg38
(lp2835
S'4.228024999999998 51.932039037451226 0.0'
p2836
aS'http://www.opengis.net/def/crs/EPSG/0/4326'
p2837
assS'NL.RIVM.AQ/SPO_F-NL00007_00038_101_101'
p2838
(dp2839
g36
(lp2840
sg38
(lp2841
S'4.845233 52.381331036999754 2.0'
p2842
aS'http://www.opengis.net/def/crs/EPSG/0/4326'
p2843
assS'NL.RIVM.AQ/SPO_F-NL00433_00006_103_103'
p2844
(dp2845
g36
(lp2846
sg38
(lp2847
S'4.326303 51.910474037472305 -1.0'
p2848
aS'http://www.opengis.net/def/crs/EPSG/0/4326'
p2849
assS'NL.RIVM.AQ/SPO_F-NL00245_00008_100_100'
p2850
(dp2851
g36
(lp2852
sg38
(lp2853
S'4.623598000000001 51.69938903767535 1.0'
p2854
aS'http://www.opengis.net/def/crs/EPSG/0/4326'
p2855
assS'NL.RIVM.AQ/SPO_F-NL00548_00038_100_100'
p2856
(dp2857
g36
(lp2858
sg38
(lp2859
S'5.1758299999999995 52.26798003711595 1.0'
p2860
aS'http://www.opengis.net/def/crs/EPSG/0/4326'
p2861
assS'NL.RIVM.AQ/SPO_F-NL00437_00009_101_102'
p2862
(dp2863
g36
(lp2864
sg38
(lp2865
S'4.450529000000001 51.78657903759214 -1.0'
p2866
aS'http://www.opengis.net/def/crs/EPSG/0/4326'
p2867
assS'NL.RIVM.AQ/SPO_F-NL00235_00008_101_102'
p2868
(dp2869
g36
(lp2870
S'NL.RIVM.AQ/STA-NL00235/8'
p2871
asg38
(lp2872
S'4.359835 51.43444303792239 18.0'
p2873
aS'http://www.opengis.net/def/crs/EPSG/0/4326'
p2874
assS'NL.RIVM.AQ/SPO_F-NL00703_00020_100_100'
p2875
(dp2876
g36
(lp2877
sg38
(lp2878
S'4.728581 52.39843703698208 1.0'
p2879
aS'http://www.opengis.net/def/crs/EPSG/0/4326'
p2880
assS'NL.RIVM.AQ/SPO_F-NL00404_00009_101_102'
p2881
(dp2882
g36
(lp2883
sg38
(lp2884
S'4.289185000000001 52.07714803730809 2.0'
p2885
aS'http://www.opengis.net/def/crs/EPSG/0/4326'
p2886
assS'NL.RIVM.AQ/SPO_F-NL00418_06001_100_101'
p2887
(dp2888
g36
(lp2889
S'NL.RIVM.AQ/STA-NL00418/6001'
p2890
asg38
(lp2891
S'4.479923 51.914233037468634 3.0'
p2892
aS'http://www.opengis.net/def/crs/EPSG/0/4326'
p2893
assS'NL.RIVM.AQ/SPO_F-NL00538_00038_111_112'
p2894
(dp2895
g36
(lp2896
S'NL.RIVM.AQ/STA-NL00538/38'
p2897
asg38
(lp2898
S'5.050509 52.803657036553524 -4.0'
p2899
aS'http://www.opengis.net/def/crs/EPSG/0/4326'
p2900
assS'NL.RIVM.AQ/SPO_F-NL00546_00038_100_100'
p2901
(dp2902
g36
(lp2903
sg38
(lp2904
S'4.83206 52.420230036959516 1.0'
p2905
aS'http://www.opengis.net/def/crs/EPSG/0/4326'
p2906
assS'NL.RIVM.AQ/SPO_F-NL00738_00007_100_101'
p2907
(dp2908
g36
(lp2909
S'NL.RIVM.AQ/STA-NL00738/7'
p2910
asg38
(lp2911
S'5.708418999999999 52.111621037273686 18.0'
p2912
aS'http://www.opengis.net/def/crs/EPSG/0/4326'
p2913
assS'NL.RIVM.AQ/SPO_F-NL00701_00005_101_101'
p2914
(dp2915
g36
(lp2916
sg38
(lp2917
S'4.816706000000001 52.44801103693068 1.0'
p2918
aS'http://www.opengis.net/def/crs/EPSG/0/4326'
p2919
assS'NL.RIVM.AQ/SPO_F-NL00742_00009_100_101'
p2920
(dp2921
g36
(lp2922
sg38
(lp2923
S'5.856938 51.83822103754241 30.0'
p2924
aS'http://www.opengis.net/def/crs/EPSG/0/4326'
p2925
assS'NL.RIVM.AQ/SPO_F-NL00020_00009_101_101'
p2926
(dp2927
g36
(lp2928
sg38
(lp2929
S'4.860319 52.3747860370065 4.0'
p2930
aS'http://www.opengis.net/def/crs/EPSG/0/4326'
p2931
assS'NL.RIVM.AQ/SPO_F-NL00572_06001_100_100'
p2932
(dp2933
g36
(lp2934
sg38
(lp2935
S'4.628799999999999 52.47440003690322 1.0'
p2936
aS'http://www.opengis.net/def/crs/EPSG/0/4326'
p2937
assS'NL.RIVM.AQ/SPO_F-NL00704_00008_100_100'
p2938
(dp2939
g36
(lp2940
sg38
(lp2941
S'4.773478 52.428017036951445 4.0'
p2942
aS'http://www.opengis.net/def/crs/EPSG/0/4326'
p2943
assS'NL.RIVM.AQ/SPO_F-NL00929_00046_101_101'
p2944
(dp2945
g36
(lp2946
sg38
(lp2947
S'6.932432000000001 52.87572503647533 10.0'
p2948
aS'http://www.opengis.net/def/crs/EPSG/0/4326'
p2949
assS'NL.RIVM.AQ/SPO_F-NL00938_00009_100_101'
p2950
(dp2951
g36
(lp2952
sg38
(lp2953
S'6.608937 53.2465350360636 -1.0'
p2954
aS'http://www.opengis.net/def/crs/EPSG/0/4326'
p2955
assS'NL.RIVM.AQ/SPO_F-NL00565_00038_100_100'
p2956
(dp2957
g36
(lp2958
sg38
(lp2959
S'4.715008000000001 52.32746403705515 1.0'
p2960
aS'http://www.opengis.net/def/crs/EPSG/0/4326'
p2961
assS'NL.RIVM.AQ/SPO_F-NL00485_00001_100_100'
p2962
(dp2963
g36
(lp2964
sg38
(lp2965
S'4.355241999999999 51.867411037514145 1.0'
p2966
aS'http://www.opengis.net/def/crs/EPSG/0/4326'
p2967
assS'NL.RIVM.AQ/SPO_F-NL00553_00005_100_100'
p2968
(dp2969
g36
(lp2970
sg38
(lp2971
S'4.601986000000001 52.49399203688275 7.0'
p2972
aS'http://www.opengis.net/def/crs/EPSG/0/4326'
p2973
assS'NL.RIVM.AQ/SPO_F-NL00017_06001_100_100'
p2974
(dp2975
g36
(lp2976
sg38
(lp2977
S'4.8997 52.358039037023744 4.0'
p2978
aS'http://www.opengis.net/def/crs/EPSG/0/4326'
p2979
assS'NL.RIVM.AQ/SPO_F-NL00641_00009_100_101'
p2980
(dp2981
g36
(lp2982
sg38
(lp2983
S'4.987444000000001 52.20153003718333 -1.0'
p2984
aS'http://www.opengis.net/def/crs/EPSG/0/4326'
p2985
assS'NL.RIVM.AQ/SPO_F-NL00404_00008_111_112'
p2986
(dp2987
g36
(lp2988
S'NL.RIVM.AQ/STA-NL00404/8'
p2989
asg38
(lp2990
S'4.289185000000001 52.07714803730809 2.0'
p2991
aS'http://www.opengis.net/def/crs/EPSG/0/4326'
p2992
assS'NL.RIVM.AQ/SPO_F-NL00444_00001_100_100'
p2993
(dp2994
g36
(lp2995
S'NL.RIVM.AQ/STA-NL00444/1'
p2996
asg38
(lp2997
S'4.510817 52.2965560370868 4.0'
p2998
aS'http://www.opengis.net/def/crs/EPSG/0/4326'
p2999
assS'NL.RIVM.AQ/SPO_F-NL00404_00038_111_112'
p3000
(dp3001
g36
(lp3002
S'NL.RIVM.AQ/STA-NL00404/38'
p3003
asg38
(lp3004
S'4.289185000000001 52.07714803730809 2.0'
p3005
aS'http://www.opengis.net/def/crs/EPSG/0/4326'
p3006
assS'NL.RIVM.AQ/SPO_F-NL00446_00008_100_100'
p3007
(dp3008
g36
(lp3009
S'NL.RIVM.AQ/STA-NL00446/8'
p3010
asg38
(lp3011
S'4.359376000000001 52.03902303734593 -2.0'
p3012
aS'http://www.opengis.net/def/crs/EPSG/0/4326'
p3013
assS'NL.RIVM.AQ/SPO_F-NL00934_00668_100_100'
p3014
(dp3015
g36
(lp3016
sg38
(lp3017
S'6.276815 53.330425035968325 1.0'
p3018
aS'http://www.opengis.net/def/crs/EPSG/0/4326'
p3019
assS'NL.RIVM.AQ/SPO_F-NL00487_00038_100_100'
p3020
(dp3021
g36
(lp3022
sg38
(lp3023
S'4.480690000000001 51.89114703749109 0.0'
p3024
aS'http://www.opengis.net/def/crs/EPSG/0/4326'
p3025
assS'NL.RIVM.AQ/SPO_F-NL00538_00046_101_101'
p3026
(dp3027
g36
(lp3028
sg38
(lp3029
S'5.050509 52.803657036553524 -4.0'
p3030
aS'http://www.opengis.net/def/crs/EPSG/0/4326'
p3031
assS'NL.RIVM.AQ/SPO_F-NL00553_06001_100_100'
p3032
(dp3033
g36
(lp3034
sg38
(lp3035
S'4.601986000000001 52.49399203688275 7.0'
p3036
aS'http://www.opengis.net/def/crs/EPSG/0/4326'
p3037
assS'NL.RIVM.AQ/SPO_F-NL00007_00010_100_100'
p3038
(dp3039
g36
(lp3040
sg38
(lp3041
S'4.845233 52.381331036999754 2.0'
p3042
aS'http://www.opengis.net/def/crs/EPSG/0/4326'
p3043
assS'NL.RIVM.AQ/SPO_F-NL00133_00008_101_102'
p3044
(dp3045
g36
(lp3046
S'NL.RIVM.AQ/STA-NL00133/8'
p3047
asg38
(lp3048
S'5.881748000000001 50.902281038391635 96.0'
p3049
aS'http://www.opengis.net/def/crs/EPSG/0/4326'
p3050
assS'NL.RIVM.AQ/SPO_F-NL00136_00005_100_101'
p3051
(dp3052
g36
(lp3053
S'NL.RIVM.AQ/STA-NL00136/5'
p3054
asg38
(lp3055
S'5.970496 50.88795903840375 100.0'
p3056
aS'http://www.opengis.net/def/crs/EPSG/0/4326'
p3057
assS'NL.RIVM.AQ/SPO_F-NL00644_00005_100_100'
p3058
(dp3059
g36
(lp3060
S'NL.RIVM.AQ/STA-NL00644/5'
p3061
asg38
(lp3062
S'4.923301 51.97448903740961 1.0'
p3063
aS'http://www.opengis.net/def/crs/EPSG/0/4326'
p3064
assS'NL.RIVM.AQ/SPO_F-NL00551_06001_100_100'
p3065
(dp3066
g36
(lp3067
sg38
(lp3068
S'4.6018419999999995 52.46303903691505 1.0'
p3069
aS'http://www.opengis.net/def/crs/EPSG/0/4326'
p3070
assS'NL.RIVM.AQ/SPO_F-NL00934_00018_101_101'
p3071
(dp3072
g36
(lp3073
sg38
(lp3074
S'6.276815 53.330425035968325 1.0'
p3075
aS'http://www.opengis.net/def/crs/EPSG/0/4326'
p3076
assS'NL.RIVM.AQ/SPO_F-NL00701_00008_100_100'
p3077
(dp3078
g36
(lp3079
sg38
(lp3080
S'4.816706000000001 52.44801103693068 1.0'
p3081
aS'http://www.opengis.net/def/crs/EPSG/0/4326'
p3082
assS'NL.RIVM.AQ/SPO_F-NL00246_00038_100_100'
p3083
(dp3084
g36
(lp3085
S'NL.RIVM.AQ/STA-NL00246/38'
p3086
asg38
(lp3087
S'4.515271 51.65372903771855 1.0'
p3088
aS'http://www.opengis.net/def/crs/EPSG/0/4326'
p3089
assS'NL.RIVM.AQ/SPO_F-NL00918_00005_100_101'
p3090
(dp3091
g36
(lp3092
S'NL.RIVM.AQ/STA-NL00918/5'
p3093
asg38
(lp3094
S'5.573491569999999 52.91691592643034 1.0'
p3095
aS'http://www.opengis.net/def/crs/EPSG/0/4326'
p3096
assS'NL.RIVM.AQ/SPO_F-NL00627_00018_101_101'
p3097
(dp3098
g36
(lp3099
sg38
(lp3100
S'5.195567 52.12083303726448 3.0'
p3101
aS'http://www.opengis.net/def/crs/EPSG/0/4326'
p3102
assS'NL.RIVM.AQ/SPO_F-NL00247_00005_100_100'
p3103
(dp3104
g36
(lp3105
S'NL.RIVM.AQ/STA-NL00247/5'
p3106
asg38
(lp3107
S'5.3933279999999995 51.40736503794714 22.0'
p3108
aS'http://www.opengis.net/def/crs/EPSG/0/4326'
p3109
assS'NL.RIVM.AQ/SPO_F-NL00445_00009_100_101'
p3110
(dp3111
g36
(lp3112
sg38
(lp3113
S'4.315872 52.075071037310146 4.0'
p3114
aS'http://www.opengis.net/def/crs/EPSG/0/4326'
p3115
assS'NL.RIVM.AQ/SPO_F-NL00551_00001_100_100'
p3116
(dp3117
g36
(lp3118
sg38
(lp3119
S'4.6018419999999995 52.46303903691505 1.0'
p3120
aS'http://www.opengis.net/def/crs/EPSG/0/4326'
p3121
assS'NL.RIVM.AQ/SPO_F-NL00728_00005_101_101'
p3122
(dp3123
g36
(lp3124
sg38
(lp3125
S'5.966719 52.213965037170766 11.0'
p3126
aS'http://www.opengis.net/def/crs/EPSG/0/4326'
p3127
assS'NL.RIVM.AQ/SPO_F-NL00549_00008_100_100'
p3128
(dp3129
g36
(lp3130
S'NL.RIVM.AQ/STA-NL00549/8'
p3131
asg38
(lp3132
S'5.235903 52.257356037126755 1.0'
p3133
aS'http://www.opengis.net/def/crs/EPSG/0/4326'
p3134
assS'NL.RIVM.AQ/SPO_F-NL00241_00006_100_100'
p3135
(dp3136
g36
(lp3137
sg38
(lp3138
S'4.781016000000001 51.60308003776617 1.0'
p3139
aS'http://www.opengis.net/def/crs/EPSG/0/4326'
p3140
assS'NL.RIVM.AQ/SPO_F-NL00488_00005_100_100'
p3141
(dp3142
g36
(lp3143
sg38
(lp3144
S'4.487528 51.893617037488696 0.0'
p3145
aS'http://www.opengis.net/def/crs/EPSG/0/4326'
p3146
assS'NL.RIVM.AQ/SPO_F-NL00641_00008_100_101'
p3147
(dp3148
g36
(lp3149
S'NL.RIVM.AQ/STA-NL00641/8'
p3150
asg38
(lp3151
S'4.987444000000001 52.20153003718333 -1.0'
p3152
aS'http://www.opengis.net/def/crs/EPSG/0/4326'
p3153
assS'NL.RIVM.AQ/SPO_F-NL00570_00005_100_100'
p3154
(dp3155
g36
(lp3156
sg38
(lp3157
S'4.640531 52.48930303688765 1.0'
p3158
aS'http://www.opengis.net/def/crs/EPSG/0/4326'
p3159
assS'NL.RIVM.AQ/SPO_F-NL00442_00009_100_100'
p3160
(dp3161
g36
(lp3162
sg38
(lp3163
S'4.708238999999999 51.80065803757861 1.0'
p3164
aS'http://www.opengis.net/def/crs/EPSG/0/4326'
p3165
assS'NL.RIVM.AQ/SPO_F-NL00107_00008_101_102'
p3166
(dp3167
g36
(lp3168
S'NL.RIVM.AQ/STA-NL00107/8'
p3169
asg38
(lp3170
S'6.0423990000000005 51.11919403820476 32.0'
p3171
aS'http://www.opengis.net/def/crs/EPSG/0/4326'
p3172
assS'NL.RIVM.AQ/SPO_F-NL00636_00005_100_101'
p3173
(dp3174
g36
(lp3175
S'NL.RIVM.AQ/STA-NL00636/5'
p3176
asg38
(lp3177
S'5.124464 52.105031037280284 1.0'
p3178
aS'http://www.opengis.net/def/crs/EPSG/0/4326'
p3179
assS'NL.RIVM.AQ/SPO_F-NL00138_00005_100_100'
p3180
(dp3181
g36
(lp3182
S'NL.RIVM.AQ/STA-NL00138/5'
p3183
asg38
(lp3184
S'5.986853 50.90031703839329 98.0'
p3185
aS'http://www.opengis.net/def/crs/EPSG/0/4326'
p3186
assS'NL.RIVM.AQ/SPO_F-NL00701_06001_101_101'
p3187
(dp3188
g36
(lp3189
sg38
(lp3190
S'4.816706000000001 52.44801103693068 1.0'
p3191
aS'http://www.opengis.net/def/crs/EPSG/0/4326'
p3192
assS'NL.RIVM.AQ/SPO_F-NL00493_00009_100_100'
p3193
(dp3194
g36
(lp3195
sg38
(lp3196
S'4.461344 51.92711103745604 0.0'
p3197
aS'http://www.opengis.net/def/crs/EPSG/0/4326'
p3198
assS'NL.RIVM.AQ/SPO_F-NL00644_00001_100_100'
p3199
(dp3200
g36
(lp3201
S'NL.RIVM.AQ/STA-NL00644/1'
p3202
asg38
(lp3203
S'4.923301 51.97448903740961 1.0'
p3204
aS'http://www.opengis.net/def/crs/EPSG/0/4326'
p3205
assS'NL.RIVM.AQ/SPO_F-NL00493_00005_100_100'
p3206
(dp3207
g36
(lp3208
sg38
(lp3209
S'4.461344 51.92711103745604 0.0'
p3210
aS'http://www.opengis.net/def/crs/EPSG/0/4326'
p3211
assS'NL.RIVM.AQ/SPO_F-NL00230_00007_101_102'
p3212
(dp3213
g36
(lp3214
S'NL.RIVM.AQ/STA-NL00230/7'
p3215
asg38
(lp3216
S'5.1484499999999995 51.518440037845004 15.0'
p3217
aS'http://www.opengis.net/def/crs/EPSG/0/4326'
p3218
assS'NL.RIVM.AQ/SPO_F-NL00565_00009_100_100'
p3219
(dp3220
g36
(lp3221
sg38
(lp3222
S'4.715008000000001 52.32746403705515 1.0'
p3223
aS'http://www.opengis.net/def/crs/EPSG/0/4326'
p3224
assS'NL.RIVM.AQ/SPO_F-NL00485_00020_100_100'
p3225
(dp3226
g36
(lp3227
sg38
(lp3228
S'4.355241999999999 51.867411037514145 1.0'
p3229
aS'http://www.opengis.net/def/crs/EPSG/0/4326'
p3230
assS'NL.RIVM.AQ/SPO_F-NL00318_00038_111_112'
p3231
(dp3232
g36
(lp3233
S'NL.RIVM.AQ/STA-NL00318/38'
p3234
asg38
(lp3235
S'3.749483999999999 51.294498038049305 5.0'
p3236
aS'http://www.opengis.net/def/crs/EPSG/0/4326'
p3237
assS'NL.RIVM.AQ/SPO_F-NL00446_00005_100_101'
p3238
(dp3239
g36
(lp3240
S'NL.RIVM.AQ/STA-NL00446/5'
p3241
asg38
(lp3242
S'4.359376000000001 52.03902303734593 -2.0'
p3243
aS'http://www.opengis.net/def/crs/EPSG/0/4326'
p3244
assS'NL.RIVM.AQ/SPO_F-NL00934_00063_101_101'
p3245
(dp3246
g36
(lp3247
sg38
(lp3248
S'6.276815 53.330425035968325 1.0'
p3249
aS'http://www.opengis.net/def/crs/EPSG/0/4326'
p3250
assS'NL.RIVM.AQ/SPO_F-NL00644_00007_100_100'
p3251
(dp3252
g36
(lp3253
S'NL.RIVM.AQ/STA-NL00644/7'
p3254
asg38
(lp3255
S'4.923301 51.97448903740961 1.0'
p3256
aS'http://www.opengis.net/def/crs/EPSG/0/4326'
p3257
assS'NL.RIVM.AQ/SPO_F-NL00496_00005_100_100'
p3258
(dp3259
g36
(lp3260
sg38
(lp3261
S'4.121944000000001 51.97780303740636 0.0'
p3262
aS'http://www.opengis.net/def/crs/EPSG/0/4326'
p3263
assS'NL.RIVM.AQ/SPO_F-NL00016_06001_100_100'
p3264
(dp3265
g36
(lp3266
sg38
(lp3267
S'4.870157000000001 52.39397203698668 3.0'
p3268
aS'http://www.opengis.net/def/crs/EPSG/0/4326'
p3269
assS'NL.RIVM.AQ/SPO_F-NL00633_00008_101_102'
p3270
(dp3271
g36
(lp3272
S'NL.RIVM.AQ/STA-NL00633/8'
p3273
asg38
(lp3274
S'4.83819 52.13795003724734 -2.0'
p3275
aS'http://www.opengis.net/def/crs/EPSG/0/4326'
p3276
assS'NL.RIVM.AQ/SPO_F-NL00644_00008_100_100'
p3277
(dp3278
g36
(lp3279
S'NL.RIVM.AQ/STA-NL00644/8'
p3280
asg38
(lp3281
S'4.923301 51.97448903740961 1.0'
p3282
aS'http://www.opengis.net/def/crs/EPSG/0/4326'
p3283
assS'NL.RIVM.AQ/SPO_F-NL00564_00005_100_100'
p3284
(dp3285
g36
(lp3286
sg38
(lp3287
S'4.766614000000001 52.28745003709609 1.0'
p3288
aS'http://www.opengis.net/def/crs/EPSG/0/4326'
p3289
assS'NL.RIVM.AQ/SPO_F-NL00636_00009_101_102'
p3290
(dp3291
g36
(lp3292
sg38
(lp3293
S'5.124464 52.105031037280284 1.0'
p3294
aS'http://www.opengis.net/def/crs/EPSG/0/4326'
p3295
assS'NL.RIVM.AQ/SPO_F-NL00570_06001_100_100'
p3296
(dp3297
g36
(lp3298
sg38
(lp3299
S'4.640531 52.48930303688765 1.0'
p3300
aS'http://www.opengis.net/def/crs/EPSG/0/4326'
p3301
assS'NL.RIVM.AQ/SPO_F-NL00639_00007_101_102'
p3302
(dp3303
g36
(lp3304
S'NL.RIVM.AQ/STA-NL00639/7'
p3305
asg38
(lp3306
S'5.120507000000001 52.06774803731743 1.0'
p3307
aS'http://www.opengis.net/def/crs/EPSG/0/4326'
p3308
assS'NL.RIVM.AQ/SPO_F-NL00489_00007_100_100'
p3309
(dp3310
g36
(lp3311
sg38
(lp3312
S'4.580058 51.869431037512186 0.0'
p3313
aS'http://www.opengis.net/def/crs/EPSG/0/4326'
p3314
asssS'procedure'
p3315
(dp3316
S'NL.RIVM.AQ/SPP-NL_A_chemi_D9038'
p3317
(dp3318
S'http://dd.eionet.europa.eu/vocabulary/aq/pollutant/38'
p3319
(dp3320
g36
(lp3321
g2156
ag1794
ag119
asS'FOI'
p3322
g7
((lp3323
S'NL.RIVM.AQ/SPO_F-NL00643_00038_100_100'
p3324
aS'NL.RIVM.AQ/SPO_F-NL00446_00038_100_100'
p3325
aS'NL.RIVM.AQ/SPO_F-NL00240_00038_100_100'
p3326
atRp3327
ssS'http://dd.eionet.europa.eu/vocabulary/aq/pollutant/9'
p3328
(dp3329
g36
(lp3330
S'NL.RIVM.AQ/STA-NL00240/9'
p3331
aS'NL.RIVM.AQ/STA-NL00446/9'
p3332
asg3322
g7
((ltRp3333
ssS'http://dd.eionet.europa.eu/vocabulary/aq/pollutant/8'
p3334
(dp3335
g36
(lp3336
g65
ag3010
ag2595
asg3322
g7
((lp3337
S'NL.RIVM.AQ/SPO_F-NL00446_00008_100_100'
p3338
aS'NL.RIVM.AQ/SPO_F-NL00240_00008_100_100'
p3339
aS'NL.RIVM.AQ/SPO_F-NL00643_00008_100_100'
p3340
atRp3341
sssS'NL.RIVM.AQ/SPP-NL_A_chemi_thermo42i'
p3342
(dp3343
S'http://dd.eionet.europa.eu/vocabulary/aq/pollutant/38'
p3344
(dp3345
g36
(lp3346
S'NL.RIVM.AQ/STA-NL00014/38'
p3347
aS'NL.RIVM.AQ/STA-NL00019/38'
p3348
aS'NL.RIVM.AQ/STA-NL00020/38'
p3349
aS'NL.RIVM.AQ/STA-NL00021/38'
p3350
aS'NL.RIVM.AQ/STA-NL00022/38'
p3351
aS'NL.RIVM.AQ/STA-NL00701/38'
p3352
asg3322
g7
((ltRp3353
ssS'http://dd.eionet.europa.eu/vocabulary/aq/pollutant/9'
p3354
(dp3355
g36
(lp3356
S'NL.RIVM.AQ/STA-NL00014/9'
p3357
aS'NL.RIVM.AQ/STA-NL00019/9'
p3358
aS'NL.RIVM.AQ/STA-NL00020/9'
p3359
aS'NL.RIVM.AQ/STA-NL00021/9'
p3360
aS'NL.RIVM.AQ/STA-NL00022/9'
p3361
aS'NL.RIVM.AQ/STA-NL00701/9'
p3362
asg3322
g7
((ltRp3363
ssS'http://dd.eionet.europa.eu/vocabulary/aq/pollutant/8'
p3364
(dp3365
g36
(lp3366
S'NL.RIVM.AQ/STA-NL00014/8'
p3367
aS'NL.RIVM.AQ/STA-NL00019/8'
p3368
aS'NL.RIVM.AQ/STA-NL00020/8'
p3369
aS'NL.RIVM.AQ/STA-NL00021/8'
p3370
aS'NL.RIVM.AQ/STA-NL00022/8'
p3371
aS'NL.RIVM.AQ/STA-NL00701/8'
p3372
asg3322
g7
((ltRp3373
sssS'NL.RIVM.AQ/SPP-NL_N_ICP-MS_leckelSEQ47-50'
p3374
(dp3375
S'http://dd.eionet.europa.eu/vocabulary/aq/pollutant/659'
p3376
(dp3377
g36
(lp3378
S'NL.RIVM.AQ/STA-NL00131/659'
p3379
aS'NL.RIVM.AQ/STA-NL00433/659'
p3380
aS'NL.RIVM.AQ/STA-NL00627/659'
p3381
aS'NL.RIVM.AQ/STA-NL00934/659'
p3382
asg3322
g7
((ltRp3383
ssS'http://dd.eionet.europa.eu/vocabulary/aq/pollutant/18'
p3384
(dp3385
g36
(lp3386
S'NL.RIVM.AQ/STA-NL00131/18'
p3387
aS'NL.RIVM.AQ/STA-NL00433/18'
p3388
aS'NL.RIVM.AQ/STA-NL00627/18'
p3389
aS'NL.RIVM.AQ/STA-NL00934/18'
p3390
asg3322
g7
((ltRp3391
ssS'http://dd.eionet.europa.eu/vocabulary/aq/pollutant/668'
p3392
(dp3393
g36
(lp3394
S'NL.RIVM.AQ/STA-NL00131/668'
p3395
aS'NL.RIVM.AQ/STA-NL00433/668'
p3396
aS'NL.RIVM.AQ/STA-NL00627/668'
p3397
aS'NL.RIVM.AQ/STA-NL00934/668'
p3398
asg3322
g7
((ltRp3399
ssS'http://dd.eionet.europa.eu/vocabulary/aq/pollutant/15'
p3400
(dp3401
g36
(lp3402
S'NL.RIVM.AQ/STA-NL00131/15'
p3403
aS'NL.RIVM.AQ/STA-NL00433/15'
p3404
aS'NL.RIVM.AQ/STA-NL00627/15'
p3405
aS'NL.RIVM.AQ/STA-NL00934/15'
p3406
asg3322
g7
((ltRp3407
ssS'http://dd.eionet.europa.eu/vocabulary/aq/pollutant/14'
p3408
(dp3409
g36
(lp3410
S'NL.RIVM.AQ/STA-NL00131/14'
p3411
aS'NL.RIVM.AQ/STA-NL00433/14'
p3412
aS'NL.RIVM.AQ/STA-NL00627/14'
p3413
aS'NL.RIVM.AQ/STA-NL00934/14'
p3414
asg3322
g7
((ltRp3415
ssS'http://dd.eionet.europa.eu/vocabulary/aq/pollutant/12'
p3416
(dp3417
g36
(lp3418
S'NL.RIVM.AQ/STA-NL00131/12'
p3419
aS'NL.RIVM.AQ/STA-NL00433/12'
p3420
aS'NL.RIVM.AQ/STA-NL00627/12'
p3421
aS'NL.RIVM.AQ/STA-NL00934/12'
p3422
asg3322
g7
((ltRp3423
ssS'http://dd.eionet.europa.eu/vocabulary/aq/pollutant/629'
p3424
(dp3425
g36
(lp3426
S'NL.RIVM.AQ/STA-NL00131/629'
p3427
aS'NL.RIVM.AQ/STA-NL00433/629'
p3428
aS'NL.RIVM.AQ/STA-NL00627/629'
p3429
aS'NL.RIVM.AQ/STA-NL00934/629'
p3430
asg3322
g7
((ltRp3431
ssS'http://dd.eionet.europa.eu/vocabulary/aq/pollutant/63'
p3432
(dp3433
g36
(lp3434
S'NL.RIVM.AQ/STA-NL00131/63'
p3435
aS'NL.RIVM.AQ/STA-NL00433/63'
p3436
aS'NL.RIVM.AQ/STA-NL00627/63'
p3437
aS'NL.RIVM.AQ/STA-NL00934/63'
p3438
asg3322
g7
((ltRp3439
sssS'NL.RIVM.AQ/SPP-NL_N_01466chrompackVOC-AIR'
p3440
(dp3441
S'http://dd.eionet.europa.eu/vocabulary/aq/pollutant/20'
p3442
(dp3443
g36
(lp3444
S'NL.RIVM.AQ/STA-NL00495/20'
p3445
asg3322
g7
((ltRp3446
ssS'http://dd.eionet.europa.eu/vocabulary/aq/pollutant/21'
p3447
(dp3448
g36
(lp3449
S'NL.RIVM.AQ/STA-NL00495/21'
p3450
asg3322
g7
((ltRp3451
sssS'NL.RIVM.AQ/SPP-NL_A_UV-FL_thermo43i'
p3452
(dp3453
S'http://dd.eionet.europa.eu/vocabulary/aq/pollutant/1'
p3454
(dp3455
g36
(lp3456
S'NL.RIVM.AQ/STA-NL00016/1'
p3457
aS'NL.RIVM.AQ/STA-NL00551/1'
p3458
aS'NL.RIVM.AQ/STA-NL00553/1'
p3459
aS'NL.RIVM.AQ/STA-NL00704/1'
p3460
asg3322
g7
((ltRp3461
sssS'NL.RIVM.AQ/SPP-NL_A_UV-P_thermo49c'
p3462
(dp3463
S'http://dd.eionet.europa.eu/vocabulary/aq/pollutant/7'
p3464
(dp3465
g36
(lp3466
S'NL.RIVM.AQ/STA-NL00485/7'
p3467
aS'NL.RIVM.AQ/STA-NL00489/7'
p3468
aS'NL.RIVM.AQ/STA-NL00493/7'
p3469
aS'NL.RIVM.AQ/STA-NL00494/7'
p3470
aS'NL.RIVM.AQ/STA-NL00495/7'
p3471
aS'NL.RIVM.AQ/STA-NL00496/7'
p3472
asg3322
g7
((ltRp3473
sssS'NL.RIVM.AQ/SPP-NL_A_UV-P_thermo49i'
p3474
(dp3475
S'http://dd.eionet.europa.eu/vocabulary/aq/pollutant/7'
p3476
(dp3477
g36
(lp3478
S'NL.RIVM.AQ/STA-NL00003/7'
p3479
aS'NL.RIVM.AQ/STA-NL00012/7'
p3480
aS'NL.RIVM.AQ/STA-NL00014/7'
p3481
ag138
ag2776
ag2015
aS'NL.RIVM.AQ/STA-NL00137/7'
p3482
ag3215
ag163
ag278
ag793
ag1321
ag2795
ag1832
ag1069
ag2327
ag658
ag2569
ag998
ag1023
aS'NL.RIVM.AQ/STA-NL00537/7'
p3483
ag953
aS'NL.RIVM.AQ/STA-NL00564/7'
p3484
ag112
ag756
ag3305
ag1565
ag1266
aS'NL.RIVM.AQ/STA-NL00701/7'
p3485
ag1558
ag2910
ag1781
ag201
ag1062
ag92
ag2125
ag645
ag2226
asg3322
g7
((lp3486
S'NL.RIVM.AQ/SPO_F-NL00538_00007_111_112'
p3487
aS'NL.RIVM.AQ/SPO_F-NL00738_00007_100_101'
p3488
aS'NL.RIVM.AQ/SPO_F-NL00742_00007_100_101'
p3489
aS'NL.RIVM.AQ/SPO_F-NL00236_00007_101_102'
p3490
aS'NL.RIVM.AQ/SPO_F-NL00241_00007_100_101'
p3491
aS'NL.RIVM.AQ/SPO_F-NL00818_00007_100_101'
p3492
aS'NL.RIVM.AQ/SPO_F-NL00918_00007_101_102'
p3493
aS'NL.RIVM.AQ/SPO_F-NL00938_00007_100_101'
p3494
aS'NL.RIVM.AQ/SPO_F-NL00722_00007_111_112'
p3495
aS'NL.RIVM.AQ/SPO_F-NL00247_00007_100_100'
p3496
aS'NL.RIVM.AQ/SPO_F-NL00444_00007_100_101'
p3497
aS'NL.RIVM.AQ/SPO_F-NL00934_00007_111_112'
p3498
aS'NL.RIVM.AQ/SPO_F-NL00631_00007_111_112'
p3499
aS'NL.RIVM.AQ/SPO_F-NL00433_00007_101_102'
p3500
aS'NL.RIVM.AQ/SPO_F-NL00107_00007_101_102'
p3501
aS'NL.RIVM.AQ/SPO_F-NL00133_00007_111_112'
p3502
aS'NL.RIVM.AQ/SPO_F-NL00442_00007_100_100'
p3503
aS'NL.RIVM.AQ/SPO_F-NL00404_00007_111_112'
p3504
aS'NL.RIVM.AQ/SPO_F-NL00641_00007_100_101'
p3505
aS'NL.RIVM.AQ/SPO_F-NL00131_00007_111_112'
p3506
aS'NL.RIVM.AQ/SPO_F-NL00235_00007_111_112'
p3507
aS'NL.RIVM.AQ/SPO_F-NL00301_00007_101_102'
p3508
aS'NL.RIVM.AQ/SPO_F-NL00318_00007_111_112'
p3509
aS'NL.RIVM.AQ/SPO_F-NL00643_00007_100_100'
p3510
aS'NL.RIVM.AQ/SPO_F-NL00230_00007_101_102'
p3511
aS'NL.RIVM.AQ/SPO_F-NL00807_00007_101_102'
p3512
aS'NL.RIVM.AQ/SPO_F-NL00418_00007_120_121'
p3513
aS'NL.RIVM.AQ/SPO_F-NL00437_00007_101_102'
p3514
aS'NL.RIVM.AQ/SPO_F-NL00929_00007_100_101'
p3515
aS'NL.RIVM.AQ/SPO_F-NL00633_00007_111_112'
p3516
aS'NL.RIVM.AQ/SPO_F-NL00639_00007_101_102'
p3517
atRp3518
sssS'NL.RIVM.AQ/SPP-NL_A_D9042D9042'
p3519
(dp3520
S'http://dd.eionet.europa.eu/vocabulary/aq/pollutant/20'
p3521
(dp3522
g36
(lp3523
S'NL.RIVM.AQ/STA-NL00017/20'
p3524
aS'NL.RIVM.AQ/STA-NL00703/20'
p3525
aS'NL.RIVM.AQ/STA-NL00704/20'
p3526
asg3322
g7
((ltRp3527
ssS'http://dd.eionet.europa.eu/vocabulary/aq/pollutant/21'
p3528
(dp3529
g36
(lp3530
S'NL.RIVM.AQ/STA-NL00017/21'
p3531
aS'NL.RIVM.AQ/STA-NL00703/21'
p3532
aS'NL.RIVM.AQ/STA-NL00704/21'
p3533
asg3322
g7
((ltRp3534
sssS'NL.RIVM.AQ/SPP-NL_A_UV-P_thermo49w'
p3535
(dp3536
S'http://dd.eionet.europa.eu/vocabulary/aq/pollutant/7'
p3537
(dp3538
g36
(lp3539
g3254
asg3322
g7
((lp3540
S'NL.RIVM.AQ/SPO_F-NL00644_00007_100_100'
p3541
atRp3542
sssS'NL.RIVM.AQ/SPP-NL_A_chemi_API200E'
p3543
(dp3544
S'http://dd.eionet.europa.eu/vocabulary/aq/pollutant/38'
p3545
(dp3546
g36
(lp3547
g444
ag1403
ag563
ag1049
aS'NL.RIVM.AQ/STA-NL00137/38'
p3548
ag245
ag1234
ag1611
ag1506
ag431
aS'NL.RIVM.AQ/STA-NL00245/38'
p3549
ag3086
ag2648
ag883
ag3234
ag3003
ag348
ag2042
ag1813
ag2602
ag399
ag45
aS'NL.RIVM.AQ/STA-NL00485/38'
p3550
aS'NL.RIVM.AQ/STA-NL00486/38'
p3551
aS'NL.RIVM.AQ/STA-NL00487/38'
p3552
aS'NL.RIVM.AQ/STA-NL00488/38'
p3553
aS'NL.RIVM.AQ/STA-NL00489/38'
p3554
aS'NL.RIVM.AQ/STA-NL00491/38'
p3555
aS'NL.RIVM.AQ/STA-NL00493/38'
p3556
aS'NL.RIVM.AQ/STA-NL00494/38'
p3557
aS'NL.RIVM.AQ/STA-NL00495/38'
p3558
aS'NL.RIVM.AQ/STA-NL00496/38'
p3559
aS'NL.RIVM.AQ/STA-NL00537/38'
p3560
ag2897
ag2118
aS'NL.RIVM.AQ/STA-NL00548/38'
p3561
ag2207
ag328
ag2372
ag2055
ag341
ag1377
ag2699
ag2468
ag214
ag921
ag1241
ag1876
ag2194
ag1526
ag2035
ag1410
ag85
ag2769
asg3322
g7
((lp3562
S'NL.RIVM.AQ/SPO_F-NL00246_00038_100_100'
p3563
aS'NL.RIVM.AQ/SPO_F-NL00442_00038_100_100'
p3564
aS'NL.RIVM.AQ/SPO_F-NL00918_00038_101_102'
p3565
aS'NL.RIVM.AQ/SPO_F-NL00445_00038_100_101'
p3566
aS'NL.RIVM.AQ/SPO_F-NL00230_00038_101_102'
p3567
aS'NL.RIVM.AQ/SPO_F-NL00538_00038_111_112'
p3568
aS'NL.RIVM.AQ/SPO_F-NL00818_00038_100_101'
p3569
aS'NL.RIVM.AQ/SPO_F-NL00549_00038_100_100'
p3570
aS'NL.RIVM.AQ/SPO_F-NL00937_00038_100_101'
p3571
aS'NL.RIVM.AQ/SPO_F-NL00241_00038_100_101'
p3572
aS'NL.RIVM.AQ/SPO_F-NL00247_00038_100_100'
p3573
aS'NL.RIVM.AQ/SPO_F-NL00107_00038_101_102'
p3574
aS'NL.RIVM.AQ/SPO_F-NL00641_00038_100_101'
p3575
aS'NL.RIVM.AQ/SPO_F-NL00722_00038_111_112'
p3576
aS'NL.RIVM.AQ/SPO_F-NL00235_00038_101_102'
p3577
aS'NL.RIVM.AQ/SPO_F-NL00631_00038_111_113'
p3578
aS'NL.RIVM.AQ/SPO_F-NL00644_00038_100_100'
p3579
aS'NL.RIVM.AQ/SPO_F-NL00136_00038_100_101'
p3580
aS'NL.RIVM.AQ/SPO_F-NL00639_00038_101_102'
p3581
aS'NL.RIVM.AQ/SPO_F-NL00418_00038_111_112'
p3582
aS'NL.RIVM.AQ/SPO_F-NL00131_00038_111_112'
p3583
aS'NL.RIVM.AQ/SPO_F-NL00934_00038_111_112'
p3584
aS'NL.RIVM.AQ/SPO_F-NL00738_00038_100_101'
p3585
aS'NL.RIVM.AQ/SPO_F-NL00404_00038_111_112'
p3586
aS'NL.RIVM.AQ/SPO_F-NL00938_00038_100_101'
p3587
aS'NL.RIVM.AQ/SPO_F-NL00929_00038_100_101'
p3588
aS'NL.RIVM.AQ/SPO_F-NL00433_00038_111_112'
p3589
aS'NL.RIVM.AQ/SPO_F-NL00636_00038_111_112'
p3590
aS'NL.RIVM.AQ/SPO_F-NL00437_00038_101_102'
p3591
aS'NL.RIVM.AQ/SPO_F-NL00633_00038_101_102'
p3592
aS'NL.RIVM.AQ/SPO_F-NL00236_00038_101_102'
p3593
aS'NL.RIVM.AQ/SPO_F-NL00742_00038_100_101'
p3594
aS'NL.RIVM.AQ/SPO_F-NL00318_00038_111_112'
p3595
aS'NL.RIVM.AQ/SPO_F-NL00301_00038_101_102'
p3596
aS'NL.RIVM.AQ/SPO_F-NL00444_00038_100_101'
p3597
aS'NL.RIVM.AQ/SPO_F-NL00741_00038_100_101'
p3598
aS'NL.RIVM.AQ/SPO_F-NL00807_00038_101_102'
p3599
aS'NL.RIVM.AQ/SPO_F-NL00133_00038_101_102'
p3600
aS'NL.RIVM.AQ/SPO_F-NL00237_00038_101_102'
p3601
aS'NL.RIVM.AQ/SPO_F-NL00547_00038_100_100'
p3602
atRp3603
ssS'http://dd.eionet.europa.eu/vocabulary/aq/pollutant/9'
p3604
(dp3605
g36
(lp3606
S'NL.RIVM.AQ/STA-NL00107/9'
p3607
aS'NL.RIVM.AQ/STA-NL00131/9'
p3608
aS'NL.RIVM.AQ/STA-NL00133/9'
p3609
aS'NL.RIVM.AQ/STA-NL00136/9'
p3610
aS'NL.RIVM.AQ/STA-NL00137/9'
p3611
aS'NL.RIVM.AQ/STA-NL00230/9'
p3612
aS'NL.RIVM.AQ/STA-NL00235/9'
p3613
aS'NL.RIVM.AQ/STA-NL00236/9'
p3614
aS'NL.RIVM.AQ/STA-NL00237/9'
p3615
aS'NL.RIVM.AQ/STA-NL00241/9'
p3616
aS'NL.RIVM.AQ/STA-NL00245/9'
p3617
aS'NL.RIVM.AQ/STA-NL00246/9'
p3618
aS'NL.RIVM.AQ/STA-NL00247/9'
p3619
aS'NL.RIVM.AQ/STA-NL00301/9'
p3620
aS'NL.RIVM.AQ/STA-NL00318/9'
p3621
aS'NL.RIVM.AQ/STA-NL00404/9'
p3622
aS'NL.RIVM.AQ/STA-NL00418/9'
p3623
aS'NL.RIVM.AQ/STA-NL00433/9'
p3624
aS'NL.RIVM.AQ/STA-NL00437/9'
p3625
aS'NL.RIVM.AQ/STA-NL00442/9'
p3626
aS'NL.RIVM.AQ/STA-NL00444/9'
p3627
aS'NL.RIVM.AQ/STA-NL00445/9'
p3628
aS'NL.RIVM.AQ/STA-NL00485/9'
p3629
aS'NL.RIVM.AQ/STA-NL00486/9'
p3630
aS'NL.RIVM.AQ/STA-NL00487/9'
p3631
aS'NL.RIVM.AQ/STA-NL00488/9'
p3632
aS'NL.RIVM.AQ/STA-NL00489/9'
p3633
aS'NL.RIVM.AQ/STA-NL00491/9'
p3634
aS'NL.RIVM.AQ/STA-NL00493/9'
p3635
aS'NL.RIVM.AQ/STA-NL00494/9'
p3636
aS'NL.RIVM.AQ/STA-NL00495/9'
p3637
aS'NL.RIVM.AQ/STA-NL00496/9'
p3638
aS'NL.RIVM.AQ/STA-NL00537/9'
p3639
aS'NL.RIVM.AQ/STA-NL00538/9'
p3640
aS'NL.RIVM.AQ/STA-NL00547/9'
p3641
aS'NL.RIVM.AQ/STA-NL00548/9'
p3642
aS'NL.RIVM.AQ/STA-NL00549/9'
p3643
aS'NL.RIVM.AQ/STA-NL00631/9'
p3644
aS'NL.RIVM.AQ/STA-NL00633/9'
p3645
aS'NL.RIVM.AQ/STA-NL00636/9'
p3646
aS'NL.RIVM.AQ/STA-NL00639/9'
p3647
aS'NL.RIVM.AQ/STA-NL00641/9'
p3648
aS'NL.RIVM.AQ/STA-NL00644/9'
p3649
aS'NL.RIVM.AQ/STA-NL00722/9'
p3650
aS'NL.RIVM.AQ/STA-NL00738/9'
p3651
aS'NL.RIVM.AQ/STA-NL00741/9'
p3652
aS'NL.RIVM.AQ/STA-NL00742/9'
p3653
aS'NL.RIVM.AQ/STA-NL00807/9'
p3654
aS'NL.RIVM.AQ/STA-NL00818/9'
p3655
aS'NL.RIVM.AQ/STA-NL00918/9'
p3656
aS'NL.RIVM.AQ/STA-NL00929/9'
p3657
aS'NL.RIVM.AQ/STA-NL00934/9'
p3658
aS'NL.RIVM.AQ/STA-NL00937/9'
p3659
aS'NL.RIVM.AQ/STA-NL00938/9'
p3660
asg3322
g7
((ltRp3661
ssS'http://dd.eionet.europa.eu/vocabulary/aq/pollutant/8'
p3662
(dp3663
g36
(lp3664
g3169
ag520
ag3047
ag1519
aS'NL.RIVM.AQ/STA-NL00137/8'
p3665
ag2365
ag2871
ag1978
ag412
ag703
aS'NL.RIVM.AQ/STA-NL00245/8'
p3666
ag1461
ag723
ag2405
ag285
ag2989
ag2635
ag1585
ag1340
ag2616
ag690
ag2385
aS'NL.RIVM.AQ/STA-NL00485/8'
p3667
aS'NL.RIVM.AQ/STA-NL00486/8'
p3668
aS'NL.RIVM.AQ/STA-NL00487/8'
p3669
aS'NL.RIVM.AQ/STA-NL00488/8'
p3670
aS'NL.RIVM.AQ/STA-NL00489/8'
p3671
aS'NL.RIVM.AQ/STA-NL00491/8'
p3672
aS'NL.RIVM.AQ/STA-NL00493/8'
p3673
aS'NL.RIVM.AQ/STA-NL00494/8'
p3674
aS'NL.RIVM.AQ/STA-NL00495/8'
p3675
aS'NL.RIVM.AQ/STA-NL00496/8'
p3676
aS'NL.RIVM.AQ/STA-NL00537/8'
p3677
ag1533
ag671
aS'NL.RIVM.AQ/STA-NL00548/8'
p3678
ag3131
ag170
ag3273
ag1656
ag475
ag3150
ag3280
ag361
ag1711
ag1578
ag2233
ag2550
ag2284
ag1933
ag2392
ag1762
ag386
ag833
asg3322
g7
((lp3679
S'NL.RIVM.AQ/SPO_F-NL00230_00008_101_102'
p3680
aS'NL.RIVM.AQ/SPO_F-NL00136_00008_100_101'
p3681
aS'NL.RIVM.AQ/SPO_F-NL00538_00008_111_112'
p3682
aS'NL.RIVM.AQ/SPO_F-NL00445_00008_100_101'
p3683
aS'NL.RIVM.AQ/SPO_F-NL00442_00008_100_100'
p3684
aS'NL.RIVM.AQ/SPO_F-NL00918_00008_101_102'
p3685
aS'NL.RIVM.AQ/SPO_F-NL00237_00008_101_102'
p3686
aS'NL.RIVM.AQ/SPO_F-NL00418_00008_111_112'
p3687
aS'NL.RIVM.AQ/SPO_F-NL00318_00008_111_112'
p3688
aS'NL.RIVM.AQ/SPO_F-NL00301_00008_101_102'
p3689
aS'NL.RIVM.AQ/SPO_F-NL00437_00008_101_102'
p3690
aS'NL.RIVM.AQ/SPO_F-NL00934_00008_111_112'
p3691
aS'NL.RIVM.AQ/SPO_F-NL00444_00008_100_101'
p3692
aS'NL.RIVM.AQ/SPO_F-NL00641_00008_100_101'
p3693
aS'NL.RIVM.AQ/SPO_F-NL00722_00008_111_112'
p3694
aS'NL.RIVM.AQ/SPO_F-NL00631_00008_111_113'
p3695
aS'NL.RIVM.AQ/SPO_F-NL00742_00008_100_101'
p3696
aS'NL.RIVM.AQ/SPO_F-NL00107_00008_101_102'
p3697
aS'NL.RIVM.AQ/SPO_F-NL00741_00008_100_101'
p3698
aS'NL.RIVM.AQ/SPO_F-NL00433_00008_111_112'
p3699
aS'NL.RIVM.AQ/SPO_F-NL00236_00008_101_102'
p3700
aS'NL.RIVM.AQ/SPO_F-NL00547_00008_100_100'
p3701
aS'NL.RIVM.AQ/SPO_F-NL00738_00008_100_101'
p3702
aS'NL.RIVM.AQ/SPO_F-NL00639_00008_101_102'
p3703
aS'NL.RIVM.AQ/SPO_F-NL00404_00008_111_112'
p3704
aS'NL.RIVM.AQ/SPO_F-NL00818_00008_100_101'
p3705
aS'NL.RIVM.AQ/SPO_F-NL00937_00008_100_101'
p3706
aS'NL.RIVM.AQ/SPO_F-NL00241_00008_100_101'
p3707
aS'NL.RIVM.AQ/SPO_F-NL00929_00008_100_101'
p3708
aS'NL.RIVM.AQ/SPO_F-NL00246_00008_100_100'
p3709
aS'NL.RIVM.AQ/SPO_F-NL00131_00008_111_112'
p3710
aS'NL.RIVM.AQ/SPO_F-NL00807_00008_101_102'
p3711
aS'NL.RIVM.AQ/SPO_F-NL00247_00008_100_100'
p3712
aS'NL.RIVM.AQ/SPO_F-NL00133_00008_101_102'
p3713
aS'NL.RIVM.AQ/SPO_F-NL00633_00008_101_102'
p3714
aS'NL.RIVM.AQ/SPO_F-NL00636_00008_111_112'
p3715
aS'NL.RIVM.AQ/SPO_F-NL00938_00008_100_101'
p3716
aS'NL.RIVM.AQ/SPO_F-NL00549_00008_100_100'
p3717
aS'NL.RIVM.AQ/SPO_F-NL00235_00008_101_102'
p3718
aS'NL.RIVM.AQ/SPO_F-NL00644_00008_100_100'
p3719
atRp3720
sssS'NL.RIVM.AQ/SPP-NL_A_NDIR_thermo48w'
p3721
(dp3722
S'http://dd.eionet.europa.eu/vocabulary/aq/pollutant/10'
p3723
(dp3724
g36
(lp3725
S'NL.RIVM.AQ/STA-NL00633/10'
p3726
ag601
ag749
aS'NL.RIVM.AQ/STA-NL00742/10'
p3727
asg3322
g7
((lp3728
S'NL.RIVM.AQ/SPO_F-NL00741_00010_100_100'
p3729
aS'NL.RIVM.AQ/SPO_F-NL00644_00010_100_100'
p3730
atRp3731
sssS'NL.RIVM.AQ/SPP-NL_A_5090150901'
p3732
(dp3733
S'http://dd.eionet.europa.eu/vocabulary/aq/pollutant/35'
p3734
(dp3735
g36
(lp3736
g742
aS'NL.RIVM.AQ/STA-NL00235/35'
p3737
aS'NL.RIVM.AQ/STA-NL00244/35'
p3738
ag2609
ag2673
ag2706
aS'NL.RIVM.AQ/STA-NL00722/35'
p3739
ag2412
ag2815
asg3322
g7
((lp3740
S'NL.RIVM.AQ/SPO_F-NL00929_00035_100_100'
p3741
aS'NL.RIVM.AQ/SPO_F-NL00538_00035_100_100'
p3742
aS'NL.RIVM.AQ/SPO_F-NL00444_00035_100_100'
p3743
aS'NL.RIVM.AQ/SPO_F-NL00131_00035_100_100'
p3744
aS'NL.RIVM.AQ/SPO_F-NL00633_00035_100_100'
p3745
aS'NL.RIVM.AQ/SPO_F-NL00738_00035_100_100'
p3746
atRp3747
sssS'NL.RIVM.AQ/SPP-NL_A_UV-FL_API100E'
p3748
(dp3749
S'http://dd.eionet.europa.eu/vocabulary/aq/pollutant/1'
p3750
(dp3751
g36
(lp3752
S'NL.RIVM.AQ/STA-NL00484/1'
p3753
aS'NL.RIVM.AQ/STA-NL00485/1'
p3754
aS'NL.RIVM.AQ/STA-NL00486/1'
p3755
aS'NL.RIVM.AQ/STA-NL00494/1'
p3756
aS'NL.RIVM.AQ/STA-NL00495/1'
p3757
aS'NL.RIVM.AQ/STA-NL00496/1'
p3758
asg3322
g7
((ltRp3759
sssS'NL.RIVM.AQ/SPP-NL_N_gravi_leckelSEQ47-50'
p3760
(dp3761
S'http://dd.eionet.europa.eu/vocabulary/aq/pollutant/6001'
p3762
(dp3763
g36
(lp3764
g58
asg3322
g7
((lp3765
S'NL.RIVM.AQ/SPO_F-NL00230_06001_100_101'
p3766
atRp3767
sssS'NL.RIVM.AQ/SPP-NL_A_UV-FL_thermo43w'
p3768
(dp3769
S'http://dd.eionet.europa.eu/vocabulary/aq/pollutant/1'
p3770
(dp3771
g36
(lp3772
g1743
ag1649
ag2996
ag3202
ag1076
ag507
asg3322
g7
((lp3773
S'NL.RIVM.AQ/SPO_F-NL00722_00001_111_111'
p3774
aS'NL.RIVM.AQ/SPO_F-NL00133_00001_101_101'
p3775
aS'NL.RIVM.AQ/SPO_F-NL00444_00001_100_100'
p3776
aS'NL.RIVM.AQ/SPO_F-NL00934_00001_101_101'
p3777
aS'NL.RIVM.AQ/SPO_F-NL00644_00001_100_100'
p3778
aS'NL.RIVM.AQ/SPO_F-NL00318_00001_111_111'
p3779
atRp3780
sssS'NL.RIVM.AQ/SPP-NL_A_BETA_andersenFH62IR'
p3781
(dp3782
S'http://dd.eionet.europa.eu/vocabulary/aq/pollutant/5'
p3783
(dp3784
g36
(lp3785
g1971
ag2425
ag3054
aS'NL.RIVM.AQ/STA-NL00137/5'
p3786
ag3183
ag1486
ag1390
ag978
ag2258
ag985
ag576
aS'NL.RIVM.AQ/STA-NL00244/5'
p3787
ag1146
ag3106
aS'NL.RIVM.AQ/STA-NL00312/5'
p3788
ag2588
aS'NL.RIVM.AQ/STA-NL00319/5'
p3789
ag2098
ag1159
ag2524
ag265
ag914
ag99
ag2277
ag3241
aS'NL.RIVM.AQ/STA-NL00447/5'
p3790
aS'NL.RIVM.AQ/STA-NL00537/5'
p3791
ag826
ag800
ag500
aS'NL.RIVM.AQ/STA-NL00633/5'
p3792
ag3176
ag252
ag1940
ag3061
ag1121
aS'NL.RIVM.AQ/STA-NL00728/5'
p3793
ag1920
ag807
aS'NL.RIVM.AQ/STA-NL00743/5'
p3794
ag2680
ag3093
ag2352
ag1448
ag1592
asg3322
g7
((lp3795
S'NL.RIVM.AQ/SPO_F-NL00918_00005_100_101'
p3796
aS'NL.RIVM.AQ/SPO_F-NL00247_00005_100_100'
p3797
aS'NL.RIVM.AQ/SPO_F-NL00639_00005_100_101'
p3798
aS'NL.RIVM.AQ/SPO_F-NL00437_00005_100_101'
p3799
aS'NL.RIVM.AQ/SPO_F-NL00644_00005_100_100'
p3800
aS'NL.RIVM.AQ/SPO_F-NL00236_00005_100_101'
p3801
aS'NL.RIVM.AQ/SPO_F-NL00545_00005_100_100'
p3802
aS'NL.RIVM.AQ/SPO_F-NL00741_00005_100_101'
p3803
aS'NL.RIVM.AQ/SPO_F-NL00240_00005_100_101'
p3804
aS'NL.RIVM.AQ/SPO_F-NL00133_00005_100_101'
p3805
aS'NL.RIVM.AQ/SPO_F-NL00818_00005_100_101'
p3806
aS'NL.RIVM.AQ/SPO_F-NL00538_00005_100_101'
p3807
aS'NL.RIVM.AQ/SPO_F-NL00444_00005_100_101'
p3808
aS'NL.RIVM.AQ/SPO_F-NL00131_00005_100_101'
p3809
aS'NL.RIVM.AQ/SPO_F-NL00641_00005_101_101'
p3810
aS'NL.RIVM.AQ/SPO_F-NL00636_00005_100_101'
p3811
aS'NL.RIVM.AQ/SPO_F-NL00237_00005_100_101'
p3812
aS'NL.RIVM.AQ/SPO_F-NL00138_00005_100_100'
p3813
aS'NL.RIVM.AQ/SPO_F-NL00937_00005_100_101'
p3814
aS'NL.RIVM.AQ/SPO_F-NL00445_00005_100_101'
p3815
aS'NL.RIVM.AQ/SPO_F-NL00934_00005_100_100'
p3816
aS'NL.RIVM.AQ/SPO_F-NL00631_00005_100_100'
p3817
aS'NL.RIVM.AQ/SPO_F-NL00738_00005_101_101'
p3818
aS'NL.RIVM.AQ/SPO_F-NL00433_00005_100_101'
p3819
aS'NL.RIVM.AQ/SPO_F-NL00446_00005_100_101'
p3820
aS'NL.RIVM.AQ/SPO_F-NL00241_00005_100_101'
p3821
aS'NL.RIVM.AQ/SPO_F-NL00442_00005_100_100'
p3822
aS'NL.RIVM.AQ/SPO_F-NL00404_00005_100_101'
p3823
aS'NL.RIVM.AQ/SPO_F-NL00722_00005_100_101'
p3824
aS'NL.RIVM.AQ/SPO_F-NL00136_00005_100_101'
p3825
aS'NL.RIVM.AQ/SPO_F-NL00230_00005_100_101'
p3826
aS'NL.RIVM.AQ/SPO_F-NL00246_00005_100_100'
p3827
aS'NL.RIVM.AQ/SPO_F-NL00235_00005_100_100'
p3828
aS'NL.RIVM.AQ/SPO_F-NL00318_00005_100_101'
p3829
aS'NL.RIVM.AQ/SPO_F-NL00929_00005_100_101'
p3830
aS'NL.RIVM.AQ/SPO_F-NL00418_00005_100_101'
p3831
atRp3832
sssS'NL.RIVM.AQ/SPP-NL_A_reflect_08001'
p3833
(dp3834
S'http://dd.eionet.europa.eu/vocabulary/aq/pollutant/6'
p3835
(dp3836
g36
(lp3837
S'NL.RIVM.AQ/STA-NL00131/6'
p3838
aS'NL.RIVM.AQ/STA-NL00240/6'
p3839
aS'NL.RIVM.AQ/STA-NL00241/6'
p3840
aS'NL.RIVM.AQ/STA-NL00433/6'
p3841
aS'NL.RIVM.AQ/STA-NL00444/6'
p3842
aS'NL.RIVM.AQ/STA-NL00448/6'
p3843
aS'NL.RIVM.AQ/STA-NL00538/6'
p3844
asg3322
g7
((ltRp3845
sssS'NL.RIVM.AQ/SPP-NL_A_NDIR_API300E'
p3846
(dp3847
S'http://dd.eionet.europa.eu/vocabulary/aq/pollutant/10'
p3848
(dp3849
g36
(lp3850
S'NL.RIVM.AQ/STA-NL00487/10'
p3851
aS'NL.RIVM.AQ/STA-NL00488/10'
p3852
aS'NL.RIVM.AQ/STA-NL00491/10'
p3853
aS'NL.RIVM.AQ/STA-NL00493/10'
p3854
asg3322
g7
((ltRp3855
sssS'NL.RIVM.AQ/SPP-NL_A_IR-GFC_06003'
p3856
(dp3857
S'http://dd.eionet.europa.eu/vocabulary/aq/pollutant/10'
p3858
(dp3859
g36
(lp3860
S'NL.RIVM.AQ/STA-NL00007/10'
p3861
aS'NL.RIVM.AQ/STA-NL00012/10'
p3862
aS'NL.RIVM.AQ/STA-NL00014/10'
p3863
aS'NL.RIVM.AQ/STA-NL00551/10'
p3864
aS'NL.RIVM.AQ/STA-NL00553/10'
p3865
aS'NL.RIVM.AQ/STA-NL00561/10'
p3866
asg3322
g7
((ltRp3867
sssS'NL.RIVM.AQ/SPP-NL_N_CFA_leckelSEQ47-50'
p3868
(dp3869
S'http://dd.eionet.europa.eu/vocabulary/aq/pollutant/45'
p3870
(dp3871
g36
(lp3872
S'NL.RIVM.AQ/STA-NL00131/45'
p3873
aS'NL.RIVM.AQ/STA-NL00444/45'
p3874
aS'NL.RIVM.AQ/STA-NL00538/45'
p3875
aS'NL.RIVM.AQ/STA-NL00929/45'
p3876
asg3322
g7
((ltRp3877
sssS'NL.RIVM.AQ/SPP-NL_A_BETA_BAM1020'
p3878
(dp3879
S'http://dd.eionet.europa.eu/vocabulary/aq/pollutant/6001'
p3880
(dp3881
g36
(lp3882
S'NL.RIVM.AQ/STA-NL00007/6001'
p3883
aS'NL.RIVM.AQ/STA-NL00012/6001'
p3884
aS'NL.RIVM.AQ/STA-NL00014/6001'
p3885
aS'NL.RIVM.AQ/STA-NL00016/6001'
p3886
aS'NL.RIVM.AQ/STA-NL00017/6001'
p3887
aS'NL.RIVM.AQ/STA-NL00482/6001'
p3888
aS'NL.RIVM.AQ/STA-NL00487/6001'
p3889
aS'NL.RIVM.AQ/STA-NL00488/6001'
p3890
aS'NL.RIVM.AQ/STA-NL00489/6001'
p3891
aS'NL.RIVM.AQ/STA-NL00491/6001'
p3892
aS'NL.RIVM.AQ/STA-NL00494/6001'
p3893
aS'NL.RIVM.AQ/STA-NL00495/6001'
p3894
aS'NL.RIVM.AQ/STA-NL00496/6001'
p3895
aS'NL.RIVM.AQ/STA-NL00551/6001'
p3896
aS'NL.RIVM.AQ/STA-NL00553/6001'
p3897
aS'NL.RIVM.AQ/STA-NL00561/6001'
p3898
aS'NL.RIVM.AQ/STA-NL00570/6001'
p3899
aS'NL.RIVM.AQ/STA-NL00572/6001'
p3900
aS'NL.RIVM.AQ/STA-NL00573/6001'
p3901
aS'NL.RIVM.AQ/STA-NL00701/6001'
p3902
aS'NL.RIVM.AQ/STA-NL00703/6001'
p3903
aS'NL.RIVM.AQ/STA-NL00704/6001'
p3904
asg3322
g7
((ltRp3905
ssS'http://dd.eionet.europa.eu/vocabulary/aq/pollutant/5'
p3906
(dp3907
g36
(lp3908
S'NL.RIVM.AQ/STA-NL00007/5'
p3909
aS'NL.RIVM.AQ/STA-NL00012/5'
p3910
aS'NL.RIVM.AQ/STA-NL00014/5'
p3911
aS'NL.RIVM.AQ/STA-NL00016/5'
p3912
aS'NL.RIVM.AQ/STA-NL00017/5'
p3913
aS'NL.RIVM.AQ/STA-NL00482/5'
p3914
aS'NL.RIVM.AQ/STA-NL00485/5'
p3915
aS'NL.RIVM.AQ/STA-NL00487/5'
p3916
aS'NL.RIVM.AQ/STA-NL00488/5'
p3917
aS'NL.RIVM.AQ/STA-NL00489/5'
p3918
aS'NL.RIVM.AQ/STA-NL00491/5'
p3919
aS'NL.RIVM.AQ/STA-NL00493/5'
p3920
aS'NL.RIVM.AQ/STA-NL00494/5'
p3921
aS'NL.RIVM.AQ/STA-NL00495/5'
p3922
aS'NL.RIVM.AQ/STA-NL00496/5'
p3923
aS'NL.RIVM.AQ/STA-NL00546/5'
p3924
aS'NL.RIVM.AQ/STA-NL00551/5'
p3925
aS'NL.RIVM.AQ/STA-NL00553/5'
p3926
aS'NL.RIVM.AQ/STA-NL00556/5'
p3927
aS'NL.RIVM.AQ/STA-NL00561/5'
p3928
aS'NL.RIVM.AQ/STA-NL00564/5'
p3929
aS'NL.RIVM.AQ/STA-NL00565/5'
p3930
aS'NL.RIVM.AQ/STA-NL00570/5'
p3931
aS'NL.RIVM.AQ/STA-NL00572/5'
p3932
aS'NL.RIVM.AQ/STA-NL00573/5'
p3933
aS'NL.RIVM.AQ/STA-NL00701/5'
p3934
aS'NL.RIVM.AQ/STA-NL00703/5'
p3935
aS'NL.RIVM.AQ/STA-NL00704/5'
p3936
asg3322
g7
((ltRp3937
sssS'NL.RIVM.AQ/SPP-NL_A_D9037D9037'
p3938
(dp3939
S'http://dd.eionet.europa.eu/vocabulary/aq/pollutant/20'
p3940
(dp3941
g36
(lp3942
S'NL.RIVM.AQ/STA-NL00483/20'
p3943
aS'NL.RIVM.AQ/STA-NL00485/20'
p3944
aS'NL.RIVM.AQ/STA-NL00496/20'
p3945
asg3322
g7
((ltRp3946
ssS'http://dd.eionet.europa.eu/vocabulary/aq/pollutant/21'
p3947
(dp3948
g36
(lp3949
S'NL.RIVM.AQ/STA-NL00483/21'
p3950
aS'NL.RIVM.AQ/STA-NL00485/21'
p3951
aS'NL.RIVM.AQ/STA-NL00496/21'
p3952
asg3322
g7
((ltRp3953
sssS'NL.RIVM.AQ/SPP-NL_A_D9040D9040'
p3954
(dp3955
S'http://dd.eionet.europa.eu/vocabulary/aq/pollutant/431'
p3956
(dp3957
g36
(lp3958
S'NL.RIVM.AQ/STA-NL00633/431'
p3959
aS'NL.RIVM.AQ/STA-NL00639/431'
p3960
asg3322
g7
((ltRp3961
ssS'http://dd.eionet.europa.eu/vocabulary/aq/pollutant/20'
p3962
(dp3963
g36
(lp3964
S'NL.RIVM.AQ/STA-NL00546/20'
p3965
aS'NL.RIVM.AQ/STA-NL00633/20'
p3966
aS'NL.RIVM.AQ/STA-NL00639/20'
p3967
asg3322
g7
((ltRp3968
ssS'http://dd.eionet.europa.eu/vocabulary/aq/pollutant/21'
p3969
(dp3970
g36
(lp3971
S'NL.RIVM.AQ/STA-NL00546/21'
p3972
aS'NL.RIVM.AQ/STA-NL00633/21'
p3973
aS'NL.RIVM.AQ/STA-NL00639/21'
p3974
asg3322
g7
((ltRp3975
ssS'http://dd.eionet.europa.eu/vocabulary/aq/pollutant/482'
p3976
(dp3977
g36
(lp3978
S'NL.RIVM.AQ/STA-NL00633/482'
p3979
aS'NL.RIVM.AQ/STA-NL00639/482'
p3980
asg3322
g7
((ltRp3981
ssS'http://dd.eionet.europa.eu/vocabulary/aq/pollutant/464'
p3982
(dp3983
g36
(lp3984
S'NL.RIVM.AQ/STA-NL00633/464'
p3985
aS'NL.RIVM.AQ/STA-NL00639/464'
p3986
asg3322
g7
((ltRp3987
sssS'NL.RIVM.AQ/SPP-NL_N_gravi_derenda'
p3988
(dp3989
S'http://dd.eionet.europa.eu/vocabulary/aq/pollutant/6001'
p3990
(dp3991
g36
(lp3992
g946
ag1221
ag2111
ag2022
ag2163
ag2756
ag1214
ag2890
ag1730
ag1429
ag846
ag608
ag2719
ag78
ag1895
ag1499
ag1036
ag2543
ag1107
ag1114
ag2802
ag1624
ag710
asg3322
g7
((lp3993
S'NL.RIVM.AQ/SPO_F-NL00241_06001_100_101'
p3994
aS'NL.RIVM.AQ/SPO_F-NL00448_06001_100_101'
p3995
aS'NL.RIVM.AQ/SPO_F-NL00433_06001_100_101'
p3996
aS'NL.RIVM.AQ/SPO_F-NL00444_06001_100_101'
p3997
aS'NL.RIVM.AQ/SPO_F-NL00641_06001_100_100'
p3998
aS'NL.RIVM.AQ/SPO_F-NL00404_06001_100_101'
p3999
aS'NL.RIVM.AQ/SPO_F-NL00136_06001_100_100'
p4000
aS'NL.RIVM.AQ/SPO_F-NL00738_06001_100_100'
p4001
aS'NL.RIVM.AQ/SPO_F-NL00418_06001_100_101'
p4002
aS'NL.RIVM.AQ/SPO_F-NL00636_06001_100_100'
p4003
aS'NL.RIVM.AQ/SPO_F-NL00240_06001_100_100'
p4004
aS'NL.RIVM.AQ/SPO_F-NL00247_06001_100_100'
p4005
aS'NL.RIVM.AQ/SPO_F-NL00934_06001_100_100'
p4006
aS'NL.RIVM.AQ/SPO_F-NL00938_06001_100_101'
p4007
aS'NL.RIVM.AQ/SPO_F-NL00937_06001_100_100'
p4008
aS'NL.RIVM.AQ/SPO_F-NL00741_06001_100_100'
p4009
aS'NL.RIVM.AQ/SPO_F-NL00742_06001_100_100'
p4010
aS'NL.RIVM.AQ/SPO_F-NL00821_06001_100_100'
p4011
aS'NL.RIVM.AQ/SPO_F-NL00538_06001_100_100'
p4012
aS'NL.RIVM.AQ/SPO_F-NL00138_06001_100_100'
p4013
aS'NL.RIVM.AQ/SPO_F-NL00644_06001_100_100'
p4014
aS'NL.RIVM.AQ/SPO_F-NL00643_06001_100_100'
p4015
aS'NL.RIVM.AQ/SPO_F-NL00131_06001_100_101'
p4016
atRp4017
sssS'NL.RIVM.AQ/SPP-NL_N_IC_leckelSEQ47-50'
p4018
(dp4019
S'http://dd.eionet.europa.eu/vocabulary/aq/pollutant/46'
p4020
(dp4021
g36
(lp4022
S'NL.RIVM.AQ/STA-NL00131/46'
p4023
aS'NL.RIVM.AQ/STA-NL00444/46'
p4024
aS'NL.RIVM.AQ/STA-NL00538/46'
p4025
aS'NL.RIVM.AQ/STA-NL00929/46'
p4026
asg3322
g7
((ltRp4027
ssS'http://dd.eionet.europa.eu/vocabulary/aq/pollutant/47'
p4028
(dp4029
g36
(lp4030
S'NL.RIVM.AQ/STA-NL00131/47'
p4031
aS'NL.RIVM.AQ/STA-NL00444/47'
p4032
aS'NL.RIVM.AQ/STA-NL00538/47'
p4033
aS'NL.RIVM.AQ/STA-NL00929/47'
p4034
asg3322
g7
((ltRp4035
ssS'http://dd.eionet.europa.eu/vocabulary/aq/pollutant/631'
p4036
(dp4037
g36
(lp4038
S'NL.RIVM.AQ/STA-NL00131/631'
p4039
aS'NL.RIVM.AQ/STA-NL00444/631'
p4040
aS'NL.RIVM.AQ/STA-NL00538/631'
p4041
aS'NL.RIVM.AQ/STA-NL00929/631'
p4042
asg3322
g7
((ltRp4043
sssS'NL.RIVM.AQ/SPP-NL_A_BETA_D9041'
p4044
(dp4045
S'http://dd.eionet.europa.eu/vocabulary/aq/pollutant/5'
p4046
(dp4047
g36
(lp4048
g2517
ag1839
asg3322
g7
((lp4049
S'NL.RIVM.AQ/SPO_F-NL00549_00005_100_100'
p4050
aS'NL.RIVM.AQ/SPO_F-NL00547_00005_100_100'
p4051
atRp4052
sssS'NL.RIVM.AQ/SPP-NL_A_chemi_API200'
p4053
(dp4054
S'http://dd.eionet.europa.eu/vocabulary/aq/pollutant/38'
p4055
(dp4056
g36
(lp4057
S'NL.RIVM.AQ/STA-NL00002/38'
p4058
aS'NL.RIVM.AQ/STA-NL00003/38'
p4059
aS'NL.RIVM.AQ/STA-NL00007/38'
p4060
aS'NL.RIVM.AQ/STA-NL00012/38'
p4061
aS'NL.RIVM.AQ/STA-NL00017/38'
p4062
aS'NL.RIVM.AQ/STA-NL00546/38'
p4063
aS'NL.RIVM.AQ/STA-NL00551/38'
p4064
aS'NL.RIVM.AQ/STA-NL00553/38'
p4065
aS'NL.RIVM.AQ/STA-NL00561/38'
p4066
aS'NL.RIVM.AQ/STA-NL00564/38'
p4067
aS'NL.RIVM.AQ/STA-NL00565/38'
p4068
aS'NL.RIVM.AQ/STA-NL00703/38'
p4069
aS'NL.RIVM.AQ/STA-NL00704/38'
p4070
asg3322
g7
((ltRp4071
ssS'http://dd.eionet.europa.eu/vocabulary/aq/pollutant/9'
p4072
(dp4073
g36
(lp4074
S'NL.RIVM.AQ/STA-NL00002/9'
p4075
aS'NL.RIVM.AQ/STA-NL00003/9'
p4076
aS'NL.RIVM.AQ/STA-NL00007/9'
p4077
aS'NL.RIVM.AQ/STA-NL00012/9'
p4078
aS'NL.RIVM.AQ/STA-NL00017/9'
p4079
aS'NL.RIVM.AQ/STA-NL00546/9'
p4080
aS'NL.RIVM.AQ/STA-NL00551/9'
p4081
aS'NL.RIVM.AQ/STA-NL00553/9'
p4082
aS'NL.RIVM.AQ/STA-NL00561/9'
p4083
aS'NL.RIVM.AQ/STA-NL00564/9'
p4084
aS'NL.RIVM.AQ/STA-NL00565/9'
p4085
aS'NL.RIVM.AQ/STA-NL00703/9'
p4086
aS'NL.RIVM.AQ/STA-NL00704/9'
p4087
asg3322
g7
((ltRp4088
ssS'http://dd.eionet.europa.eu/vocabulary/aq/pollutant/8'
p4089
(dp4090
g36
(lp4091
S'NL.RIVM.AQ/STA-NL00002/8'
p4092
aS'NL.RIVM.AQ/STA-NL00003/8'
p4093
aS'NL.RIVM.AQ/STA-NL00007/8'
p4094
aS'NL.RIVM.AQ/STA-NL00012/8'
p4095
aS'NL.RIVM.AQ/STA-NL00017/8'
p4096
aS'NL.RIVM.AQ/STA-NL00546/8'
p4097
aS'NL.RIVM.AQ/STA-NL00551/8'
p4098
aS'NL.RIVM.AQ/STA-NL00553/8'
p4099
aS'NL.RIVM.AQ/STA-NL00561/8'
p4100
aS'NL.RIVM.AQ/STA-NL00564/8'
p4101
aS'NL.RIVM.AQ/STA-NL00565/8'
p4102
aS'NL.RIVM.AQ/STA-NL00703/8'
p4103
aS'NL.RIVM.AQ/STA-NL00704/8'
p4104
asg3322
g7
((ltRp4105
sssS'NL.RIVM.AQ/SPP-NL_A_UV-P_D9039'
p4106
(dp4107
S'http://dd.eionet.europa.eu/vocabulary/aq/pollutant/7'
p4108
(dp4109
g36
(lp4110
g2828
asg3322
g7
((lp4111
S'NL.RIVM.AQ/SPO_F-NL00446_00007_100_100'
p4112
atRp4113
ssssS'accesConstraints'
p4114
S'NONE'
p4115
sb.