(isosRequests
SOS
p1
(dp2
S'accessConstraints'
p3
S''
sS'name'
p4
S'RIVM SOS Service Air Quality'
p5
sS'resourceDescriptionFormat'
p6
c__builtin__
set
p7
((lp8
S'\n        '
p9
atRp10
sS'url'
p11
S'http://inspire.rivm.nl/sos/eaq/service?'
p12
sS'responseFormat'
p13
g7
((lp14
S'http://www.opengis.net/waterml/2.0'
p15
aS'application/json'
p16
aS'http://www.opengis.net/om/2.0'
p17
aS'http://dd.eionet.europa.eu/schemaset/id2011850eu-1.0'
p18
aS'http://www.opengis.net/waterml-dr/2.0'
p19
atRp20
sS'organisation'
p21
S'RIVM'
p22
sS'costs'
p23
S'NONE'
p24
sS'version'
p25
g7
((lp26
S'1.0.0'
p27
atRp28
sS'error'
p29
I00
sS'featureofinterest'
p30
(dp31
S'NL.RIVM.AQ/SPO_F-NL00131_00046_101_101'
p32
(dp33
S'offerings'
p34
(lp35
sS'coords'
p36
(lp37
S'51.540520037824535 5.853069999999999 28.0'
p38
aS'http://www.opengis.net/def/crs/EPSG/0/4326'
p39
assS'NL.RIVM.AQ/SPO_F-NL00445_00038_100_101'
p40
(dp41
g34
(lp42
S'NL.RIVM.AQ/STA-NL00445/38'
p43
asg36
(lp44
S'52.075071037310146 4.315872 4.0'
p45
aS'http://www.opengis.net/def/crs/EPSG/0/4326'
p46
assS'NL.RIVM.AQ/SPO_F-NL00017_00021_100_100'
p47
(dp48
g34
(lp49
sg36
(lp50
S'52.358039037023744 4.8997 4.0'
p51
aS'http://www.opengis.net/def/crs/EPSG/0/4326'
p52
assS'NL.RIVM.AQ/SPO_F-NL00230_06001_100_101'
p53
(dp54
g34
(lp55
S'NL.RIVM.AQ/STA-NL00230/6001'
p56
asg36
(lp57
S'51.518440037845004 5.1484499999999995 15.0'
p58
aS'http://www.opengis.net/def/crs/EPSG/0/4326'
p59
assS'NL.RIVM.AQ/SPO_F-NL00240_00008_100_100'
p60
(dp61
g34
(lp62
sg36
(lp63
S'51.5935330377751 4.824944 4.0'
p64
aS'http://www.opengis.net/def/crs/EPSG/0/4326'
p65
assS'NL.RIVM.AQ/SPO_F-NL00245_00009_100_100'
p66
(dp67
g34
(lp68
sg36
(lp69
S'51.69938903767535 4.623598000000001 1.0'
p70
aS'http://www.opengis.net/def/crs/EPSG/0/4326'
p71
assS'NL.RIVM.AQ/SPO_F-NL00641_06001_100_100'
p72
(dp73
g34
(lp74
S'NL.RIVM.AQ/STA-NL00641/6001'
p75
asg36
(lp76
S'52.20153003718333 4.987444000000001 -1.0'
p77
aS'http://www.opengis.net/def/crs/EPSG/0/4326'
p78
assS'NL.RIVM.AQ/SPO_F-NL00937_00038_100_101'
p79
(dp80
g34
(lp81
S'NL.RIVM.AQ/STA-NL00937/38'
p82
asg36
(lp83
S'53.217796036096054 6.578900999999999 2.0'
p84
aS'http://www.opengis.net/def/crs/EPSG/0/4326'
p85
assS'NL.RIVM.AQ/SPO_F-NL00918_00007_101_102'
p86
(dp87
g34
(lp88
S'NL.RIVM.AQ/STA-NL00918/7'
p89
asg36
(lp90
S'52.91691592643034 5.573491569999999 1.0'
p91
aS'http://www.opengis.net/def/crs/EPSG/0/4326'
p92
assS'NL.RIVM.AQ/SPO_F-NL00444_00005_100_101'
p93
(dp94
g34
(lp95
sg36
(lp96
S'52.2965560370868 4.510817 4.0'
p97
aS'http://www.opengis.net/def/crs/EPSG/0/4326'
p98
assS'NL.RIVM.AQ/SPO_F-NL00627_00629_101_101'
p99
(dp100
g34
(lp101
sg36
(lp102
S'52.12083303726448 5.195567 3.0'
p103
aS'http://www.opengis.net/def/crs/EPSG/0/4326'
p104
assS'NL.RIVM.AQ/SPO_F-NL00631_00007_111_112'
p105
(dp106
g34
(lp107
S'NL.RIVM.AQ/STA-NL00631/7'
p108
asg36
(lp109
S'52.448710036929945 5.619210000000001 -4.0'
p110
aS'http://www.opengis.net/def/crs/EPSG/0/4326'
p111
assS'NL.RIVM.AQ/SPO_F-NL00643_00038_100_100'
p112
(dp113
g34
(lp114
S'NL.RIVM.AQ/STA-NL00643/38'
p115
asg36
(lp116
S'52.101308037284014 5.128183 2.0'
p117
aS'http://www.opengis.net/def/crs/EPSG/0/4326'
p118
assS'NL.RIVM.AQ/SPO_F-NL00537_00038_101_102'
p119
(dp120
g34
(lp121
sg36
(lp122
S'52.38104003700004 4.64759 1.0'
p123
aS'http://www.opengis.net/def/crs/EPSG/0/4326'
p124
assS'NL.RIVM.AQ/SPO_F-NL00631_00009_111_103'
p125
(dp126
g34
(lp127
sg36
(lp128
S'52.448710036929945 5.619210000000001 -4.0'
p129
aS'http://www.opengis.net/def/crs/EPSG/0/4326'
p130
assS'NL.RIVM.AQ/SPO_F-NL00107_00007_101_102'
p131
(dp132
g34
(lp133
S'NL.RIVM.AQ/STA-NL00107/7'
p134
asg36
(lp135
S'51.11919403820476 6.0423990000000005 32.0'
p136
aS'http://www.opengis.net/def/crs/EPSG/0/4326'
p137
assS'NL.RIVM.AQ/SPO_F-NL00014_00038_100_100'
p138
(dp139
g34
(lp140
sg36
(lp141
S'52.359714037022016 4.866208 2.0'
p142
aS'http://www.opengis.net/def/crs/EPSG/0/4326'
p143
assS'NL.RIVM.AQ/SPO_F-NL00929_00045_101_101'
p144
(dp145
g34
(lp146
sg36
(lp147
S'52.87572503647533 6.932432000000001 10.0'
p148
aS'http://www.opengis.net/def/crs/EPSG/0/4326'
p149
assS'NL.RIVM.AQ/SPO_F-NL00131_00659_100_100'
p150
(dp151
g34
(lp152
sg36
(lp153
S'51.540520037824535 5.853069999999999 28.0'
p154
aS'http://www.opengis.net/def/crs/EPSG/0/4326'
p155
assS'NL.RIVM.AQ/SPO_F-NL00235_00007_111_112'
p156
(dp157
g34
(lp158
S'NL.RIVM.AQ/STA-NL00235/7'
p159
asg36
(lp160
S'51.43444303792239 4.359835 18.0'
p161
aS'http://www.opengis.net/def/crs/EPSG/0/4326'
p162
assS'NL.RIVM.AQ/SPO_F-NL00631_00008_111_113'
p163
(dp164
g34
(lp165
sg36
(lp166
S'52.448710036929945 5.619210000000001 -4.0'
p167
aS'http://www.opengis.net/def/crs/EPSG/0/4326'
p168
assS'NL.RIVM.AQ/SPO_F-NL00561_06001_100_100'
p169
(dp170
g34
(lp171
sg36
(lp172
S'52.33400303704845 4.774006 1.0'
p173
aS'http://www.opengis.net/def/crs/EPSG/0/4326'
p174
assS'NL.RIVM.AQ/SPO_F-NL00131_00045_101_101'
p175
(dp176
g34
(lp177
sg36
(lp178
S'51.540520037824535 5.853069999999999 28.0'
p179
aS'http://www.opengis.net/def/crs/EPSG/0/4326'
p180
assS'NL.RIVM.AQ/SPO_F-NL00012_00038_101_101'
p181
(dp182
g34
(lp183
sg36
(lp184
S'52.38998303699083 4.887811 4.0'
p185
aS'http://www.opengis.net/def/crs/EPSG/0/4326'
p186
assS'NL.RIVM.AQ/SPO_F-NL00137_00008_100_101'
p187
(dp188
g34
(lp189
sg36
(lp190
S'50.88487003840636 5.977283 115.0'
p191
aS'http://www.opengis.net/def/crs/EPSG/0/4326'
p192
assS'NL.RIVM.AQ/SPO_F-NL00807_00007_101_102'
p193
(dp194
g34
(lp195
S'NL.RIVM.AQ/STA-NL00807/7'
p196
asg36
(lp197
S'52.388272036992596 6.402933000000001 7.0'
p198
aS'http://www.opengis.net/def/crs/EPSG/0/4326'
p199
assS'NL.RIVM.AQ/SPO_F-NL00496_00001_100_100'
p200
(dp201
g34
(lp202
sg36
(lp203
S'51.97780303740636 4.121944000000001 0.0'
p204
aS'http://www.opengis.net/def/crs/EPSG/0/4326'
p205
assS'NL.RIVM.AQ/SPO_F-NL00738_00038_100_101'
p206
(dp207
g34
(lp208
S'NL.RIVM.AQ/STA-NL00738/38'
p209
asg36
(lp210
S'52.111621037273686 5.708418999999999 18.0'
p211
aS'http://www.opengis.net/def/crs/EPSG/0/4326'
p212
assS'NL.RIVM.AQ/SPO_F-NL00627_00015_101_101'
p213
(dp214
g34
(lp215
sg36
(lp216
S'52.12083303726448 5.195567 3.0'
p217
aS'http://www.opengis.net/def/crs/EPSG/0/4326'
p218
assS'NL.RIVM.AQ/SPO_F-NL00561_00010_100_100'
p219
(dp220
g34
(lp221
sg36
(lp222
S'52.33400303704845 4.774006 1.0'
p223
aS'http://www.opengis.net/def/crs/EPSG/0/4326'
p224
assS'NL.RIVM.AQ/SPO_F-NL00487_00005_100_100'
p225
(dp226
g34
(lp227
sg36
(lp228
S'51.89114703749109 4.480690000000001 0.0'
p229
aS'http://www.opengis.net/def/crs/EPSG/0/4326'
p230
assS'NL.RIVM.AQ/SPO_F-NL00485_00008_100_100'
p231
(dp232
g34
(lp233
sg36
(lp234
S'51.867411037514145 4.355241999999999 1.0'
p235
aS'http://www.opengis.net/def/crs/EPSG/0/4326'
p236
assS'NL.RIVM.AQ/SPO_F-NL00230_00038_101_102'
p237
(dp238
g34
(lp239
S'NL.RIVM.AQ/STA-NL00230/38'
p240
asg36
(lp241
S'51.518440037845004 5.1484499999999995 15.0'
p242
aS'http://www.opengis.net/def/crs/EPSG/0/4326'
p243
assS'NL.RIVM.AQ/SPO_F-NL00639_00005_100_101'
p244
(dp245
g34
(lp246
sg36
(lp247
S'52.06774803731743 5.120507000000001 1.0'
p248
aS'http://www.opengis.net/def/crs/EPSG/0/4326'
p249
assS'NL.RIVM.AQ/SPO_F-NL00017_00038_101_101'
p250
(dp251
g34
(lp252
sg36
(lp253
S'52.358039037023744 4.8997 4.0'
p254
aS'http://www.opengis.net/def/crs/EPSG/0/4326'
p255
assS'NL.RIVM.AQ/SPO_F-NL00437_00005_100_101'
p256
(dp257
g34
(lp258
sg36
(lp259
S'51.78657903759214 4.450529000000001 -1.0'
p260
aS'http://www.opengis.net/def/crs/EPSG/0/4326'
p261
assS'NL.RIVM.AQ/SPO_F-NL00627_00014_102_102'
p262
(dp263
g34
(lp264
sg36
(lp265
S'52.12083303726448 5.195567 3.0'
p266
aS'http://www.opengis.net/def/crs/EPSG/0/4326'
p267
assS'NL.RIVM.AQ/SPO_F-NL00236_00007_101_102'
p268
(dp269
g34
(lp270
S'NL.RIVM.AQ/STA-NL00236/7'
p271
asg36
(lp272
S'51.46866203789098 5.47235 17.0'
p273
aS'http://www.opengis.net/def/crs/EPSG/0/4326'
p274
assS'NL.RIVM.AQ/SPO_F-NL00318_00008_111_112'
p275
(dp276
g34
(lp277
sg36
(lp278
S'51.294498038049305 3.749483999999999 5.0'
p279
aS'http://www.opengis.net/def/crs/EPSG/0/4326'
p280
assS'NL.RIVM.AQ/SPO_F-NL00633_00482_102_102'
p281
(dp282
g34
(lp283
sg36
(lp284
S'52.13795003724734 4.83819 -2.0'
p285
aS'http://www.opengis.net/def/crs/EPSG/0/4326'
p286
assS'NL.RIVM.AQ/SPO_F-NL00487_06001_100_100'
p287
(dp288
g34
(lp289
sg36
(lp290
S'51.89114703749109 4.480690000000001 0.0'
p291
aS'http://www.opengis.net/def/crs/EPSG/0/4326'
p292
assS'NL.RIVM.AQ/SPO_F-NL00012_06001_100_100'
p293
(dp294
g34
(lp295
sg36
(lp296
S'52.38998303699083 4.887811 4.0'
p297
aS'http://www.opengis.net/def/crs/EPSG/0/4326'
p298
assS'NL.RIVM.AQ/SPO_F-NL00014_00010_100_100'
p299
(dp300
g34
(lp301
sg36
(lp302
S'52.359714037022016 4.866208 2.0'
p303
aS'http://www.opengis.net/def/crs/EPSG/0/4326'
p304
assS'NL.RIVM.AQ/SPO_F-NL00244_00035_100_100'
p305
(dp306
g34
(lp307
sg36
(lp308
S'51.535901037828836 5.808593 1.0'
p309
aS'http://www.opengis.net/def/crs/EPSG/0/4326'
p310
assS'NL.RIVM.AQ/SPO_F-NL00020_00038_101_101'
p311
(dp312
g34
(lp313
sg36
(lp314
S'52.3747860370065 4.860319 4.0'
p315
aS'http://www.opengis.net/def/crs/EPSG/0/4326'
p316
assS'NL.RIVM.AQ/SPO_F-NL00631_00038_111_113'
p317
(dp318
g34
(lp319
S'NL.RIVM.AQ/STA-NL00631/38'
p320
asg36
(lp321
S'52.448710036929945 5.619210000000001 -4.0'
p322
aS'http://www.opengis.net/def/crs/EPSG/0/4326'
p323
assS'NL.RIVM.AQ/SPO_F-NL00433_00018_101_101'
p324
(dp325
g34
(lp326
sg36
(lp327
S'51.910474037472305 4.326303 -1.0'
p328
aS'http://www.opengis.net/def/crs/EPSG/0/4326'
p329
assS'NL.RIVM.AQ/SPO_F-NL00639_00038_101_102'
p330
(dp331
g34
(lp332
S'NL.RIVM.AQ/STA-NL00639/38'
p333
asg36
(lp334
S'52.06774803731743 5.120507000000001 1.0'
p335
aS'http://www.opengis.net/def/crs/EPSG/0/4326'
p336
assS'NL.RIVM.AQ/SPO_F-NL00418_00038_111_112'
p337
(dp338
g34
(lp339
S'NL.RIVM.AQ/STA-NL00418/38'
p340
asg36
(lp341
S'51.914233037468634 4.479923 3.0'
p342
aS'http://www.opengis.net/def/crs/EPSG/0/4326'
p343
assS'NL.RIVM.AQ/SPO_F-NL00485_00038_100_100'
p344
(dp345
g34
(lp346
sg36
(lp347
S'51.867411037514145 4.355241999999999 1.0'
p348
aS'http://www.opengis.net/def/crs/EPSG/0/4326'
p349
assS'NL.RIVM.AQ/SPO_F-NL00722_00008_111_112'
p350
(dp351
g34
(lp352
sg36
(lp353
S'52.09180103729347 6.605367 19.0'
p354
aS'http://www.opengis.net/def/crs/EPSG/0/4326'
p355
assS'NL.RIVM.AQ/SPO_F-NL00444_00631_101_101'
p356
(dp357
g34
(lp358
sg36
(lp359
S'52.2965560370868 4.510817 4.0'
p360
aS'http://www.opengis.net/def/crs/EPSG/0/4326'
p361
assS'NL.RIVM.AQ/SPO_F-NL00551_00038_100_100'
p362
(dp363
g34
(lp364
sg36
(lp365
S'52.46303903691505 4.6018419999999995 1.0'
p366
aS'http://www.opengis.net/def/crs/EPSG/0/4326'
p367
assS'NL.RIVM.AQ/SPO_F-NL00703_00009_100_100'
p368
(dp369
g34
(lp370
sg36
(lp371
S'52.39843703698208 4.728581 1.0'
p372
aS'http://www.opengis.net/def/crs/EPSG/0/4326'
p373
assS'NL.RIVM.AQ/SPO_F-NL00937_00008_100_101'
p374
(dp375
g34
(lp376
sg36
(lp377
S'53.217796036096054 6.578900999999999 2.0'
p378
aS'http://www.opengis.net/def/crs/EPSG/0/4326'
p379
assS'NL.RIVM.AQ/SPO_F-NL00486_00038_100_100'
p380
(dp381
g34
(lp382
sg36
(lp383
S'51.8878690374943 4.388808000000001 0.0'
p384
aS'http://www.opengis.net/def/crs/EPSG/0/4326'
p385
assS'NL.RIVM.AQ/SPO_F-NL00444_00038_100_101'
p386
(dp387
g34
(lp388
S'NL.RIVM.AQ/STA-NL00444/38'
p389
asg36
(lp390
S'52.2965560370868 4.510817 4.0'
p391
aS'http://www.opengis.net/def/crs/EPSG/0/4326'
p392
assS'NL.RIVM.AQ/SPO_F-NL00448_00006_100_100'
p393
(dp394
g34
(lp395
sg36
(lp396
S'51.927110037456046 4.461340000000001 2.0'
p397
aS'http://www.opengis.net/def/crs/EPSG/0/4326'
p398
assS'NL.RIVM.AQ/SPO_F-NL00237_00008_101_102'
p399
(dp400
g34
(lp401
sg36
(lp402
S'51.44415703791349 5.444833000000001 18.0'
p403
aS'http://www.opengis.net/def/crs/EPSG/0/4326'
p404
assS'NL.RIVM.AQ/SPO_F-NL00496_00020_100_100'
p405
(dp406
g34
(lp407
sg36
(lp408
S'51.97780303740636 4.121944000000001 0.0'
p409
aS'http://www.opengis.net/def/crs/EPSG/0/4326'
p410
assS'NL.RIVM.AQ/SPO_F-NL00488_06001_100_100'
p411
(dp412
g34
(lp413
sg36
(lp414
S'51.893617037488696 4.487528 0.0'
p415
aS'http://www.opengis.net/def/crs/EPSG/0/4326'
p416
assS'NL.RIVM.AQ/SPO_F-NL00241_00038_100_101'
p417
(dp418
g34
(lp419
S'NL.RIVM.AQ/STA-NL00241/38'
p420
asg36
(lp421
S'51.60308003776617 4.781016000000001 1.0'
p422
aS'http://www.opengis.net/def/crs/EPSG/0/4326'
p423
assS'NL.RIVM.AQ/SPO_F-NL00003_00038_101_101'
p424
(dp425
g34
(lp426
sg36
(lp427
S'52.38931403699149 4.943822 1.0'
p428
aS'http://www.opengis.net/def/crs/EPSG/0/4326'
p429
assS'NL.RIVM.AQ/SPO_F-NL00107_00038_101_102'
p430
(dp431
g34
(lp432
S'NL.RIVM.AQ/STA-NL00107/38'
p433
asg36
(lp434
S'51.11919403820476 6.0423990000000005 32.0'
p435
aS'http://www.opengis.net/def/crs/EPSG/0/4326'
p436
assS'NL.RIVM.AQ/SPO_F-NL00546_00005_100_100'
p437
(dp438
g34
(lp439
sg36
(lp440
S'52.420230036959516 4.83206 1.0'
p441
aS'http://www.opengis.net/def/crs/EPSG/0/4326'
p442
assS'NL.RIVM.AQ/SPO_F-NL00131_00015_101_101'
p443
(dp444
g34
(lp445
sg36
(lp446
S'51.540520037824535 5.853069999999999 28.0'
p447
aS'http://www.opengis.net/def/crs/EPSG/0/4326'
p448
assS'NL.RIVM.AQ/SPO_F-NL00929_00009_100_101'
p449
(dp450
g34
(lp451
sg36
(lp452
S'52.87572503647533 6.932432000000001 10.0'
p453
aS'http://www.opengis.net/def/crs/EPSG/0/4326'
p454
assS'NL.RIVM.AQ/SPO_F-NL00546_00021_100_100'
p455
(dp456
g34
(lp457
sg36
(lp458
S'52.420230036959516 4.83206 1.0'
p459
aS'http://www.opengis.net/def/crs/EPSG/0/4326'
p460
assS'NL.RIVM.AQ/SPO_F-NL00639_00008_101_102'
p461
(dp462
g34
(lp463
sg36
(lp464
S'52.06774803731743 5.120507000000001 1.0'
p465
aS'http://www.opengis.net/def/crs/EPSG/0/4326'
p466
assS'NL.RIVM.AQ/SPO_F-NL00485_00007_100_100'
p467
(dp468
g34
(lp469
sg36
(lp470
S'51.867411037514145 4.355241999999999 1.0'
p471
aS'http://www.opengis.net/def/crs/EPSG/0/4326'
p472
assS'NL.RIVM.AQ/SPO_F-NL00022_00009_101_101'
p473
(dp474
g34
(lp475
sg36
(lp476
S'52.36681103701471 4.793344000000001 -1.0'
p477
aS'http://www.opengis.net/def/crs/EPSG/0/4326'
p478
assS'NL.RIVM.AQ/SPO_F-NL00538_00006_112_112'
p479
(dp480
g34
(lp481
sg36
(lp482
S'52.803657036553524 5.050509 -4.0'
p483
aS'http://www.opengis.net/def/crs/EPSG/0/4326'
p484
assS'NL.RIVM.AQ/SPO_F-NL00631_00005_100_100'
p485
(dp486
g34
(lp487
sg36
(lp488
S'52.448710036929945 5.619210000000001 -4.0'
p489
aS'http://www.opengis.net/def/crs/EPSG/0/4326'
p490
assS'NL.RIVM.AQ/SPO_F-NL00934_00001_101_101'
p491
(dp492
g34
(lp493
S'NL.RIVM.AQ/STA-NL00934/1'
p494
asg36
(lp495
S'53.330425035968325 6.276815 1.0'
p496
aS'http://www.opengis.net/def/crs/EPSG/0/4326'
p497
assS'NL.RIVM.AQ/SPO_F-NL00131_00629_101_101'
p498
(dp499
g34
(lp500
sg36
(lp501
S'51.540520037824535 5.853069999999999 28.0'
p502
aS'http://www.opengis.net/def/crs/EPSG/0/4326'
p503
assS'NL.RIVM.AQ/SPO_F-NL00131_00008_111_112'
p504
(dp505
g34
(lp506
sg36
(lp507
S'51.540520037824535 5.853069999999999 28.0'
p508
aS'http://www.opengis.net/def/crs/EPSG/0/4326'
p509
assS'NL.RIVM.AQ/SPO_F-NL00131_00009_101_102'
p510
(dp511
g34
(lp512
sg36
(lp513
S'51.540520037824535 5.853069999999999 28.0'
p514
aS'http://www.opengis.net/def/crs/EPSG/0/4326'
p515
assS'NL.RIVM.AQ/SPO_F-NL00012_00010_100_100'
p516
(dp517
g34
(lp518
sg36
(lp519
S'52.38998303699083 4.887811 4.0'
p520
aS'http://www.opengis.net/def/crs/EPSG/0/4326'
p521
assS'NL.RIVM.AQ/SPO_F-NL00488_00008_100_100'
p522
(dp523
g34
(lp524
sg36
(lp525
S'51.893617037488696 4.487528 0.0'
p526
aS'http://www.opengis.net/def/crs/EPSG/0/4326'
p527
assS'NL.RIVM.AQ/SPO_F-NL00488_00009_100_100'
p528
(dp529
g34
(lp530
sg36
(lp531
S'51.893617037488696 4.487528 0.0'
p532
aS'http://www.opengis.net/def/crs/EPSG/0/4326'
p533
assS'NL.RIVM.AQ/SPO_F-NL00561_00038_100_100'
p534
(dp535
g34
(lp536
sg36
(lp537
S'52.33400303704845 4.774006 1.0'
p538
aS'http://www.opengis.net/def/crs/EPSG/0/4326'
p539
assS'NL.RIVM.AQ/SPO_F-NL00537_00008_101_102'
p540
(dp541
g34
(lp542
sg36
(lp543
S'52.38104003700004 4.64759 1.0'
p544
aS'http://www.opengis.net/def/crs/EPSG/0/4326'
p545
assS'NL.RIVM.AQ/SPO_F-NL00133_00038_101_102'
p546
(dp547
g34
(lp548
S'NL.RIVM.AQ/STA-NL00133/38'
p549
asg36
(lp550
S'50.902281038391635 5.881748000000001 96.0'
p551
aS'http://www.opengis.net/def/crs/EPSG/0/4326'
p552
assS'NL.RIVM.AQ/SPO_F-NL00561_00008_100_100'
p553
(dp554
g34
(lp555
sg36
(lp556
S'52.33400303704845 4.774006 1.0'
p557
aS'http://www.opengis.net/def/crs/EPSG/0/4326'
p558
assS'NL.RIVM.AQ/SPO_F-NL00241_00005_100_101'
p559
(dp560
g34
(lp561
sg36
(lp562
S'51.60308003776617 4.781016000000001 1.0'
p563
aS'http://www.opengis.net/def/crs/EPSG/0/4326'
p564
assS'NL.RIVM.AQ/SPO_F-NL00495_00005_100_100'
p565
(dp566
g34
(lp567
sg36
(lp568
S'51.932039037451226 4.228024999999998 0.0'
p569
aS'http://www.opengis.net/def/crs/EPSG/0/4326'
p570
assS'NL.RIVM.AQ/SPO_F-NL00131_00012_101_101'
p571
(dp572
g34
(lp573
sg36
(lp574
S'51.540520037824535 5.853069999999999 28.0'
p575
aS'http://www.opengis.net/def/crs/EPSG/0/4326'
p576
assS'NL.RIVM.AQ/SPO_F-NL00491_00009_100_100'
p577
(dp578
g34
(lp579
sg36
(lp580
S'51.93847203744493 4.430692 0.0'
p581
aS'http://www.opengis.net/def/crs/EPSG/0/4326'
p582
assS'NL.RIVM.AQ/SPO_F-NL00644_00010_100_100'
p583
(dp584
g34
(lp585
S'NL.RIVM.AQ/STA-NL00644/10'
p586
asg36
(lp587
S'51.97448903740961 4.923301 1.0'
p588
aS'http://www.opengis.net/def/crs/EPSG/0/4326'
p589
assS'NL.RIVM.AQ/SPO_F-NL00538_06001_100_100'
p590
(dp591
g34
(lp592
S'NL.RIVM.AQ/STA-NL00538/6001'
p593
asg36
(lp594
S'52.803657036553524 5.050509 -4.0'
p595
aS'http://www.opengis.net/def/crs/EPSG/0/4326'
p596
assS'NL.RIVM.AQ/SPO_F-NL00444_00046_101_101'
p597
(dp598
g34
(lp599
sg36
(lp600
S'52.2965560370868 4.510817 4.0'
p601
aS'http://www.opengis.net/def/crs/EPSG/0/4326'
p602
assS'NL.RIVM.AQ/SPO_F-NL00230_00009_101_102'
p603
(dp604
g34
(lp605
sg36
(lp606
S'51.518440037845004 5.1484499999999995 15.0'
p607
aS'http://www.opengis.net/def/crs/EPSG/0/4326'
p608
assS'NL.RIVM.AQ/SPO_F-NL00564_00008_100_100'
p609
(dp610
g34
(lp611
sg36
(lp612
S'52.28745003709609 4.766614000000001 1.0'
p613
aS'http://www.opengis.net/def/crs/EPSG/0/4326'
p614
assS'NL.RIVM.AQ/SPO_F-NL00546_00009_100_100'
p615
(dp616
g34
(lp617
sg36
(lp618
S'52.420230036959516 4.83206 1.0'
p619
aS'http://www.opengis.net/def/crs/EPSG/0/4326'
p620
assS'NL.RIVM.AQ/SPO_F-NL00485_00005_100_100'
p621
(dp622
g34
(lp623
sg36
(lp624
S'51.867411037514145 4.355241999999999 1.0'
p625
aS'http://www.opengis.net/def/crs/EPSG/0/4326'
p626
assS'NL.RIVM.AQ/SPO_F-NL00934_00007_111_112'
p627
(dp628
g34
(lp629
S'NL.RIVM.AQ/STA-NL00934/7'
p630
asg36
(lp631
S'53.330425035968325 6.276815 1.0'
p632
aS'http://www.opengis.net/def/crs/EPSG/0/4326'
p633
assS'NL.RIVM.AQ/SPO_F-NL00934_00659_100_100'
p634
(dp635
g34
(lp636
sg36
(lp637
S'53.330425035968325 6.276815 1.0'
p638
aS'http://www.opengis.net/def/crs/EPSG/0/4326'
p639
assS'NL.RIVM.AQ/SPO_F-NL00433_00007_101_102'
p640
(dp641
g34
(lp642
S'NL.RIVM.AQ/STA-NL00433/7'
p643
asg36
(lp644
S'51.910474037472305 4.326303 -1.0'
p645
aS'http://www.opengis.net/def/crs/EPSG/0/4326'
p646
assS'NL.RIVM.AQ/SPO_F-NL00245_00038_100_100'
p647
(dp648
g34
(lp649
sg36
(lp650
S'51.69938903767535 4.623598000000001 1.0'
p651
aS'http://www.opengis.net/def/crs/EPSG/0/4326'
p652
assS'NL.RIVM.AQ/SPO_F-NL00547_00008_100_100'
p653
(dp654
g34
(lp655
sg36
(lp656
S'52.23508303714937 5.181552 1.0'
p657
aS'http://www.opengis.net/def/crs/EPSG/0/4326'
p658
assS'NL.RIVM.AQ/SPO_F-NL00014_00008_100_100'
p659
(dp660
g34
(lp661
sg36
(lp662
S'52.359714037022016 4.866208 2.0'
p663
aS'http://www.opengis.net/def/crs/EPSG/0/4326'
p664
assS'NL.RIVM.AQ/SPO_F-NL00538_00009_101_102'
p665
(dp666
g34
(lp667
sg36
(lp668
S'52.803657036553524 5.050509 -4.0'
p669
aS'http://www.opengis.net/def/crs/EPSG/0/4326'
p670
assS'NL.RIVM.AQ/SPO_F-NL00444_00008_100_101'
p671
(dp672
g34
(lp673
sg36
(lp674
S'52.2965560370868 4.510817 4.0'
p675
aS'http://www.opengis.net/def/crs/EPSG/0/4326'
p676
assS'NL.RIVM.AQ/SPO_F-NL00633_00020_102_102'
p677
(dp678
g34
(lp679
sg36
(lp680
S'52.13795003724734 4.83819 -2.0'
p681
aS'http://www.opengis.net/def/crs/EPSG/0/4326'
p682
assS'NL.RIVM.AQ/SPO_F-NL00241_00008_100_101'
p683
(dp684
g34
(lp685
sg36
(lp686
S'51.60308003776617 4.781016000000001 1.0'
p687
aS'http://www.opengis.net/def/crs/EPSG/0/4326'
p688
assS'NL.RIVM.AQ/SPO_F-NL00938_06001_100_101'
p689
(dp690
g34
(lp691
S'NL.RIVM.AQ/STA-NL00938/6001'
p692
asg36
(lp693
S'53.2465350360636 6.608937 -1.0'
p694
aS'http://www.opengis.net/def/crs/EPSG/0/4326'
p695
assS'NL.RIVM.AQ/SPO_F-NL00003_00008_101_101'
p696
(dp697
g34
(lp698
sg36
(lp699
S'52.38931403699149 4.943822 1.0'
p700
aS'http://www.opengis.net/def/crs/EPSG/0/4326'
p701
assS'NL.RIVM.AQ/SPO_F-NL00247_00008_100_100'
p702
(dp703
g34
(lp704
sg36
(lp705
S'51.40736503794714 5.3933279999999995 22.0'
p706
aS'http://www.opengis.net/def/crs/EPSG/0/4326'
p707
assS'NL.RIVM.AQ/SPO_F-NL00017_00009_101_101'
p708
(dp709
g34
(lp710
sg36
(lp711
S'52.358039037023744 4.8997 4.0'
p712
aS'http://www.opengis.net/def/crs/EPSG/0/4326'
p713
assS'NL.RIVM.AQ/SPO_F-NL00704_00001_100_100'
p714
(dp715
g34
(lp716
sg36
(lp717
S'52.428017036951445 4.773478 4.0'
p718
aS'http://www.opengis.net/def/crs/EPSG/0/4326'
p719
assS'NL.RIVM.AQ/SPO_F-NL00131_00035_100_100'
p720
(dp721
g34
(lp722
sg36
(lp723
S'51.540520037824535 5.853069999999999 28.0'
p724
aS'http://www.opengis.net/def/crs/EPSG/0/4326'
p725
assS'NL.RIVM.AQ/SPO_F-NL00741_00010_100_100'
p726
(dp727
g34
(lp728
S'NL.RIVM.AQ/STA-NL00741/10'
p729
asg36
(lp730
S'51.841372037539365 5.857777 30.0'
p731
aS'http://www.opengis.net/def/crs/EPSG/0/4326'
p732
assS'NL.RIVM.AQ/SPO_F-NL00633_00007_111_112'
p733
(dp734
g34
(lp735
S'NL.RIVM.AQ/STA-NL00633/7'
p736
asg36
(lp737
S'52.13795003724734 4.83819 -2.0'
p738
aS'http://www.opengis.net/def/crs/EPSG/0/4326'
p739
assS'NL.RIVM.AQ/SPO_F-NL00934_00629_101_101'
p740
(dp741
g34
(lp742
sg36
(lp743
S'53.330425035968325 6.276815 1.0'
p744
aS'http://www.opengis.net/def/crs/EPSG/0/4326'
p745
assS'NL.RIVM.AQ/SPO_F-NL00495_06001_100_100'
p746
(dp747
g34
(lp748
sg36
(lp749
S'51.932039037451226 4.228024999999998 0.0'
p750
aS'http://www.opengis.net/def/crs/EPSG/0/4326'
p751
assS'NL.RIVM.AQ/SPO_F-NL00131_00631_101_101'
p752
(dp753
g34
(lp754
sg36
(lp755
S'51.540520037824535 5.853069999999999 28.0'
p756
aS'http://www.opengis.net/def/crs/EPSG/0/4326'
p757
assS'NL.RIVM.AQ/SPO_F-NL00003_00007_100_100'
p758
(dp759
g34
(lp760
sg36
(lp761
S'52.38931403699149 4.943822 1.0'
p762
aS'http://www.opengis.net/def/crs/EPSG/0/4326'
p763
assS'NL.RIVM.AQ/SPO_F-NL00484_00001_100_100'
p764
(dp765
g34
(lp766
sg36
(lp767
S'51.88888903749329 4.312500000000001 0.0'
p768
aS'http://www.opengis.net/def/crs/EPSG/0/4326'
p769
assS'NL.RIVM.AQ/SPO_F-NL00241_00007_100_101'
p770
(dp771
g34
(lp772
S'NL.RIVM.AQ/STA-NL00241/7'
p773
asg36
(lp774
S'51.60308003776617 4.781016000000001 1.0'
p775
aS'http://www.opengis.net/def/crs/EPSG/0/4326'
p776
assS'NL.RIVM.AQ/SPO_F-NL00545_00005_100_100'
p777
(dp778
g34
(lp779
sg36
(lp780
S'52.339496647042814 4.84102249 1.0'
p781
aS'http://www.opengis.net/def/crs/EPSG/0/4326'
p782
assS'NL.RIVM.AQ/SPO_F-NL00741_00005_100_101'
p783
(dp784
g34
(lp785
sg36
(lp786
S'51.841372037539365 5.857777 30.0'
p787
aS'http://www.opengis.net/def/crs/EPSG/0/4326'
p788
assS'NL.RIVM.AQ/SPO_F-NL00486_00001_100_100'
p789
(dp790
g34
(lp791
sg36
(lp792
S'51.8878690374943 4.388808000000001 0.0'
p793
aS'http://www.opengis.net/def/crs/EPSG/0/4326'
p794
assS'NL.RIVM.AQ/SPO_F-NL00491_06001_100_100'
p795
(dp796
g34
(lp797
sg36
(lp798
S'51.93847203744493 4.430692 0.0'
p799
aS'http://www.opengis.net/def/crs/EPSG/0/4326'
p800
assS'NL.RIVM.AQ/SPO_F-NL00538_00005_100_101'
p801
(dp802
g34
(lp803
sg36
(lp804
S'52.803657036553524 5.050509 -4.0'
p805
aS'http://www.opengis.net/def/crs/EPSG/0/4326'
p806
assS'NL.RIVM.AQ/SPO_F-NL00938_00008_100_101'
p807
(dp808
g34
(lp809
sg36
(lp810
S'53.2465350360636 6.608937 -1.0'
p811
aS'http://www.opengis.net/def/crs/EPSG/0/4326'
p812
assS'NL.RIVM.AQ/SPO_F-NL00489_00038_100_100'
p813
(dp814
g34
(lp815
sg36
(lp816
S'51.869431037512186 4.580058 0.0'
p817
aS'http://www.opengis.net/def/crs/EPSG/0/4326'
p818
assS'NL.RIVM.AQ/SPO_F-NL00448_06001_100_101'
p819
(dp820
g34
(lp821
S'NL.RIVM.AQ/STA-NL00448/6001'
p822
asg36
(lp823
S'51.927110037456046 4.461340000000001 2.0'
p824
aS'http://www.opengis.net/def/crs/EPSG/0/4326'
p825
assS'NL.RIVM.AQ/SPO_F-NL00003_00009_101_101'
p826
(dp827
g34
(lp828
sg36
(lp829
S'52.38931403699149 4.943822 1.0'
p830
aS'http://www.opengis.net/def/crs/EPSG/0/4326'
p831
assS'NL.RIVM.AQ/SPO_F-NL00633_00021_101_101'
p832
(dp833
g34
(lp834
sg36
(lp835
S'52.13795003724734 4.83819 -2.0'
p836
aS'http://www.opengis.net/def/crs/EPSG/0/4326'
p837
assS'NL.RIVM.AQ/SPO_F-NL00639_00021_100_101'
p838
(dp839
g34
(lp840
sg36
(lp841
S'52.06774803731743 5.120507000000001 1.0'
p842
aS'http://www.opengis.net/def/crs/EPSG/0/4326'
p843
assS'NL.RIVM.AQ/SPO_F-NL00137_00009_100_101'
p844
(dp845
g34
(lp846
sg36
(lp847
S'50.88487003840636 5.977283 115.0'
p848
aS'http://www.opengis.net/def/crs/EPSG/0/4326'
p849
assS'NL.RIVM.AQ/SPO_F-NL00012_00008_101_101'
p850
(dp851
g34
(lp852
sg36
(lp853
S'52.38998303699083 4.887811 4.0'
p854
aS'http://www.opengis.net/def/crs/EPSG/0/4326'
p855
assS'NL.RIVM.AQ/SPO_F-NL00301_00038_101_102'
p856
(dp857
g34
(lp858
S'NL.RIVM.AQ/STA-NL00301/38'
p859
asg36
(lp860
S'51.634706037736464 3.9166229999999995 -1.0'
p861
aS'http://www.opengis.net/def/crs/EPSG/0/4326'
p862
assS'NL.RIVM.AQ/SPO_F-NL00433_00629_101_101'
p863
(dp864
g34
(lp865
sg36
(lp866
S'51.910474037472305 4.326303 -1.0'
p867
aS'http://www.opengis.net/def/crs/EPSG/0/4326'
p868
assS'NL.RIVM.AQ/SPO_F-NL00564_00007_100_100'
p869
(dp870
g34
(lp871
sg36
(lp872
S'52.28745003709609 4.766614000000001 1.0'
p873
aS'http://www.opengis.net/def/crs/EPSG/0/4326'
p874
assS'NL.RIVM.AQ/SPO_F-NL00547_00009_100_100'
p875
(dp876
g34
(lp877
sg36
(lp878
S'52.23508303714937 5.181552 1.0'
p879
aS'http://www.opengis.net/def/crs/EPSG/0/4326'
p880
assS'NL.RIVM.AQ/SPO_F-NL00131_00018_101_101'
p881
(dp882
g34
(lp883
sg36
(lp884
S'51.540520037824535 5.853069999999999 28.0'
p885
aS'http://www.opengis.net/def/crs/EPSG/0/4326'
p886
assS'NL.RIVM.AQ/SPO_F-NL00442_00005_100_100'
p887
(dp888
g34
(lp889
sg36
(lp890
S'51.80065803757861 4.708238999999999 1.0'
p891
aS'http://www.opengis.net/def/crs/EPSG/0/4326'
p892
assS'NL.RIVM.AQ/SPO_F-NL00741_00038_100_101'
p893
(dp894
g34
(lp895
S'NL.RIVM.AQ/STA-NL00741/38'
p896
asg36
(lp897
S'51.841372037539365 5.857777 30.0'
p898
aS'http://www.opengis.net/def/crs/EPSG/0/4326'
p899
assS'NL.RIVM.AQ/SPO_F-NL00002_00038_101_101'
p900
(dp901
g34
(lp902
sg36
(lp903
S'52.385422036995514 4.87575 4.0'
p904
aS'http://www.opengis.net/def/crs/EPSG/0/4326'
p905
assS'NL.RIVM.AQ/SPO_F-NL00494_00005_100_100'
p906
(dp907
g34
(lp908
sg36
(lp909
S'51.92138903746164 4.401388999999999 3.0'
p910
aS'http://www.opengis.net/def/crs/EPSG/0/4326'
p911
assS'NL.RIVM.AQ/SPO_F-NL00633_00431_102_102'
p912
(dp913
g34
(lp914
sg36
(lp915
S'52.13795003724734 4.83819 -2.0'
p916
aS'http://www.opengis.net/def/crs/EPSG/0/4326'
p917
assS'NL.RIVM.AQ/SPO_F-NL00131_06001_100_101'
p918
(dp919
g34
(lp920
sg36
(lp921
S'51.540520037824535 5.853069999999999 28.0'
p922
aS'http://www.opengis.net/def/crs/EPSG/0/4326'
p923
assS'NL.RIVM.AQ/SPO_F-NL00538_00007_111_112'
p924
(dp925
g34
(lp926
S'NL.RIVM.AQ/STA-NL00538/7'
p927
asg36
(lp928
S'52.803657036553524 5.050509 -4.0'
p929
aS'http://www.opengis.net/def/crs/EPSG/0/4326'
p930
assS'NL.RIVM.AQ/SPO_F-NL00918_00009_101_102'
p931
(dp932
g34
(lp933
sg36
(lp934
S'52.91691592643034 5.573491569999999 1.0'
p935
aS'http://www.opengis.net/def/crs/EPSG/0/4326'
p936
assS'NL.RIVM.AQ/SPO_F-NL00002_00009_101_101'
p937
(dp938
g34
(lp939
sg36
(lp940
S'52.385422036995514 4.87575 4.0'
p941
aS'http://www.opengis.net/def/crs/EPSG/0/4326'
p942
assS'NL.RIVM.AQ/SPO_F-NL00433_00015_101_101'
p943
(dp944
g34
(lp945
sg36
(lp946
S'51.910474037472305 4.326303 -1.0'
p947
aS'http://www.opengis.net/def/crs/EPSG/0/4326'
p948
assS'NL.RIVM.AQ/SPO_F-NL00236_00005_100_101'
p949
(dp950
g34
(lp951
sg36
(lp952
S'51.46866203789098 5.47235 17.0'
p953
aS'http://www.opengis.net/def/crs/EPSG/0/4326'
p954
assS'NL.RIVM.AQ/SPO_F-NL00240_00005_100_101'
p955
(dp956
g34
(lp957
sg36
(lp958
S'51.5935330377751 4.824944 4.0'
p959
aS'http://www.opengis.net/def/crs/EPSG/0/4326'
p960
assS'NL.RIVM.AQ/SPO_F-NL00014_00009_100_100'
p961
(dp962
g34
(lp963
sg36
(lp964
S'52.359714037022016 4.866208 2.0'
p965
aS'http://www.opengis.net/def/crs/EPSG/0/4326'
p966
assS'NL.RIVM.AQ/SPO_F-NL00442_00007_100_100'
p967
(dp968
g34
(lp969
S'NL.RIVM.AQ/STA-NL00442/7'
p970
asg36
(lp971
S'51.80065803757861 4.708238999999999 1.0'
p972
aS'http://www.opengis.net/def/crs/EPSG/0/4326'
p973
assS'NL.RIVM.AQ/SPO_F-NL00240_00006_100_100'
p974
(dp975
g34
(lp976
sg36
(lp977
S'51.5935330377751 4.824944 4.0'
p978
aS'http://www.opengis.net/def/crs/EPSG/0/4326'
p979
assS'NL.RIVM.AQ/SPO_F-NL00627_00668_100_100'
p980
(dp981
g34
(lp982
sg36
(lp983
S'52.12083303726448 5.195567 3.0'
p984
aS'http://www.opengis.net/def/crs/EPSG/0/4326'
p985
assS'NL.RIVM.AQ/SPO_F-NL00496_06001_100_100'
p986
(dp987
g34
(lp988
sg36
(lp989
S'51.97780303740636 4.121944000000001 0.0'
p990
aS'http://www.opengis.net/def/crs/EPSG/0/4326'
p991
assS'NL.RIVM.AQ/SPO_F-NL00444_00007_100_101'
p992
(dp993
g34
(lp994
S'NL.RIVM.AQ/STA-NL00444/7'
p995
asg36
(lp996
S'52.2965560370868 4.510817 4.0'
p997
aS'http://www.opengis.net/def/crs/EPSG/0/4326'
p998
assS'NL.RIVM.AQ/SPO_F-NL00639_00431_100_101'
p999
(dp1000
g34
(lp1001
sg36
(lp1002
S'52.06774803731743 5.120507000000001 1.0'
p1003
aS'http://www.opengis.net/def/crs/EPSG/0/4326'
p1004
assS'NL.RIVM.AQ/SPO_F-NL00738_06001_100_100'
p1005
(dp1006
g34
(lp1007
S'NL.RIVM.AQ/STA-NL00738/6001'
p1008
asg36
(lp1009
S'52.111621037273686 5.708418999999999 18.0'
p1010
aS'http://www.opengis.net/def/crs/EPSG/0/4326'
p1011
assS'NL.RIVM.AQ/SPO_F-NL00312_00005_100_100'
p1012
(dp1013
g34
(lp1014
sg36
(lp1015
S'51.28452803805824 3.9153460000000004 1.0'
p1016
aS'http://www.opengis.net/def/crs/EPSG/0/4326'
p1017
assS'NL.RIVM.AQ/SPO_F-NL00136_00038_100_101'
p1018
(dp1019
g34
(lp1020
S'NL.RIVM.AQ/STA-NL00136/38'
p1021
asg36
(lp1022
S'50.88795903840375 5.970496 100.0'
p1023
aS'http://www.opengis.net/def/crs/EPSG/0/4326'
p1024
assS'NL.RIVM.AQ/SPO_F-NL00538_00047_101_101'
p1025
(dp1026
g34
(lp1027
sg36
(lp1028
S'52.803657036553524 5.050509 -4.0'
p1029
aS'http://www.opengis.net/def/crs/EPSG/0/4326'
p1030
assS'NL.RIVM.AQ/SPO_F-NL00818_00007_100_101'
p1031
(dp1032
g34
(lp1033
S'NL.RIVM.AQ/STA-NL00818/7'
p1034
asg36
(lp1035
S'52.65414403671388 6.017571 1.0'
p1036
aS'http://www.opengis.net/def/crs/EPSG/0/4326'
p1037
assS'NL.RIVM.AQ/SPO_F-NL00404_00007_111_112'
p1038
(dp1039
g34
(lp1040
S'NL.RIVM.AQ/STA-NL00404/7'
p1041
asg36
(lp1042
S'52.07714803730809 4.289185000000001 2.0'
p1043
aS'http://www.opengis.net/def/crs/EPSG/0/4326'
p1044
assS'NL.RIVM.AQ/SPO_F-NL00722_00001_111_111'
p1045
(dp1046
g34
(lp1047
S'NL.RIVM.AQ/STA-NL00722/1'
p1048
asg36
(lp1049
S'52.09180103729347 6.605367 19.0'
p1050
aS'http://www.opengis.net/def/crs/EPSG/0/4326'
p1051
assS'NL.RIVM.AQ/SPO_F-NL00022_00038_101_101'
p1052
(dp1053
g34
(lp1054
sg36
(lp1055
S'52.36681103701471 4.793344000000001 -1.0'
p1056
aS'http://www.opengis.net/def/crs/EPSG/0/4326'
p1057
assS'NL.RIVM.AQ/SPO_F-NL00016_00005_100_100'
p1058
(dp1059
g34
(lp1060
sg36
(lp1061
S'52.39397203698668 4.870157000000001 3.0'
p1062
aS'http://www.opengis.net/def/crs/EPSG/0/4326'
p1063
assS'NL.RIVM.AQ/SPO_F-NL00564_00009_100_100'
p1064
(dp1065
g34
(lp1066
sg36
(lp1067
S'52.28745003709609 4.766614000000001 1.0'
p1068
aS'http://www.opengis.net/def/crs/EPSG/0/4326'
p1069
assS'NL.RIVM.AQ/SPO_F-NL00556_00005_100_100'
p1070
(dp1071
g34
(lp1072
sg36
(lp1073
S'52.56359003680973 4.8617 1.0'
p1074
aS'http://www.opengis.net/def/crs/EPSG/0/4326'
p1075
assS'NL.RIVM.AQ/SPO_F-NL00742_06001_100_100'
p1076
(dp1077
g34
(lp1078
S'NL.RIVM.AQ/STA-NL00742/6001'
p1079
asg36
(lp1080
S'51.83822103754241 5.856938 30.0'
p1081
aS'http://www.opengis.net/def/crs/EPSG/0/4326'
p1082
assS'NL.RIVM.AQ/SPO_F-NL00821_06001_100_100'
p1083
(dp1084
g34
(lp1085
S'NL.RIVM.AQ/STA-NL00821/6001'
p1086
asg36
(lp1087
S'52.23450403714996 6.919493999999999 38.0'
p1088
aS'http://www.opengis.net/def/crs/EPSG/0/4326'
p1089
assS'NL.RIVM.AQ/SPO_F-NL00722_00005_100_101'
p1090
(dp1091
g34
(lp1092
sg36
(lp1093
S'52.09180103729347 6.605367 19.0'
p1094
aS'http://www.opengis.net/def/crs/EPSG/0/4326'
p1095
assS'NL.RIVM.AQ/SPO_F-NL00551_00005_100_100'
p1096
(dp1097
g34
(lp1098
sg36
(lp1099
S'52.46303903691505 4.6018419999999995 1.0'
p1100
aS'http://www.opengis.net/def/crs/EPSG/0/4326'
p1101
assS'NL.RIVM.AQ/SPO_F-NL00446_00009_100_100'
p1102
(dp1103
g34
(lp1104
sg36
(lp1105
S'52.03902303734593 4.359376000000001 -2.0'
p1106
aS'http://www.opengis.net/def/crs/EPSG/0/4326'
p1107
assS'NL.RIVM.AQ/SPO_F-NL00319_00005_100_100'
p1108
(dp1109
g34
(lp1110
sg36
(lp1111
S'51.46445703789485 3.744999 1.0'
p1112
aS'http://www.opengis.net/def/crs/EPSG/0/4326'
p1113
assS'NL.RIVM.AQ/SPO_F-NL00246_00005_100_100'
p1114
(dp1115
g34
(lp1116
sg36
(lp1117
S'51.65372903771855 4.515271 1.0'
p1118
aS'http://www.opengis.net/def/crs/EPSG/0/4326'
p1119
assS'NL.RIVM.AQ/SPO_F-NL00485_00021_100_100'
p1120
(dp1121
g34
(lp1122
sg36
(lp1123
S'51.867411037514145 4.355241999999999 1.0'
p1124
aS'http://www.opengis.net/def/crs/EPSG/0/4326'
p1125
assS'NL.RIVM.AQ/SPO_F-NL00418_00005_100_101'
p1126
(dp1127
g34
(lp1128
sg36
(lp1129
S'51.914233037468634 4.479923 3.0'
p1130
aS'http://www.opengis.net/def/crs/EPSG/0/4326'
p1131
assS'NL.RIVM.AQ/SPO_F-NL00014_06001_101_101'
p1132
(dp1133
g34
(lp1134
sg36
(lp1135
S'52.359714037022016 4.866208 2.0'
p1136
aS'http://www.opengis.net/def/crs/EPSG/0/4326'
p1137
assS'NL.RIVM.AQ/SPO_F-NL00019_00038_101_101'
p1138
(dp1139
g34
(lp1140
sg36
(lp1141
S'52.372056037009315 4.9044 2.0'
p1142
aS'http://www.opengis.net/def/crs/EPSG/0/4326'
p1143
assS'NL.RIVM.AQ/SPO_F-NL00488_00038_100_100'
p1144
(dp1145
g34
(lp1146
sg36
(lp1147
S'51.893617037488696 4.487528 0.0'
p1148
aS'http://www.opengis.net/def/crs/EPSG/0/4326'
p1149
assS'NL.RIVM.AQ/SPO_F-NL00487_00008_100_100'
p1150
(dp1151
g34
(lp1152
sg36
(lp1153
S'51.89114703749109 4.480690000000001 0.0'
p1154
aS'http://www.opengis.net/def/crs/EPSG/0/4326'
p1155
assS'NL.RIVM.AQ/SPO_F-NL00561_00005_100_100'
p1156
(dp1157
g34
(lp1158
sg36
(lp1159
S'52.33400303704845 4.774006 1.0'
p1160
aS'http://www.opengis.net/def/crs/EPSG/0/4326'
p1161
assS'NL.RIVM.AQ/SPO_F-NL00627_00012_102_102'
p1162
(dp1163
g34
(lp1164
sg36
(lp1165
S'52.12083303726448 5.195567 3.0'
p1166
aS'http://www.opengis.net/def/crs/EPSG/0/4326'
p1167
assS'NL.RIVM.AQ/SPO_F-NL00704_00038_100_100'
p1168
(dp1169
g34
(lp1170
sg36
(lp1171
S'52.428017036951445 4.773478 4.0'
p1172
aS'http://www.opengis.net/def/crs/EPSG/0/4326'
p1173
assS'NL.RIVM.AQ/SPO_F-NL00633_00009_101_102'
p1174
(dp1175
g34
(lp1176
sg36
(lp1177
S'52.13795003724734 4.83819 -2.0'
p1178
aS'http://www.opengis.net/def/crs/EPSG/0/4326'
p1179
assS'NL.RIVM.AQ/SPO_F-NL00404_06001_100_101'
p1180
(dp1181
g34
(lp1182
S'NL.RIVM.AQ/STA-NL00404/6001'
p1183
asg36
(lp1184
S'52.07714803730809 4.289185000000001 2.0'
p1185
aS'http://www.opengis.net/def/crs/EPSG/0/4326'
p1186
assS'NL.RIVM.AQ/SPO_F-NL00136_06001_100_100'
p1187
(dp1188
g34
(lp1189
sg36
(lp1190
S'50.88795903840375 5.970496 100.0'
p1191
aS'http://www.opengis.net/def/crs/EPSG/0/4326'
p1192
assS'NL.RIVM.AQ/SPO_F-NL00553_00010_100_100'
p1193
(dp1194
g34
(lp1195
sg36
(lp1196
S'52.49399203688275 4.601986000000001 7.0'
p1197
aS'http://www.opengis.net/def/crs/EPSG/0/4326'
p1198
assS'NL.RIVM.AQ/SPO_F-NL00235_00038_101_102'
p1199
(dp1200
g34
(lp1201
S'NL.RIVM.AQ/STA-NL00235/38'
p1202
asg36
(lp1203
S'51.43444303792239 4.359835 18.0'
p1204
aS'http://www.opengis.net/def/crs/EPSG/0/4326'
p1205
assS'NL.RIVM.AQ/SPO_F-NL00742_00038_100_101'
p1206
(dp1207
g34
(lp1208
S'NL.RIVM.AQ/STA-NL00742/38'
p1209
asg36
(lp1210
S'51.83822103754241 5.856938 30.0'
p1211
aS'http://www.opengis.net/def/crs/EPSG/0/4326'
p1212
assS'NL.RIVM.AQ/SPO_F-NL00482_00005_100_100'
p1213
(dp1214
g34
(lp1215
sg36
(lp1216
S'51.95941703742444 4.091394000000001 0.0'
p1217
aS'http://www.opengis.net/def/crs/EPSG/0/4326'
p1218
assS'NL.RIVM.AQ/SPO_F-NL00807_00009_101_102'
p1219
(dp1220
g34
(lp1221
sg36
(lp1222
S'52.388272036992596 6.402933000000001 7.0'
p1223
aS'http://www.opengis.net/def/crs/EPSG/0/4326'
p1224
assS'NL.RIVM.AQ/SPO_F-NL00489_06001_100_100'
p1225
(dp1226
g34
(lp1227
sg36
(lp1228
S'51.869431037512186 4.580058 0.0'
p1229
aS'http://www.opengis.net/def/crs/EPSG/0/4326'
p1230
assS'NL.RIVM.AQ/SPO_F-NL00643_00007_100_100'
p1231
(dp1232
g34
(lp1233
S'NL.RIVM.AQ/STA-NL00643/7'
p1234
asg36
(lp1235
S'52.101308037284014 5.128183 2.0'
p1236
aS'http://www.opengis.net/def/crs/EPSG/0/4326'
p1237
assS'NL.RIVM.AQ/SPO_F-NL00017_00005_100_100'
p1238
(dp1239
g34
(lp1240
sg36
(lp1241
S'52.358039037023744 4.8997 4.0'
p1242
aS'http://www.opengis.net/def/crs/EPSG/0/4326'
p1243
assS'NL.RIVM.AQ/SPO_F-NL00495_00001_100_100'
p1244
(dp1245
g34
(lp1246
sg36
(lp1247
S'51.932039037451226 4.228024999999998 0.0'
p1248
aS'http://www.opengis.net/def/crs/EPSG/0/4326'
p1249
assS'NL.RIVM.AQ/SPO_F-NL00551_00009_100_100'
p1250
(dp1251
g34
(lp1252
sg36
(lp1253
S'52.46303903691505 4.6018419999999995 1.0'
p1254
aS'http://www.opengis.net/def/crs/EPSG/0/4326'
p1255
assS'NL.RIVM.AQ/SPO_F-NL00495_00021_100_100'
p1256
(dp1257
g34
(lp1258
sg36
(lp1259
S'51.932039037451226 4.228024999999998 0.0'
p1260
aS'http://www.opengis.net/def/crs/EPSG/0/4326'
p1261
assS'NL.RIVM.AQ/SPO_F-NL00722_00009_101_102'
p1262
(dp1263
g34
(lp1264
sg36
(lp1265
S'52.09180103729347 6.605367 19.0'
p1266
aS'http://www.opengis.net/def/crs/EPSG/0/4326'
p1267
assS'NL.RIVM.AQ/SPO_F-NL00553_00009_100_100'
p1268
(dp1269
g34
(lp1270
sg36
(lp1271
S'52.49399203688275 4.601986000000001 7.0'
p1272
aS'http://www.opengis.net/def/crs/EPSG/0/4326'
p1273
assS'NL.RIVM.AQ/SPO_F-NL00627_00063_101_101'
p1274
(dp1275
g34
(lp1276
sg36
(lp1277
S'52.12083303726448 5.195567 3.0'
p1278
aS'http://www.opengis.net/def/crs/EPSG/0/4326'
p1279
assS'NL.RIVM.AQ/SPO_F-NL00703_00038_100_100'
p1280
(dp1281
g34
(lp1282
sg36
(lp1283
S'52.39843703698208 4.728581 1.0'
p1284
aS'http://www.opengis.net/def/crs/EPSG/0/4326'
p1285
assS'NL.RIVM.AQ/SPO_F-NL00247_00007_100_100'
p1286
(dp1287
g34
(lp1288
S'NL.RIVM.AQ/STA-NL00247/7'
p1289
asg36
(lp1290
S'51.40736503794714 5.3933279999999995 22.0'
p1291
aS'http://www.opengis.net/def/crs/EPSG/0/4326'
p1292
assS'NL.RIVM.AQ/SPO_F-NL00703_06001_100_100'
p1293
(dp1294
g34
(lp1295
sg36
(lp1296
S'52.39843703698208 4.728581 1.0'
p1297
aS'http://www.opengis.net/def/crs/EPSG/0/4326'
p1298
assS'NL.RIVM.AQ/SPO_F-NL00444_00045_101_101'
p1299
(dp1300
g34
(lp1301
sg36
(lp1302
S'52.2965560370868 4.510817 4.0'
p1303
aS'http://www.opengis.net/def/crs/EPSG/0/4326'
p1304
assS'NL.RIVM.AQ/SPO_F-NL00437_00008_101_102'
p1305
(dp1306
g34
(lp1307
sg36
(lp1308
S'51.78657903759214 4.450529000000001 -1.0'
p1309
aS'http://www.opengis.net/def/crs/EPSG/0/4326'
p1310
assS'NL.RIVM.AQ/SPO_F-NL00444_00009_100_101'
p1311
(dp1312
g34
(lp1313
sg36
(lp1314
S'52.2965560370868 4.510817 4.0'
p1315
aS'http://www.opengis.net/def/crs/EPSG/0/4326'
p1316
assS'NL.RIVM.AQ/SPO_F-NL00538_00631_101_101'
p1317
(dp1318
g34
(lp1319
sg36
(lp1320
S'52.803657036553524 5.050509 -4.0'
p1321
aS'http://www.opengis.net/def/crs/EPSG/0/4326'
p1322
assS'NL.RIVM.AQ/SPO_F-NL00496_00009_100_100'
p1323
(dp1324
g34
(lp1325
sg36
(lp1326
S'51.97780303740636 4.121944000000001 0.0'
p1327
aS'http://www.opengis.net/def/crs/EPSG/0/4326'
p1328
assS'NL.RIVM.AQ/SPO_F-NL00929_00047_101_101'
p1329
(dp1330
g34
(lp1331
sg36
(lp1332
S'52.87572503647533 6.932432000000001 10.0'
p1333
aS'http://www.opengis.net/def/crs/EPSG/0/4326'
p1334
assS'NL.RIVM.AQ/SPO_F-NL00017_00008_101_101'
p1335
(dp1336
g34
(lp1337
sg36
(lp1338
S'52.358039037023744 4.8997 4.0'
p1339
aS'http://www.opengis.net/def/crs/EPSG/0/4326'
p1340
assS'NL.RIVM.AQ/SPO_F-NL00641_00038_100_101'
p1341
(dp1342
g34
(lp1343
S'NL.RIVM.AQ/STA-NL00641/38'
p1344
asg36
(lp1345
S'52.20153003718333 4.987444000000001 -1.0'
p1346
aS'http://www.opengis.net/def/crs/EPSG/0/4326'
p1347
assS'NL.RIVM.AQ/SPO_F-NL00240_00009_100_100'
p1348
(dp1349
g34
(lp1350
sg36
(lp1351
S'51.5935330377751 4.824944 4.0'
p1352
aS'http://www.opengis.net/def/crs/EPSG/0/4326'
p1353
assS'NL.RIVM.AQ/SPO_F-NL00235_00005_100_100'
p1354
(dp1355
g34
(lp1356
sg36
(lp1357
S'51.43444303792239 4.359835 18.0'
p1358
aS'http://www.opengis.net/def/crs/EPSG/0/4326'
p1359
assS'NL.RIVM.AQ/SPO_F-NL00489_00005_100_100'
p1360
(dp1361
g34
(lp1362
sg36
(lp1363
S'51.869431037512186 4.580058 0.0'
p1364
aS'http://www.opengis.net/def/crs/EPSG/0/4326'
p1365
assS'NL.RIVM.AQ/SPO_F-NL00131_00038_111_112'
p1366
(dp1367
g34
(lp1368
S'NL.RIVM.AQ/STA-NL00131/38'
p1369
asg36
(lp1370
S'51.540520037824535 5.853069999999999 28.0'
p1371
aS'http://www.opengis.net/def/crs/EPSG/0/4326'
p1372
assS'NL.RIVM.AQ/SPO_F-NL00934_00038_111_112'
p1373
(dp1374
g34
(lp1375
S'NL.RIVM.AQ/STA-NL00934/38'
p1376
asg36
(lp1377
S'53.330425035968325 6.276815 1.0'
p1378
aS'http://www.opengis.net/def/crs/EPSG/0/4326'
p1379
assS'NL.RIVM.AQ/SPO_F-NL00496_00008_100_100'
p1380
(dp1381
g34
(lp1382
sg36
(lp1383
S'51.97780303740636 4.121944000000001 0.0'
p1384
aS'http://www.opengis.net/def/crs/EPSG/0/4326'
p1385
assS'NL.RIVM.AQ/SPO_F-NL00639_00020_100_101'
p1386
(dp1387
g34
(lp1388
sg36
(lp1389
S'52.06774803731743 5.120507000000001 1.0'
p1390
aS'http://www.opengis.net/def/crs/EPSG/0/4326'
p1391
assS'NL.RIVM.AQ/SPO_F-NL00444_06001_100_101'
p1392
(dp1393
g34
(lp1394
S'NL.RIVM.AQ/STA-NL00444/6001'
p1395
asg36
(lp1396
S'52.2965560370868 4.510817 4.0'
p1397
aS'http://www.opengis.net/def/crs/EPSG/0/4326'
p1398
assS'NL.RIVM.AQ/SPO_F-NL00131_00014_101_101'
p1399
(dp1400
g34
(lp1401
sg36
(lp1402
S'51.540520037824535 5.853069999999999 28.0'
p1403
aS'http://www.opengis.net/def/crs/EPSG/0/4326'
p1404
assS'NL.RIVM.AQ/SPO_F-NL00493_00007_100_100'
p1405
(dp1406
g34
(lp1407
sg36
(lp1408
S'51.92711103745604 4.461344 0.0'
p1409
aS'http://www.opengis.net/def/crs/EPSG/0/4326'
p1410
assS'NL.RIVM.AQ/SPO_F-NL00934_00005_100_100'
p1411
(dp1412
g34
(lp1413
sg36
(lp1414
S'53.330425035968325 6.276815 1.0'
p1415
aS'http://www.opengis.net/def/crs/EPSG/0/4326'
p1416
assS'NL.RIVM.AQ/SPO_F-NL00934_00009_101_102'
p1417
(dp1418
g34
(lp1419
sg36
(lp1420
S'53.330425035968325 6.276815 1.0'
p1421
aS'http://www.opengis.net/def/crs/EPSG/0/4326'
p1422
assS'NL.RIVM.AQ/SPO_F-NL00246_00008_100_100'
p1423
(dp1424
g34
(lp1425
sg36
(lp1426
S'51.65372903771855 4.515271 1.0'
p1427
aS'http://www.opengis.net/def/crs/EPSG/0/4326'
p1428
assS'NL.RIVM.AQ/SPO_F-NL00548_00008_100_100'
p1429
(dp1430
g34
(lp1431
sg36
(lp1432
S'52.26798003711595 5.1758299999999995 1.0'
p1433
aS'http://www.opengis.net/def/crs/EPSG/0/4326'
p1434
assS'NL.RIVM.AQ/SPO_F-NL00565_00005_100_100'
p1435
(dp1436
g34
(lp1437
sg36
(lp1438
S'52.32746403705515 4.715008000000001 1.0'
p1439
aS'http://www.opengis.net/def/crs/EPSG/0/4326'
p1440
assS'NL.RIVM.AQ/SPO_F-NL00482_06001_100_100'
p1441
(dp1442
g34
(lp1443
sg36
(lp1444
S'51.95941703742444 4.091394000000001 0.0'
p1445
aS'http://www.opengis.net/def/crs/EPSG/0/4326'
p1446
assS'NL.RIVM.AQ/SPO_F-NL00230_00005_100_101'
p1447
(dp1448
g34
(lp1449
sg36
(lp1450
S'51.518440037845004 5.1484499999999995 15.0'
p1451
aS'http://www.opengis.net/def/crs/EPSG/0/4326'
p1452
assS'NL.RIVM.AQ/SPO_F-NL00494_00009_100_100'
p1453
(dp1454
g34
(lp1455
sg36
(lp1456
S'51.92138903746164 4.401388999999999 3.0'
p1457
aS'http://www.opengis.net/def/crs/EPSG/0/4326'
p1458
assS'NL.RIVM.AQ/SPO_F-NL00644_06001_100_100'
p1459
(dp1460
g34
(lp1461
S'NL.RIVM.AQ/STA-NL00644/6001'
p1462
asg36
(lp1463
S'51.97448903740961 4.923301 1.0'
p1464
aS'http://www.opengis.net/def/crs/EPSG/0/4326'
p1465
assS'NL.RIVM.AQ/SPO_F-NL00237_00038_101_102'
p1466
(dp1467
g34
(lp1468
S'NL.RIVM.AQ/STA-NL00237/38'
p1469
asg36
(lp1470
S'51.44415703791349 5.444833000000001 18.0'
p1471
aS'http://www.opengis.net/def/crs/EPSG/0/4326'
p1472
assS'NL.RIVM.AQ/SPO_F-NL00496_00038_100_100'
p1473
(dp1474
g34
(lp1475
sg36
(lp1476
S'51.97780303740636 4.121944000000001 0.0'
p1477
aS'http://www.opengis.net/def/crs/EPSG/0/4326'
p1478
assS'NL.RIVM.AQ/SPO_F-NL00136_00008_100_101'
p1479
(dp1480
g34
(lp1481
sg36
(lp1482
S'50.88795903840375 5.970496 100.0'
p1483
aS'http://www.opengis.net/def/crs/EPSG/0/4326'
p1484
assS'NL.RIVM.AQ/SPO_F-NL00918_00038_101_102'
p1485
(dp1486
g34
(lp1487
S'NL.RIVM.AQ/STA-NL00918/38'
p1488
asg36
(lp1489
S'52.91691592643034 5.573491569999999 1.0'
p1490
aS'http://www.opengis.net/def/crs/EPSG/0/4326'
p1491
assS'NL.RIVM.AQ/SPO_F-NL00538_00008_111_112'
p1492
(dp1493
g34
(lp1494
sg36
(lp1495
S'52.803657036553524 5.050509 -4.0'
p1496
aS'http://www.opengis.net/def/crs/EPSG/0/4326'
p1497
assS'NL.RIVM.AQ/SPO_F-NL00495_00020_100_100'
p1498
(dp1499
g34
(lp1500
sg36
(lp1501
S'51.932039037451226 4.228024999999998 0.0'
p1502
aS'http://www.opengis.net/def/crs/EPSG/0/4326'
p1503
assS'NL.RIVM.AQ/SPO_F-NL00133_00009_101_102'
p1504
(dp1505
g34
(lp1506
sg36
(lp1507
S'50.902281038391635 5.881748000000001 96.0'
p1508
aS'http://www.opengis.net/def/crs/EPSG/0/4326'
p1509
assS'NL.RIVM.AQ/SPO_F-NL00633_00464_102_102'
p1510
(dp1511
g34
(lp1512
sg36
(lp1513
S'52.13795003724734 4.83819 -2.0'
p1514
aS'http://www.opengis.net/def/crs/EPSG/0/4326'
p1515
assS'NL.RIVM.AQ/SPO_F-NL00722_00007_111_112'
p1516
(dp1517
g34
(lp1518
S'NL.RIVM.AQ/STA-NL00722/7'
p1519
asg36
(lp1520
S'52.09180103729347 6.605367 19.0'
p1521
aS'http://www.opengis.net/def/crs/EPSG/0/4326'
p1522
assS'NL.RIVM.AQ/SPO_F-NL00641_00007_100_101'
p1523
(dp1524
g34
(lp1525
S'NL.RIVM.AQ/STA-NL00641/7'
p1526
asg36
(lp1527
S'52.20153003718333 4.987444000000001 -1.0'
p1528
aS'http://www.opengis.net/def/crs/EPSG/0/4326'
p1529
assS'NL.RIVM.AQ/SPO_F-NL00019_00009_101_101'
p1530
(dp1531
g34
(lp1532
sg36
(lp1533
S'52.372056037009315 4.9044 2.0'
p1534
aS'http://www.opengis.net/def/crs/EPSG/0/4326'
p1535
assS'NL.RIVM.AQ/SPO_F-NL00741_00008_100_101'
p1536
(dp1537
g34
(lp1538
sg36
(lp1539
S'51.841372037539365 5.857777 30.0'
p1540
aS'http://www.opengis.net/def/crs/EPSG/0/4326'
p1541
assS'NL.RIVM.AQ/SPO_F-NL00433_00008_111_112'
p1542
(dp1543
g34
(lp1544
sg36
(lp1545
S'51.910474037472305 4.326303 -1.0'
p1546
aS'http://www.opengis.net/def/crs/EPSG/0/4326'
p1547
assS'NL.RIVM.AQ/SPO_F-NL00937_00005_100_101'
p1548
(dp1549
g34
(lp1550
sg36
(lp1551
S'53.217796036096054 6.578900999999999 2.0'
p1552
aS'http://www.opengis.net/def/crs/EPSG/0/4326'
p1553
assS'NL.RIVM.AQ/SPO_F-NL00934_00014_102_102'
p1554
(dp1555
g34
(lp1556
sg36
(lp1557
S'53.330425035968325 6.276815 1.0'
p1558
aS'http://www.opengis.net/def/crs/EPSG/0/4326'
p1559
assS'NL.RIVM.AQ/SPO_F-NL00237_00009_101_102'
p1560
(dp1561
g34
(lp1562
sg36
(lp1563
S'51.44415703791349 5.444833000000001 18.0'
p1564
aS'http://www.opengis.net/def/crs/EPSG/0/4326'
p1565
assS'NL.RIVM.AQ/SPO_F-NL00236_00038_101_102'
p1566
(dp1567
g34
(lp1568
S'NL.RIVM.AQ/STA-NL00236/38'
p1569
asg36
(lp1570
S'51.46866203789098 5.47235 17.0'
p1571
aS'http://www.opengis.net/def/crs/EPSG/0/4326'
p1572
assS'NL.RIVM.AQ/SPO_F-NL00494_00001_100_100'
p1573
(dp1574
g34
(lp1575
sg36
(lp1576
S'51.92138903746164 4.401388999999999 3.0'
p1577
aS'http://www.opengis.net/def/crs/EPSG/0/4326'
p1578
assS'NL.RIVM.AQ/SPO_F-NL00937_06001_100_100'
p1579
(dp1580
g34
(lp1581
sg36
(lp1582
S'53.217796036096054 6.578900999999999 2.0'
p1583
aS'http://www.opengis.net/def/crs/EPSG/0/4326'
p1584
assS'NL.RIVM.AQ/SPO_F-NL00007_00008_101_101'
p1585
(dp1586
g34
(lp1587
sg36
(lp1588
S'52.381331036999754 4.845233 2.0'
p1589
aS'http://www.opengis.net/def/crs/EPSG/0/4326'
p1590
assS'NL.RIVM.AQ/SPO_F-NL00136_00009_100_101'
p1591
(dp1592
g34
(lp1593
sg36
(lp1594
S'50.88795903840375 5.970496 100.0'
p1595
aS'http://www.opengis.net/def/crs/EPSG/0/4326'
p1596
assS'NL.RIVM.AQ/SPO_F-NL00639_00009_101_102'
p1597
(dp1598
g34
(lp1599
sg36
(lp1600
S'52.06774803731743 5.120507000000001 1.0'
p1601
aS'http://www.opengis.net/def/crs/EPSG/0/4326'
p1602
assS'NL.RIVM.AQ/SPO_F-NL00318_00001_111_111'
p1603
(dp1604
g34
(lp1605
S'NL.RIVM.AQ/STA-NL00318/1'
p1606
asg36
(lp1607
S'51.294498038049305 3.749483999999999 5.0'
p1608
aS'http://www.opengis.net/def/crs/EPSG/0/4326'
p1609
assS'NL.RIVM.AQ/SPO_F-NL00636_00008_111_112'
p1610
(dp1611
g34
(lp1612
sg36
(lp1613
S'52.105031037280284 5.124464 1.0'
p1614
aS'http://www.opengis.net/def/crs/EPSG/0/4326'
p1615
assS'NL.RIVM.AQ/SPO_F-NL00553_00008_100_100'
p1616
(dp1617
g34
(lp1618
sg36
(lp1619
S'52.49399203688275 4.601986000000001 7.0'
p1620
aS'http://www.opengis.net/def/crs/EPSG/0/4326'
p1621
assS'NL.RIVM.AQ/SPO_F-NL00020_00008_101_101'
p1622
(dp1623
g34
(lp1624
sg36
(lp1625
S'52.3747860370065 4.860319 4.0'
p1626
aS'http://www.opengis.net/def/crs/EPSG/0/4326'
p1627
assS'NL.RIVM.AQ/SPO_F-NL00236_00009_101_102'
p1628
(dp1629
g34
(lp1630
sg36
(lp1631
S'51.46866203789098 5.47235 17.0'
p1632
aS'http://www.opengis.net/def/crs/EPSG/0/4326'
p1633
assS'NL.RIVM.AQ/SPO_F-NL00246_00009_100_100'
p1634
(dp1635
g34
(lp1636
sg36
(lp1637
S'51.65372903771855 4.515271 1.0'
p1638
aS'http://www.opengis.net/def/crs/EPSG/0/4326'
p1639
assS'NL.RIVM.AQ/SPO_F-NL00491_00005_100_100'
p1640
(dp1641
g34
(lp1642
sg36
(lp1643
S'51.93847203744493 4.430692 0.0'
p1644
aS'http://www.opengis.net/def/crs/EPSG/0/4326'
p1645
assS'NL.RIVM.AQ/SPO_F-NL00546_00008_100_100'
p1646
(dp1647
g34
(lp1648
sg36
(lp1649
S'52.420230036959516 4.83206 1.0'
p1650
aS'http://www.opengis.net/def/crs/EPSG/0/4326'
p1651
assS'NL.RIVM.AQ/SPO_F-NL00496_00007_100_100'
p1652
(dp1653
g34
(lp1654
sg36
(lp1655
S'51.97780303740636 4.121944000000001 0.0'
p1656
aS'http://www.opengis.net/def/crs/EPSG/0/4326'
p1657
assS'NL.RIVM.AQ/SPO_F-NL00486_00009_100_100'
p1658
(dp1659
g34
(lp1660
sg36
(lp1661
S'51.8878690374943 4.388808000000001 0.0'
p1662
aS'http://www.opengis.net/def/crs/EPSG/0/4326'
p1663
assS'NL.RIVM.AQ/SPO_F-NL00738_00008_100_101'
p1664
(dp1665
g34
(lp1666
sg36
(lp1667
S'52.111621037273686 5.708418999999999 18.0'
p1668
aS'http://www.opengis.net/def/crs/EPSG/0/4326'
p1669
assS'NL.RIVM.AQ/SPO_F-NL00573_00005_100_100'
p1670
(dp1671
g34
(lp1672
sg36
(lp1673
S'52.47887103689854 4.579343 1.0'
p1674
aS'http://www.opengis.net/def/crs/EPSG/0/4326'
p1675
assS'NL.RIVM.AQ/SPO_F-NL00537_00007_100_101'
p1676
(dp1677
g34
(lp1678
sg36
(lp1679
S'52.38104003700004 4.64759 1.0'
p1680
aS'http://www.opengis.net/def/crs/EPSG/0/4326'
p1681
assS'NL.RIVM.AQ/SPO_F-NL00433_06001_100_101'
p1682
(dp1683
g34
(lp1684
S'NL.RIVM.AQ/STA-NL00433/6001'
p1685
asg36
(lp1686
S'51.910474037472305 4.326303 -1.0'
p1687
aS'http://www.opengis.net/def/crs/EPSG/0/4326'
p1688
assS'NL.RIVM.AQ/SPO_F-NL00704_00021_100_100'
p1689
(dp1690
g34
(lp1691
sg36
(lp1692
S'52.428017036951445 4.773478 4.0'
p1693
aS'http://www.opengis.net/def/crs/EPSG/0/4326'
p1694
assS'NL.RIVM.AQ/SPO_F-NL00133_00001_101_101'
p1695
(dp1696
g34
(lp1697
S'NL.RIVM.AQ/STA-NL00133/1'
p1698
asg36
(lp1699
S'50.902281038391635 5.881748000000001 96.0'
p1700
aS'http://www.opengis.net/def/crs/EPSG/0/4326'
p1701
assS'NL.RIVM.AQ/SPO_F-NL00743_00005_100_100'
p1702
(dp1703
g34
(lp1704
sg36
(lp1705
S'52.15406703723116 5.664074000000001 1.0'
p1706
aS'http://www.opengis.net/def/crs/EPSG/0/4326'
p1707
assS'NL.RIVM.AQ/SPO_F-NL00704_06001_100_100'
p1708
(dp1709
g34
(lp1710
sg36
(lp1711
S'52.428017036951445 4.773478 4.0'
p1712
aS'http://www.opengis.net/def/crs/EPSG/0/4326'
p1713
assS'NL.RIVM.AQ/SPO_F-NL00934_00008_111_112'
p1714
(dp1715
g34
(lp1716
sg36
(lp1717
S'53.330425035968325 6.276815 1.0'
p1718
aS'http://www.opengis.net/def/crs/EPSG/0/4326'
p1719
assS'NL.RIVM.AQ/SPO_F-NL00433_00668_100_100'
p1720
(dp1721
g34
(lp1722
sg36
(lp1723
S'51.910474037472305 4.326303 -1.0'
p1724
aS'http://www.opengis.net/def/crs/EPSG/0/4326'
p1725
assS'NL.RIVM.AQ/SPO_F-NL00722_00035_100_100'
p1726
(dp1727
g34
(lp1728
sg36
(lp1729
S'52.09180103729347 6.605367 19.0'
p1730
aS'http://www.opengis.net/def/crs/EPSG/0/4326'
p1731
assS'NL.RIVM.AQ/SPO_F-NL00742_00007_100_101'
p1732
(dp1733
g34
(lp1734
S'NL.RIVM.AQ/STA-NL00742/7'
p1735
asg36
(lp1736
S'51.83822103754241 5.856938 30.0'
p1737
aS'http://www.opengis.net/def/crs/EPSG/0/4326'
p1738
assS'NL.RIVM.AQ/SPO_F-NL00491_00010_100_100'
p1739
(dp1740
g34
(lp1741
sg36
(lp1742
S'51.93847203744493 4.430692 0.0'
p1743
aS'http://www.opengis.net/def/crs/EPSG/0/4326'
p1744
assS'NL.RIVM.AQ/SPO_F-NL00446_00038_100_100'
p1745
(dp1746
g34
(lp1747
S'NL.RIVM.AQ/STA-NL00446/38'
p1748
asg36
(lp1749
S'52.03902303734593 4.359376000000001 -2.0'
p1750
aS'http://www.opengis.net/def/crs/EPSG/0/4326'
p1751
assS'NL.RIVM.AQ/SPO_F-NL00131_00668_100_100'
p1752
(dp1753
g34
(lp1754
sg36
(lp1755
S'51.540520037824535 5.853069999999999 28.0'
p1756
aS'http://www.opengis.net/def/crs/EPSG/0/4326'
p1757
assS'NL.RIVM.AQ/SPO_F-NL00495_00038_100_100'
p1758
(dp1759
g34
(lp1760
sg36
(lp1761
S'51.932039037451226 4.228024999999998 0.0'
p1762
aS'http://www.opengis.net/def/crs/EPSG/0/4326'
p1763
assS'NL.RIVM.AQ/SPO_F-NL00437_00038_101_102'
p1764
(dp1765
g34
(lp1766
S'NL.RIVM.AQ/STA-NL00437/38'
p1767
asg36
(lp1768
S'51.78657903759214 4.450529000000001 -1.0'
p1769
aS'http://www.opengis.net/def/crs/EPSG/0/4326'
p1770
assS'NL.RIVM.AQ/SPO_F-NL00483_00020_100_100'
p1771
(dp1772
g34
(lp1773
sg36
(lp1774
S'51.87006903751158 4.318061 0.0'
p1775
aS'http://www.opengis.net/def/crs/EPSG/0/4326'
p1776
assS'NL.RIVM.AQ/SPO_F-NL00493_00010_100_100'
p1777
(dp1778
g34
(lp1779
sg36
(lp1780
S'51.92711103745604 4.461344 0.0'
p1781
aS'http://www.opengis.net/def/crs/EPSG/0/4326'
p1782
assS'NL.RIVM.AQ/SPO_F-NL00318_00007_111_112'
p1783
(dp1784
g34
(lp1785
S'NL.RIVM.AQ/STA-NL00318/7'
p1786
asg36
(lp1787
S'51.294498038049305 3.749483999999999 5.0'
p1788
aS'http://www.opengis.net/def/crs/EPSG/0/4326'
p1789
assS'NL.RIVM.AQ/SPO_F-NL00549_00005_100_100'
p1790
(dp1791
g34
(lp1792
sg36
(lp1793
S'52.257356037126755 5.235903 1.0'
p1794
aS'http://www.opengis.net/def/crs/EPSG/0/4326'
p1795
assS'NL.RIVM.AQ/SPO_F-NL00572_00005_100_100'
p1796
(dp1797
g34
(lp1798
sg36
(lp1799
S'52.47440003690322 4.628799999999999 1.0'
p1800
aS'http://www.opengis.net/def/crs/EPSG/0/4326'
p1801
assS'NL.RIVM.AQ/SPO_F-NL00012_00005_100_100'
p1802
(dp1803
g34
(lp1804
sg36
(lp1805
S'52.38998303699083 4.887811 4.0'
p1806
aS'http://www.opengis.net/def/crs/EPSG/0/4326'
p1807
assS'NL.RIVM.AQ/SPO_F-NL00564_00038_100_100'
p1808
(dp1809
g34
(lp1810
sg36
(lp1811
S'52.28745003709609 4.766614000000001 1.0'
p1812
aS'http://www.opengis.net/def/crs/EPSG/0/4326'
p1813
assS'NL.RIVM.AQ/SPO_F-NL00701_00007_100_100'
p1814
(dp1815
g34
(lp1816
sg36
(lp1817
S'52.44801103693068 4.816706000000001 1.0'
p1818
aS'http://www.opengis.net/def/crs/EPSG/0/4326'
p1819
assS'NL.RIVM.AQ/SPO_F-NL00486_00008_100_100'
p1820
(dp1821
g34
(lp1822
sg36
(lp1823
S'51.8878690374943 4.388808000000001 0.0'
p1824
aS'http://www.opengis.net/def/crs/EPSG/0/4326'
p1825
assS'NL.RIVM.AQ/SPO_F-NL00807_00038_101_102'
p1826
(dp1827
g34
(lp1828
S'NL.RIVM.AQ/STA-NL00807/38'
p1829
asg36
(lp1830
S'52.388272036992596 6.402933000000001 7.0'
p1831
aS'http://www.opengis.net/def/crs/EPSG/0/4326'
p1832
assS'NL.RIVM.AQ/SPO_F-NL00549_00009_100_100'
p1833
(dp1834
g34
(lp1835
sg36
(lp1836
S'52.257356037126755 5.235903 1.0'
p1837
aS'http://www.opengis.net/def/crs/EPSG/0/4326'
p1838
assS'NL.RIVM.AQ/SPO_F-NL00241_00009_100_101'
p1839
(dp1840
g34
(lp1841
sg36
(lp1842
S'51.60308003776617 4.781016000000001 1.0'
p1843
aS'http://www.opengis.net/def/crs/EPSG/0/4326'
p1844
assS'NL.RIVM.AQ/SPO_F-NL00643_06001_100_100'
p1845
(dp1846
g34
(lp1847
S'NL.RIVM.AQ/STA-NL00643/6001'
p1848
asg36
(lp1849
S'52.101308037284014 5.128183 2.0'
p1850
aS'http://www.opengis.net/def/crs/EPSG/0/4326'
p1851
assS'NL.RIVM.AQ/SPO_F-NL00487_00010_100_100'
p1852
(dp1853
g34
(lp1854
sg36
(lp1855
S'51.89114703749109 4.480690000000001 0.0'
p1856
aS'http://www.opengis.net/def/crs/EPSG/0/4326'
p1857
assS'NL.RIVM.AQ/SPO_F-NL00538_00045_101_101'
p1858
(dp1859
g34
(lp1860
sg36
(lp1861
S'52.803657036553524 5.050509 -4.0'
p1862
aS'http://www.opengis.net/def/crs/EPSG/0/4326'
p1863
assS'NL.RIVM.AQ/SPO_F-NL00639_00482_100_101'
p1864
(dp1865
g34
(lp1866
sg36
(lp1867
S'52.06774803731743 5.120507000000001 1.0'
p1868
aS'http://www.opengis.net/def/crs/EPSG/0/4326'
p1869
assS'NL.RIVM.AQ/SPO_F-NL00738_00005_101_101'
p1870
(dp1871
g34
(lp1872
sg36
(lp1873
S'52.111621037273686 5.708418999999999 18.0'
p1874
aS'http://www.opengis.net/def/crs/EPSG/0/4326'
p1875
assS'NL.RIVM.AQ/SPO_F-NL00107_00009_101_102'
p1876
(dp1877
g34
(lp1878
sg36
(lp1879
S'51.11919403820476 6.0423990000000005 32.0'
p1880
aS'http://www.opengis.net/def/crs/EPSG/0/4326'
p1881
assS'NL.RIVM.AQ/SPO_F-NL00918_00008_101_102'
p1882
(dp1883
g34
(lp1884
sg36
(lp1885
S'52.91691592643034 5.573491569999999 1.0'
p1886
aS'http://www.opengis.net/def/crs/EPSG/0/4326'
p1887
assS'NL.RIVM.AQ/SPO_F-NL00641_00005_101_101'
p1888
(dp1889
g34
(lp1890
sg36
(lp1891
S'52.20153003718333 4.987444000000001 -1.0'
p1892
aS'http://www.opengis.net/def/crs/EPSG/0/4326'
p1893
assS'NL.RIVM.AQ/SPO_F-NL00318_00009_101_102'
p1894
(dp1895
g34
(lp1896
sg36
(lp1897
S'51.294498038049305 3.749483999999999 5.0'
p1898
aS'http://www.opengis.net/def/crs/EPSG/0/4326'
p1899
assS'NL.RIVM.AQ/SPO_F-NL00633_00005_100_100'
p1900
(dp1901
g34
(lp1902
sg36
(lp1903
S'52.13795003724734 4.83819 -2.0'
p1904
aS'http://www.opengis.net/def/crs/EPSG/0/4326'
p1905
assS'NL.RIVM.AQ/SPO_F-NL00017_00020_100_100'
p1906
(dp1907
g34
(lp1908
sg36
(lp1909
S'52.358039037023744 4.8997 4.0'
p1910
aS'http://www.opengis.net/def/crs/EPSG/0/4326'
p1911
assS'NL.RIVM.AQ/SPO_F-NL00022_00008_101_101'
p1912
(dp1913
g34
(lp1914
sg36
(lp1915
S'52.36681103701471 4.793344000000001 -1.0'
p1916
aS'http://www.opengis.net/def/crs/EPSG/0/4326'
p1917
assS'NL.RIVM.AQ/SPO_F-NL00131_00005_100_101'
p1918
(dp1919
g34
(lp1920
sg36
(lp1921
S'51.540520037824535 5.853069999999999 28.0'
p1922
aS'http://www.opengis.net/def/crs/EPSG/0/4326'
p1923
assS'NL.RIVM.AQ/SPO_F-NL00236_00008_101_102'
p1924
(dp1925
g34
(lp1926
sg36
(lp1927
S'51.46866203789098 5.47235 17.0'
p1928
aS'http://www.opengis.net/def/crs/EPSG/0/4326'
p1929
assS'NL.RIVM.AQ/SPO_F-NL00444_00047_101_101'
p1930
(dp1931
g34
(lp1932
sg36
(lp1933
S'52.2965560370868 4.510817 4.0'
p1934
aS'http://www.opengis.net/def/crs/EPSG/0/4326'
p1935
assS'NL.RIVM.AQ/SPO_F-NL00548_00009_100_100'
p1936
(dp1937
g34
(lp1938
sg36
(lp1939
S'52.26798003711595 5.1758299999999995 1.0'
p1940
aS'http://www.opengis.net/def/crs/EPSG/0/4326'
p1941
assS'NL.RIVM.AQ/SPO_F-NL00934_00012_102_102'
p1942
(dp1943
g34
(lp1944
sg36
(lp1945
S'53.330425035968325 6.276815 1.0'
p1946
aS'http://www.opengis.net/def/crs/EPSG/0/4326'
p1947
assS'NL.RIVM.AQ/SPO_F-NL00551_00010_100_100'
p1948
(dp1949
g34
(lp1950
sg36
(lp1951
S'52.46303903691505 4.6018419999999995 1.0'
p1952
aS'http://www.opengis.net/def/crs/EPSG/0/4326'
p1953
assS'NL.RIVM.AQ/SPO_F-NL00021_00009_101_101'
p1954
(dp1955
g34
(lp1956
sg36
(lp1957
S'52.32069203706209 4.988397000000001 -3.0'
p1958
aS'http://www.opengis.net/def/crs/EPSG/0/4326'
p1959
assS'NL.RIVM.AQ/SPO_F-NL00133_00007_111_112'
p1960
(dp1961
g34
(lp1962
S'NL.RIVM.AQ/STA-NL00133/7'
p1963
asg36
(lp1964
S'50.902281038391635 5.881748000000001 96.0'
p1965
aS'http://www.opengis.net/def/crs/EPSG/0/4326'
p1966
assS'NL.RIVM.AQ/SPO_F-NL00240_06001_100_100'
p1967
(dp1968
g34
(lp1969
S'NL.RIVM.AQ/STA-NL00240/6001'
p1970
asg36
(lp1971
S'51.5935330377751 4.824944 4.0'
p1972
aS'http://www.opengis.net/def/crs/EPSG/0/4326'
p1973
assS'NL.RIVM.AQ/SPO_F-NL00929_00631_101_101'
p1974
(dp1975
g34
(lp1976
sg36
(lp1977
S'52.87572503647533 6.932432000000001 10.0'
p1978
aS'http://www.opengis.net/def/crs/EPSG/0/4326'
p1979
assS'NL.RIVM.AQ/SPO_F-NL00929_00038_100_101'
p1980
(dp1981
g34
(lp1982
S'NL.RIVM.AQ/STA-NL00929/38'
p1983
asg36
(lp1984
S'52.87572503647533 6.932432000000001 10.0'
p1985
aS'http://www.opengis.net/def/crs/EPSG/0/4326'
p1986
assS'NL.RIVM.AQ/SPO_F-NL00433_00038_111_112'
p1987
(dp1988
g34
(lp1989
S'NL.RIVM.AQ/STA-NL00433/38'
p1990
asg36
(lp1991
S'51.910474037472305 4.326303 -1.0'
p1992
aS'http://www.opengis.net/def/crs/EPSG/0/4326'
p1993
assS'NL.RIVM.AQ/SPO_F-NL00489_00008_100_100'
p1994
(dp1995
g34
(lp1996
sg36
(lp1997
S'51.869431037512186 4.580058 0.0'
p1998
aS'http://www.opengis.net/def/crs/EPSG/0/4326'
p1999
assS'NL.RIVM.AQ/SPO_F-NL00636_00038_111_112'
p2000
(dp2001
g34
(lp2002
S'NL.RIVM.AQ/STA-NL00636/38'
p2003
asg36
(lp2004
S'52.105031037280284 5.124464 1.0'
p2005
aS'http://www.opengis.net/def/crs/EPSG/0/4326'
p2006
assS'NL.RIVM.AQ/SPO_F-NL00537_00009_101_102'
p2007
(dp2008
g34
(lp2009
sg36
(lp2010
S'52.38104003700004 4.64759 1.0'
p2011
aS'http://www.opengis.net/def/crs/EPSG/0/4326'
p2012
assS'NL.RIVM.AQ/SPO_F-NL00738_00009_100_101'
p2013
(dp2014
g34
(lp2015
sg36
(lp2016
S'52.111621037273686 5.708418999999999 18.0'
p2017
aS'http://www.opengis.net/def/crs/EPSG/0/4326'
p2018
assS'NL.RIVM.AQ/SPO_F-NL00433_00012_112_112'
p2019
(dp2020
g34
(lp2021
sg36
(lp2022
S'51.910474037472305 4.326303 -1.0'
p2023
aS'http://www.opengis.net/def/crs/EPSG/0/4326'
p2024
assS'NL.RIVM.AQ/SPO_F-NL00573_06001_100_100'
p2025
(dp2026
g34
(lp2027
sg36
(lp2028
S'52.47887103689854 4.579343 1.0'
p2029
aS'http://www.opengis.net/def/crs/EPSG/0/4326'
p2030
assS'NL.RIVM.AQ/SPO_F-NL00485_00009_100_100'
p2031
(dp2032
g34
(lp2033
sg36
(lp2034
S'51.867411037514145 4.355241999999999 1.0'
p2035
aS'http://www.opengis.net/def/crs/EPSG/0/4326'
p2036
assS'NL.RIVM.AQ/SPO_F-NL00546_00020_100_100'
p2037
(dp2038
g34
(lp2039
sg36
(lp2040
S'52.420230036959516 4.83206 1.0'
p2041
aS'http://www.opengis.net/def/crs/EPSG/0/4326'
p2042
assS'NL.RIVM.AQ/SPO_F-NL00404_00005_100_101'
p2043
(dp2044
g34
(lp2045
sg36
(lp2046
S'52.07714803730809 4.289185000000001 2.0'
p2047
aS'http://www.opengis.net/def/crs/EPSG/0/4326'
p2048
assS'NL.RIVM.AQ/SPO_F-NL00565_00008_100_100'
p2049
(dp2050
g34
(lp2051
sg36
(lp2052
S'52.32746403705515 4.715008000000001 1.0'
p2053
aS'http://www.opengis.net/def/crs/EPSG/0/4326'
p2054
assS'NL.RIVM.AQ/SPO_F-NL00138_06001_100_100'
p2055
(dp2056
g34
(lp2057
sg36
(lp2058
S'50.90031703839329 5.986853 98.0'
p2059
aS'http://www.opengis.net/def/crs/EPSG/0/4326'
p2060
assS'NL.RIVM.AQ/SPO_F-NL00547_00038_100_100'
p2061
(dp2062
g34
(lp2063
S'NL.RIVM.AQ/STA-NL00547/38'
p2064
asg36
(lp2065
S'52.23508303714937 5.181552 1.0'
p2066
aS'http://www.opengis.net/def/crs/EPSG/0/4326'
p2067
assS'NL.RIVM.AQ/SPO_F-NL00929_00007_100_101'
p2068
(dp2069
g34
(lp2070
S'NL.RIVM.AQ/STA-NL00929/7'
p2071
asg36
(lp2072
S'52.87572503647533 6.932432000000001 10.0'
p2073
aS'http://www.opengis.net/def/crs/EPSG/0/4326'
p2074
assS'NL.RIVM.AQ/SPO_F-NL00494_00007_100_100'
p2075
(dp2076
g34
(lp2077
sg36
(lp2078
S'51.92138903746164 4.401388999999999 3.0'
p2079
aS'http://www.opengis.net/def/crs/EPSG/0/4326'
p2080
assS'NL.RIVM.AQ/SPO_F-NL00007_00009_101_101'
p2081
(dp2082
g34
(lp2083
sg36
(lp2084
S'52.381331036999754 4.845233 2.0'
p2085
aS'http://www.opengis.net/def/crs/EPSG/0/4326'
p2086
assS'NL.RIVM.AQ/SPO_F-NL00012_00007_100_100'
p2087
(dp2088
g34
(lp2089
sg36
(lp2090
S'52.38998303699083 4.887811 4.0'
p2091
aS'http://www.opengis.net/def/crs/EPSG/0/4326'
p2092
assS'NL.RIVM.AQ/SPO_F-NL00493_00038_100_100'
p2093
(dp2094
g34
(lp2095
sg36
(lp2096
S'51.92711103745604 4.461344 0.0'
p2097
aS'http://www.opengis.net/def/crs/EPSG/0/4326'
p2098
assS'NL.RIVM.AQ/SPO_F-NL00240_00038_100_100'
p2099
(dp2100
g34
(lp2101
S'NL.RIVM.AQ/STA-NL00240/38'
p2102
asg36
(lp2103
S'51.5935330377751 4.824944 4.0'
p2104
aS'http://www.opengis.net/def/crs/EPSG/0/4326'
p2105
assS'NL.RIVM.AQ/SPO_F-NL00241_06001_100_101'
p2106
(dp2107
g34
(lp2108
sg36
(lp2109
S'51.60308003776617 4.781016000000001 1.0'
p2110
aS'http://www.opengis.net/def/crs/EPSG/0/4326'
p2111
assS'NL.RIVM.AQ/SPO_F-NL00019_00008_101_101'
p2112
(dp2113
g34
(lp2114
sg36
(lp2115
S'52.372056037009315 4.9044 2.0'
p2116
aS'http://www.opengis.net/def/crs/EPSG/0/4326'
p2117
assS'NL.RIVM.AQ/SPO_F-NL00553_00001_100_100'
p2118
(dp2119
g34
(lp2120
sg36
(lp2121
S'52.49399203688275 4.601986000000001 7.0'
p2122
aS'http://www.opengis.net/def/crs/EPSG/0/4326'
p2123
assS'NL.RIVM.AQ/SPO_F-NL00433_00014_102_102'
p2124
(dp2125
g34
(lp2126
sg36
(lp2127
S'51.910474037472305 4.326303 -1.0'
p2128
aS'http://www.opengis.net/def/crs/EPSG/0/4326'
p2129
assS'NL.RIVM.AQ/SPO_F-NL00007_00005_100_100'
p2130
(dp2131
g34
(lp2132
sg36
(lp2133
S'52.381331036999754 4.845233 2.0'
p2134
aS'http://www.opengis.net/def/crs/EPSG/0/4326'
p2135
assS'NL.RIVM.AQ/SPO_F-NL00818_00038_100_101'
p2136
(dp2137
g34
(lp2138
S'NL.RIVM.AQ/STA-NL00818/38'
p2139
asg36
(lp2140
S'52.65414403671388 6.017571 1.0'
p2141
aS'http://www.opengis.net/def/crs/EPSG/0/4326'
p2142
assS'NL.RIVM.AQ/SPO_F-NL00433_00659_100_100'
p2143
(dp2144
g34
(lp2145
sg36
(lp2146
S'51.910474037472305 4.326303 -1.0'
p2147
aS'http://www.opengis.net/def/crs/EPSG/0/4326'
p2148
assS'NL.RIVM.AQ/SPO_F-NL00549_00038_100_100'
p2149
(dp2150
g34
(lp2151
S'NL.RIVM.AQ/STA-NL00549/38'
p2152
asg36
(lp2153
S'52.257356037126755 5.235903 1.0'
p2154
aS'http://www.opengis.net/def/crs/EPSG/0/4326'
p2155
assS'NL.RIVM.AQ/SPO_F-NL00494_00038_100_100'
p2156
(dp2157
g34
(lp2158
sg36
(lp2159
S'51.92138903746164 4.401388999999999 3.0'
p2160
aS'http://www.opengis.net/def/crs/EPSG/0/4326'
p2161
assS'NL.RIVM.AQ/SPO_F-NL00703_00021_100_100'
p2162
(dp2163
g34
(lp2164
sg36
(lp2165
S'52.39843703698208 4.728581 1.0'
p2166
aS'http://www.opengis.net/def/crs/EPSG/0/4326'
p2167
assS'NL.RIVM.AQ/SPO_F-NL00938_00007_100_101'
p2168
(dp2169
g34
(lp2170
S'NL.RIVM.AQ/STA-NL00938/7'
p2171
asg36
(lp2172
S'53.2465350360636 6.608937 -1.0'
p2173
aS'http://www.opengis.net/def/crs/EPSG/0/4326'
p2174
assS'NL.RIVM.AQ/SPO_F-NL00742_00008_100_101'
p2175
(dp2176
g34
(lp2177
sg36
(lp2178
S'51.83822103754241 5.856938 30.0'
p2179
aS'http://www.opengis.net/def/crs/EPSG/0/4326'
p2180
assS'NL.RIVM.AQ/SPO_F-NL00487_00009_100_100'
p2181
(dp2182
g34
(lp2183
sg36
(lp2184
S'51.89114703749109 4.480690000000001 0.0'
p2185
aS'http://www.opengis.net/def/crs/EPSG/0/4326'
p2186
assS'NL.RIVM.AQ/SPO_F-NL00934_00015_101_101'
p2187
(dp2188
g34
(lp2189
sg36
(lp2190
S'53.330425035968325 6.276815 1.0'
p2191
aS'http://www.opengis.net/def/crs/EPSG/0/4326'
p2192
assS'NL.RIVM.AQ/SPO_F-NL00301_00009_101_102'
p2193
(dp2194
g34
(lp2195
sg36
(lp2196
S'51.634706037736464 3.9166229999999995 -1.0'
p2197
aS'http://www.opengis.net/def/crs/EPSG/0/4326'
p2198
assS'NL.RIVM.AQ/SPO_F-NL00237_00005_100_101'
p2199
(dp2200
g34
(lp2201
sg36
(lp2202
S'51.44415703791349 5.444833000000001 18.0'
p2203
aS'http://www.opengis.net/def/crs/EPSG/0/4326'
p2204
assS'NL.RIVM.AQ/SPO_F-NL00493_00008_100_100'
p2205
(dp2206
g34
(lp2207
sg36
(lp2208
S'51.92711103745604 4.461344 0.0'
p2209
aS'http://www.opengis.net/def/crs/EPSG/0/4326'
p2210
assS'NL.RIVM.AQ/SPO_F-NL00247_00009_100_100'
p2211
(dp2212
g34
(lp2213
sg36
(lp2214
S'51.40736503794714 5.3933279999999995 22.0'
p2215
aS'http://www.opengis.net/def/crs/EPSG/0/4326'
p2216
assS'NL.RIVM.AQ/SPO_F-NL00445_00005_100_101'
p2217
(dp2218
g34
(lp2219
sg36
(lp2220
S'52.075071037310146 4.315872 4.0'
p2221
aS'http://www.opengis.net/def/crs/EPSG/0/4326'
p2222
assS'NL.RIVM.AQ/SPO_F-NL00818_00008_100_101'
p2223
(dp2224
g34
(lp2225
sg36
(lp2226
S'52.65414403671388 6.017571 1.0'
p2227
aS'http://www.opengis.net/def/crs/EPSG/0/4326'
p2228
assS'NL.RIVM.AQ/SPO_F-NL00495_00009_100_100'
p2229
(dp2230
g34
(lp2231
sg36
(lp2232
S'51.932039037451226 4.228024999999998 0.0'
p2233
aS'http://www.opengis.net/def/crs/EPSG/0/4326'
p2234
assS'NL.RIVM.AQ/SPO_F-NL00131_00047_101_101'
p2235
(dp2236
g34
(lp2237
sg36
(lp2238
S'51.540520037824535 5.853069999999999 28.0'
p2239
aS'http://www.opengis.net/def/crs/EPSG/0/4326'
p2240
assS'NL.RIVM.AQ/SPO_F-NL00703_00008_100_100'
p2241
(dp2242
g34
(lp2243
sg36
(lp2244
S'52.39843703698208 4.728581 1.0'
p2245
aS'http://www.opengis.net/def/crs/EPSG/0/4326'
p2246
assS'NL.RIVM.AQ/SPO_F-NL00235_00009_101_102'
p2247
(dp2248
g34
(lp2249
sg36
(lp2250
S'51.43444303792239 4.359835 18.0'
p2251
aS'http://www.opengis.net/def/crs/EPSG/0/4326'
p2252
assS'NL.RIVM.AQ/SPO_F-NL00489_00009_100_100'
p2253
(dp2254
g34
(lp2255
sg36
(lp2256
S'51.869431037512186 4.580058 0.0'
p2257
aS'http://www.opengis.net/def/crs/EPSG/0/4326'
p2258
assS'NL.RIVM.AQ/SPO_F-NL00491_00038_100_100'
p2259
(dp2260
g34
(lp2261
sg36
(lp2262
S'51.93847203744493 4.430692 0.0'
p2263
aS'http://www.opengis.net/def/crs/EPSG/0/4326'
p2264
assS'NL.RIVM.AQ/SPO_F-NL00418_00007_120_121'
p2265
(dp2266
g34
(lp2267
S'NL.RIVM.AQ/STA-NL00418/7'
p2268
asg36
(lp2269
S'51.914233037468634 4.479923 3.0'
p2270
aS'http://www.opengis.net/def/crs/EPSG/0/4326'
p2271
assS'NL.RIVM.AQ/SPO_F-NL00491_00008_100_100'
p2272
(dp2273
g34
(lp2274
sg36
(lp2275
S'51.93847203744493 4.430692 0.0'
p2276
aS'http://www.opengis.net/def/crs/EPSG/0/4326'
p2277
assS'NL.RIVM.AQ/SPO_F-NL00014_00007_100_100'
p2278
(dp2279
g34
(lp2280
sg36
(lp2281
S'52.359714037022016 4.866208 2.0'
p2282
aS'http://www.opengis.net/def/crs/EPSG/0/4326'
p2283
assS'NL.RIVM.AQ/SPO_F-NL00494_00008_100_100'
p2284
(dp2285
g34
(lp2286
sg36
(lp2287
S'51.92138903746164 4.401388999999999 3.0'
p2288
aS'http://www.opengis.net/def/crs/EPSG/0/4326'
p2289
assS'NL.RIVM.AQ/SPO_F-NL00929_00005_100_101'
p2290
(dp2291
g34
(lp2292
sg36
(lp2293
S'52.87572503647533 6.932432000000001 10.0'
p2294
aS'http://www.opengis.net/def/crs/EPSG/0/4326'
p2295
assS'NL.RIVM.AQ/SPO_F-NL00494_06001_101_101'
p2296
(dp2297
g34
(lp2298
sg36
(lp2299
S'51.92138903746164 4.401388999999999 3.0'
p2300
aS'http://www.opengis.net/def/crs/EPSG/0/4326'
p2301
assS'NL.RIVM.AQ/SPO_F-NL00230_00008_101_102'
p2302
(dp2303
g34
(lp2304
sg36
(lp2305
S'51.518440037845004 5.1484499999999995 15.0'
p2306
aS'http://www.opengis.net/def/crs/EPSG/0/4326'
p2307
assS'NL.RIVM.AQ/SPO_F-NL00633_00038_101_102'
p2308
(dp2309
g34
(lp2310
S'NL.RIVM.AQ/STA-NL00633/38'
p2311
asg36
(lp2312
S'52.13795003724734 4.83819 -2.0'
p2313
aS'http://www.opengis.net/def/crs/EPSG/0/4326'
p2314
assS'NL.RIVM.AQ/SPO_F-NL00633_00010_101_101'
p2315
(dp2316
g34
(lp2317
sg36
(lp2318
S'52.13795003724734 4.83819 -2.0'
p2319
aS'http://www.opengis.net/def/crs/EPSG/0/4326'
p2320
assS'NL.RIVM.AQ/SPO_F-NL00445_00008_100_101'
p2321
(dp2322
g34
(lp2323
sg36
(lp2324
S'52.075071037310146 4.315872 4.0'
p2325
aS'http://www.opengis.net/def/crs/EPSG/0/4326'
p2326
assS'NL.RIVM.AQ/SPO_F-NL00929_00008_100_101'
p2327
(dp2328
g34
(lp2329
sg36
(lp2330
S'52.87572503647533 6.932432000000001 10.0'
p2331
aS'http://www.opengis.net/def/crs/EPSG/0/4326'
p2332
assS'NL.RIVM.AQ/SPO_F-NL00741_00009_100_101'
p2333
(dp2334
g34
(lp2335
sg36
(lp2336
S'51.841372037539365 5.857777 30.0'
p2337
aS'http://www.opengis.net/def/crs/EPSG/0/4326'
p2338
assS'NL.RIVM.AQ/SPO_F-NL00301_00008_101_102'
p2339
(dp2340
g34
(lp2341
sg36
(lp2342
S'51.634706037736464 3.9166229999999995 -1.0'
p2343
aS'http://www.opengis.net/def/crs/EPSG/0/4326'
p2344
assS'NL.RIVM.AQ/SPO_F-NL00738_00035_100_100'
p2345
(dp2346
g34
(lp2347
S'NL.RIVM.AQ/STA-NL00738/35'
p2348
asg36
(lp2349
S'52.111621037273686 5.708418999999999 18.0'
p2350
aS'http://www.opengis.net/def/crs/EPSG/0/4326'
p2351
assS'NL.RIVM.AQ/SPO_F-NL00701_00009_100_100'
p2352
(dp2353
g34
(lp2354
sg36
(lp2355
S'52.44801103693068 4.816706000000001 1.0'
p2356
aS'http://www.opengis.net/def/crs/EPSG/0/4326'
p2357
assS'NL.RIVM.AQ/SPO_F-NL00133_00005_100_101'
p2358
(dp2359
g34
(lp2360
sg36
(lp2361
S'50.902281038391635 5.881748000000001 96.0'
p2362
aS'http://www.opengis.net/def/crs/EPSG/0/4326'
p2363
assS'NL.RIVM.AQ/SPO_F-NL00742_00010_100_100'
p2364
(dp2365
g34
(lp2366
sg36
(lp2367
S'51.83822103754241 5.856938 30.0'
p2368
aS'http://www.opengis.net/def/crs/EPSG/0/4326'
p2369
assS'NL.RIVM.AQ/SPO_F-NL00244_00005_100_100'
p2370
(dp2371
g34
(lp2372
sg36
(lp2373
S'51.535901037828836 5.808593 1.0'
p2374
aS'http://www.opengis.net/def/crs/EPSG/0/4326'
p2375
assS'NL.RIVM.AQ/SPO_F-NL00495_00008_100_100'
p2376
(dp2377
g34
(lp2378
sg36
(lp2379
S'51.932039037451226 4.228024999999998 0.0'
p2380
aS'http://www.opengis.net/def/crs/EPSG/0/4326'
p2381
assS'NL.RIVM.AQ/SPO_F-NL00818_00009_100_101'
p2382
(dp2383
g34
(lp2384
sg36
(lp2385
S'52.65414403671388 6.017571 1.0'
p2386
aS'http://www.opengis.net/def/crs/EPSG/0/4326'
p2387
assS'NL.RIVM.AQ/SPO_F-NL00012_00009_101_101'
p2388
(dp2389
g34
(lp2390
sg36
(lp2391
S'52.38998303699083 4.887811 4.0'
p2392
aS'http://www.opengis.net/def/crs/EPSG/0/4326'
p2393
assS'NL.RIVM.AQ/SPO_F-NL00444_00006_101_101'
p2394
(dp2395
g34
(lp2396
sg36
(lp2397
S'52.2965560370868 4.510817 4.0'
p2398
aS'http://www.opengis.net/def/crs/EPSG/0/4326'
p2399
assS'NL.RIVM.AQ/SPO_F-NL00722_00038_111_112'
p2400
(dp2401
g34
(lp2402
S'NL.RIVM.AQ/STA-NL00722/38'
p2403
asg36
(lp2404
S'52.09180103729347 6.605367 19.0'
p2405
aS'http://www.opengis.net/def/crs/EPSG/0/4326'
p2406
assS'NL.RIVM.AQ/SPO_F-NL00002_00008_101_101'
p2407
(dp2408
g34
(lp2409
sg36
(lp2410
S'52.385422036995514 4.87575 4.0'
p2411
aS'http://www.opengis.net/def/crs/EPSG/0/4326'
p2412
assS'NL.RIVM.AQ/SPO_F-NL00496_00021_100_100'
p2413
(dp2414
g34
(lp2415
sg36
(lp2416
S'51.97780303740636 4.121944000000001 0.0'
p2417
aS'http://www.opengis.net/def/crs/EPSG/0/4326'
p2418
assS'NL.RIVM.AQ/SPO_F-NL00701_00038_100_100'
p2419
(dp2420
g34
(lp2421
sg36
(lp2422
S'52.44801103693068 4.816706000000001 1.0'
p2423
aS'http://www.opengis.net/def/crs/EPSG/0/4326'
p2424
assS'NL.RIVM.AQ/SPO_F-NL00235_00035_100_100'
p2425
(dp2426
g34
(lp2427
sg36
(lp2428
S'51.43444303792239 4.359835 18.0'
p2429
aS'http://www.opengis.net/def/crs/EPSG/0/4326'
p2430
assS'NL.RIVM.AQ/SPO_F-NL00551_00008_100_100'
p2431
(dp2432
g34
(lp2433
sg36
(lp2434
S'52.46303903691505 4.6018419999999995 1.0'
p2435
aS'http://www.opengis.net/def/crs/EPSG/0/4326'
p2436
assS'NL.RIVM.AQ/SPO_F-NL00627_00659_100_100'
p2437
(dp2438
g34
(lp2439
sg36
(lp2440
S'52.12083303726448 5.195567 3.0'
p2441
aS'http://www.opengis.net/def/crs/EPSG/0/4326'
p2442
assS'NL.RIVM.AQ/SPO_F-NL00131_00063_101_101'
p2443
(dp2444
g34
(lp2445
sg36
(lp2446
S'51.540520037824535 5.853069999999999 28.0'
p2447
aS'http://www.opengis.net/def/crs/EPSG/0/4326'
p2448
assS'NL.RIVM.AQ/SPO_F-NL00547_00005_100_100'
p2449
(dp2450
g34
(lp2451
sg36
(lp2452
S'52.23508303714937 5.181552 1.0'
p2453
aS'http://www.opengis.net/def/crs/EPSG/0/4326'
p2454
assS'NL.RIVM.AQ/SPO_F-NL00433_00005_100_101'
p2455
(dp2456
g34
(lp2457
sg36
(lp2458
S'51.910474037472305 4.326303 -1.0'
p2459
aS'http://www.opengis.net/def/crs/EPSG/0/4326'
p2460
assS'NL.RIVM.AQ/SPO_F-NL00561_00009_100_100'
p2461
(dp2462
g34
(lp2463
sg36
(lp2464
S'52.33400303704845 4.774006 1.0'
p2465
aS'http://www.opengis.net/def/crs/EPSG/0/4326'
p2466
assS'NL.RIVM.AQ/SPO_F-NL00007_06001_100_100'
p2467
(dp2468
g34
(lp2469
sg36
(lp2470
S'52.381331036999754 4.845233 2.0'
p2471
aS'http://www.opengis.net/def/crs/EPSG/0/4326'
p2472
assS'NL.RIVM.AQ/SPO_F-NL00741_06001_100_100'
p2473
(dp2474
g34
(lp2475
sg36
(lp2476
S'51.841372037539365 5.857777 30.0'
p2477
aS'http://www.opengis.net/def/crs/EPSG/0/4326'
p2478
assS'NL.RIVM.AQ/SPO_F-NL00807_00008_101_102'
p2479
(dp2480
g34
(lp2481
sg36
(lp2482
S'52.388272036992596 6.402933000000001 7.0'
p2483
aS'http://www.opengis.net/def/crs/EPSG/0/4326'
p2484
assS'NL.RIVM.AQ/SPO_F-NL00137_00007_100_101'
p2485
(dp2486
g34
(lp2487
sg36
(lp2488
S'50.88487003840636 5.977283 115.0'
p2489
aS'http://www.opengis.net/def/crs/EPSG/0/4326'
p2490
assS'NL.RIVM.AQ/SPO_F-NL00433_00063_101_101'
p2491
(dp2492
g34
(lp2493
sg36
(lp2494
S'51.910474037472305 4.326303 -1.0'
p2495
aS'http://www.opengis.net/def/crs/EPSG/0/4326'
p2496
assS'NL.RIVM.AQ/SPO_F-NL00437_00007_101_102'
p2497
(dp2498
g34
(lp2499
S'NL.RIVM.AQ/STA-NL00437/7'
p2500
asg36
(lp2501
S'51.78657903759214 4.450529000000001 -1.0'
p2502
aS'http://www.opengis.net/def/crs/EPSG/0/4326'
p2503
assS'NL.RIVM.AQ/SPO_F-NL00937_00009_100_101'
p2504
(dp2505
g34
(lp2506
sg36
(lp2507
S'53.217796036096054 6.578900999999999 2.0'
p2508
aS'http://www.opengis.net/def/crs/EPSG/0/4326'
p2509
assS'NL.RIVM.AQ/SPO_F-NL00483_00021_100_100'
p2510
(dp2511
g34
(lp2512
sg36
(lp2513
S'51.87006903751158 4.318061 0.0'
p2514
aS'http://www.opengis.net/def/crs/EPSG/0/4326'
p2515
assS'NL.RIVM.AQ/SPO_F-NL00318_00005_100_101'
p2516
(dp2517
g34
(lp2518
sg36
(lp2519
S'51.294498038049305 3.749483999999999 5.0'
p2520
aS'http://www.opengis.net/def/crs/EPSG/0/4326'
p2521
assS'NL.RIVM.AQ/SPO_F-NL00643_00008_100_100'
p2522
(dp2523
g34
(lp2524
sg36
(lp2525
S'52.101308037284014 5.128183 2.0'
p2526
aS'http://www.opengis.net/def/crs/EPSG/0/4326'
p2527
assS'NL.RIVM.AQ/SPO_F-NL00442_00038_100_100'
p2528
(dp2529
g34
(lp2530
S'NL.RIVM.AQ/STA-NL00442/38'
p2531
asg36
(lp2532
S'51.80065803757861 4.708238999999999 1.0'
p2533
aS'http://www.opengis.net/def/crs/EPSG/0/4326'
p2534
assS'NL.RIVM.AQ/SPO_F-NL00444_00035_100_100'
p2535
(dp2536
g34
(lp2537
S'NL.RIVM.AQ/STA-NL00444/35'
p2538
asg36
(lp2539
S'52.2965560370868 4.510817 4.0'
p2540
aS'http://www.opengis.net/def/crs/EPSG/0/4326'
p2541
assS'NL.RIVM.AQ/SPO_F-NL00442_00008_100_100'
p2542
(dp2543
g34
(lp2544
sg36
(lp2545
S'51.80065803757861 4.708238999999999 1.0'
p2546
aS'http://www.opengis.net/def/crs/EPSG/0/4326'
p2547
assS'NL.RIVM.AQ/SPO_F-NL00704_00005_100_100'
p2548
(dp2549
g34
(lp2550
sg36
(lp2551
S'52.428017036951445 4.773478 4.0'
p2552
aS'http://www.opengis.net/def/crs/EPSG/0/4326'
p2553
assS'NL.RIVM.AQ/SPO_F-NL00488_00010_100_100'
p2554
(dp2555
g34
(lp2556
sg36
(lp2557
S'51.893617037488696 4.487528 0.0'
p2558
aS'http://www.opengis.net/def/crs/EPSG/0/4326'
p2559
assS'NL.RIVM.AQ/SPO_F-NL00418_00008_111_112'
p2560
(dp2561
g34
(lp2562
sg36
(lp2563
S'51.914233037468634 4.479923 3.0'
p2564
aS'http://www.opengis.net/def/crs/EPSG/0/4326'
p2565
assS'NL.RIVM.AQ/SPO_F-NL00433_00009_101_102'
p2566
(dp2567
g34
(lp2568
sg36
(lp2569
S'51.910474037472305 4.326303 -1.0'
p2570
aS'http://www.opengis.net/def/crs/EPSG/0/4326'
p2571
assS'NL.RIVM.AQ/SPO_F-NL00247_00038_100_100'
p2572
(dp2573
g34
(lp2574
S'NL.RIVM.AQ/STA-NL00247/38'
p2575
asg36
(lp2576
S'51.40736503794714 5.3933279999999995 22.0'
p2577
aS'http://www.opengis.net/def/crs/EPSG/0/4326'
p2578
assS'NL.RIVM.AQ/SPO_F-NL00644_00009_100_100'
p2579
(dp2580
g34
(lp2581
sg36
(lp2582
S'51.97448903740961 4.923301 1.0'
p2583
aS'http://www.opengis.net/def/crs/EPSG/0/4326'
p2584
assS'NL.RIVM.AQ/SPO_F-NL00704_00020_100_100'
p2585
(dp2586
g34
(lp2587
sg36
(lp2588
S'52.428017036951445 4.773478 4.0'
p2589
aS'http://www.opengis.net/def/crs/EPSG/0/4326'
p2590
assS'NL.RIVM.AQ/SPO_F-NL00021_00008_101_101'
p2591
(dp2592
g34
(lp2593
sg36
(lp2594
S'52.32069203706209 4.988397000000001 -3.0'
p2595
aS'http://www.opengis.net/def/crs/EPSG/0/4326'
p2596
assS'NL.RIVM.AQ/SPO_F-NL00538_00035_100_100'
p2597
(dp2598
g34
(lp2599
S'NL.RIVM.AQ/STA-NL00538/35'
p2600
asg36
(lp2601
S'52.803657036553524 5.050509 -4.0'
p2602
aS'http://www.opengis.net/def/crs/EPSG/0/4326'
p2603
assS'NL.RIVM.AQ/SPO_F-NL00818_00005_100_101'
p2604
(dp2605
g34
(lp2606
sg36
(lp2607
S'52.65414403671388 6.017571 1.0'
p2608
aS'http://www.opengis.net/def/crs/EPSG/0/4326'
p2609
assS'NL.RIVM.AQ/SPO_F-NL00021_00038_101_101'
p2610
(dp2611
g34
(lp2612
sg36
(lp2613
S'52.32069203706209 4.988397000000001 -3.0'
p2614
aS'http://www.opengis.net/def/crs/EPSG/0/4326'
p2615
assS'NL.RIVM.AQ/SPO_F-NL00137_00038_100_101'
p2616
(dp2617
g34
(lp2618
sg36
(lp2619
S'50.88487003840636 5.977283 115.0'
p2620
aS'http://www.opengis.net/def/crs/EPSG/0/4326'
p2621
assS'NL.RIVM.AQ/SPO_F-NL00644_00038_100_100'
p2622
(dp2623
g34
(lp2624
S'NL.RIVM.AQ/STA-NL00644/38'
p2625
asg36
(lp2626
S'51.97448903740961 4.923301 1.0'
p2627
aS'http://www.opengis.net/def/crs/EPSG/0/4326'
p2628
assS'NL.RIVM.AQ/SPO_F-NL00633_00035_100_100'
p2629
(dp2630
g34
(lp2631
S'NL.RIVM.AQ/STA-NL00633/35'
p2632
asg36
(lp2633
S'52.13795003724734 4.83819 -2.0'
p2634
aS'http://www.opengis.net/def/crs/EPSG/0/4326'
p2635
assS'NL.RIVM.AQ/SPO_F-NL00553_00038_100_100'
p2636
(dp2637
g34
(lp2638
sg36
(lp2639
S'52.49399203688275 4.601986000000001 7.0'
p2640
aS'http://www.opengis.net/def/crs/EPSG/0/4326'
p2641
assS'NL.RIVM.AQ/SPO_F-NL00636_06001_100_100'
p2642
(dp2643
g34
(lp2644
S'NL.RIVM.AQ/STA-NL00636/6001'
p2645
asg36
(lp2646
S'52.105031037280284 5.124464 1.0'
p2647
aS'http://www.opengis.net/def/crs/EPSG/0/4326'
p2648
assS'NL.RIVM.AQ/SPO_F-NL00447_00005_100_101'
p2649
(dp2650
g34
(lp2651
sg36
(lp2652
S'52.1677530372174 4.50756 1.0'
p2653
aS'http://www.opengis.net/def/crs/EPSG/0/4326'
p2654
assS'NL.RIVM.AQ/SPO_F-NL00703_00005_101_101'
p2655
(dp2656
g34
(lp2657
sg36
(lp2658
S'52.39843703698208 4.728581 1.0'
p2659
aS'http://www.opengis.net/def/crs/EPSG/0/4326'
p2660
assS'NL.RIVM.AQ/SPO_F-NL00704_00009_100_100'
p2661
(dp2662
g34
(lp2663
sg36
(lp2664
S'52.428017036951445 4.773478 4.0'
p2665
aS'http://www.opengis.net/def/crs/EPSG/0/4326'
p2666
assS'NL.RIVM.AQ/SPO_F-NL00639_00464_100_101'
p2667
(dp2668
g34
(lp2669
sg36
(lp2670
S'52.06774803731743 5.120507000000001 1.0'
p2671
aS'http://www.opengis.net/def/crs/EPSG/0/4326'
p2672
assS'NL.RIVM.AQ/SPO_F-NL00137_00005_100_101'
p2673
(dp2674
g34
(lp2675
sg36
(lp2676
S'50.88487003840636 5.977283 115.0'
p2677
aS'http://www.opengis.net/def/crs/EPSG/0/4326'
p2678
assS'NL.RIVM.AQ/SPO_F-NL00247_06001_100_100'
p2679
(dp2680
g34
(lp2681
S'NL.RIVM.AQ/STA-NL00247/6001'
p2682
asg36
(lp2683
S'51.40736503794714 5.3933279999999995 22.0'
p2684
aS'http://www.opengis.net/def/crs/EPSG/0/4326'
p2685
assS'NL.RIVM.AQ/SPO_F-NL00131_00006_112_112'
p2686
(dp2687
g34
(lp2688
sg36
(lp2689
S'51.540520037824535 5.853069999999999 28.0'
p2690
aS'http://www.opengis.net/def/crs/EPSG/0/4326'
p2691
assS'NL.RIVM.AQ/SPO_F-NL00938_00038_100_101'
p2692
(dp2693
g34
(lp2694
S'NL.RIVM.AQ/STA-NL00938/38'
p2695
asg36
(lp2696
S'53.2465350360636 6.608937 -1.0'
p2697
aS'http://www.opengis.net/def/crs/EPSG/0/4326'
p2698
assS'NL.RIVM.AQ/SPO_F-NL00131_00007_111_112'
p2699
(dp2700
g34
(lp2701
S'NL.RIVM.AQ/STA-NL00131/7'
p2702
asg36
(lp2703
S'51.540520037824535 5.853069999999999 28.0'
p2704
aS'http://www.opengis.net/def/crs/EPSG/0/4326'
p2705
assS'NL.RIVM.AQ/SPO_F-NL00014_00005_101_101'
p2706
(dp2707
g34
(lp2708
sg36
(lp2709
S'52.359714037022016 4.866208 2.0'
p2710
aS'http://www.opengis.net/def/crs/EPSG/0/4326'
p2711
assS'NL.RIVM.AQ/SPO_F-NL00418_00009_101_102'
p2712
(dp2713
g34
(lp2714
sg36
(lp2715
S'51.914233037468634 4.479923 3.0'
p2716
aS'http://www.opengis.net/def/crs/EPSG/0/4326'
p2717
assS'NL.RIVM.AQ/SPO_F-NL00301_00007_101_102'
p2718
(dp2719
g34
(lp2720
S'NL.RIVM.AQ/STA-NL00301/7'
p2721
asg36
(lp2722
S'51.634706037736464 3.9166229999999995 -1.0'
p2723
aS'http://www.opengis.net/def/crs/EPSG/0/4326'
p2724
assS'NL.RIVM.AQ/SPO_F-NL00934_06001_100_100'
p2725
(dp2726
g34
(lp2727
S'NL.RIVM.AQ/STA-NL00934/6001'
p2728
asg36
(lp2729
S'53.330425035968325 6.276815 1.0'
p2730
aS'http://www.opengis.net/def/crs/EPSG/0/4326'
p2731
assS'NL.RIVM.AQ/SPO_F-NL00016_00001_100_100'
p2732
(dp2733
g34
(lp2734
sg36
(lp2735
S'52.39397203698668 4.870157000000001 3.0'
p2736
aS'http://www.opengis.net/def/crs/EPSG/0/4326'
p2737
assS'NL.RIVM.AQ/SPO_F-NL00929_00035_100_100'
p2738
(dp2739
g34
(lp2740
S'NL.RIVM.AQ/STA-NL00929/35'
p2741
asg36
(lp2742
S'52.87572503647533 6.932432000000001 10.0'
p2743
aS'http://www.opengis.net/def/crs/EPSG/0/4326'
p2744
assS'NL.RIVM.AQ/SPO_F-NL00537_00005_100_101'
p2745
(dp2746
g34
(lp2747
sg36
(lp2748
S'52.38104003700004 4.64759 1.0'
p2749
aS'http://www.opengis.net/def/crs/EPSG/0/4326'
p2750
assS'NL.RIVM.AQ/SPO_F-NL00446_00007_100_100'
p2751
(dp2752
g34
(lp2753
S'NL.RIVM.AQ/STA-NL00446/7'
p2754
asg36
(lp2755
S'52.03902303734593 4.359376000000001 -2.0'
p2756
aS'http://www.opengis.net/def/crs/EPSG/0/4326'
p2757
assS'NL.RIVM.AQ/SPO_F-NL00495_00007_100_100'
p2758
(dp2759
g34
(lp2760
sg36
(lp2761
S'51.932039037451226 4.228024999999998 0.0'
p2762
aS'http://www.opengis.net/def/crs/EPSG/0/4326'
p2763
assS'NL.RIVM.AQ/SPO_F-NL00007_00038_101_101'
p2764
(dp2765
g34
(lp2766
sg36
(lp2767
S'52.381331036999754 4.845233 2.0'
p2768
aS'http://www.opengis.net/def/crs/EPSG/0/4326'
p2769
assS'NL.RIVM.AQ/SPO_F-NL00433_00006_103_103'
p2770
(dp2771
g34
(lp2772
sg36
(lp2773
S'51.910474037472305 4.326303 -1.0'
p2774
aS'http://www.opengis.net/def/crs/EPSG/0/4326'
p2775
assS'NL.RIVM.AQ/SPO_F-NL00245_00008_100_100'
p2776
(dp2777
g34
(lp2778
sg36
(lp2779
S'51.69938903767535 4.623598000000001 1.0'
p2780
aS'http://www.opengis.net/def/crs/EPSG/0/4326'
p2781
assS'NL.RIVM.AQ/SPO_F-NL00548_00038_100_100'
p2782
(dp2783
g34
(lp2784
sg36
(lp2785
S'52.26798003711595 5.1758299999999995 1.0'
p2786
aS'http://www.opengis.net/def/crs/EPSG/0/4326'
p2787
assS'NL.RIVM.AQ/SPO_F-NL00437_00009_101_102'
p2788
(dp2789
g34
(lp2790
sg36
(lp2791
S'51.78657903759214 4.450529000000001 -1.0'
p2792
aS'http://www.opengis.net/def/crs/EPSG/0/4326'
p2793
assS'NL.RIVM.AQ/SPO_F-NL00235_00008_101_102'
p2794
(dp2795
g34
(lp2796
sg36
(lp2797
S'51.43444303792239 4.359835 18.0'
p2798
aS'http://www.opengis.net/def/crs/EPSG/0/4326'
p2799
assS'NL.RIVM.AQ/SPO_F-NL00703_00020_100_100'
p2800
(dp2801
g34
(lp2802
sg36
(lp2803
S'52.39843703698208 4.728581 1.0'
p2804
aS'http://www.opengis.net/def/crs/EPSG/0/4326'
p2805
assS'NL.RIVM.AQ/SPO_F-NL00404_00009_101_102'
p2806
(dp2807
g34
(lp2808
sg36
(lp2809
S'52.07714803730809 4.289185000000001 2.0'
p2810
aS'http://www.opengis.net/def/crs/EPSG/0/4326'
p2811
assS'NL.RIVM.AQ/SPO_F-NL00418_06001_100_101'
p2812
(dp2813
g34
(lp2814
sg36
(lp2815
S'51.914233037468634 4.479923 3.0'
p2816
aS'http://www.opengis.net/def/crs/EPSG/0/4326'
p2817
assS'NL.RIVM.AQ/SPO_F-NL00538_00038_111_112'
p2818
(dp2819
g34
(lp2820
S'NL.RIVM.AQ/STA-NL00538/38'
p2821
asg36
(lp2822
S'52.803657036553524 5.050509 -4.0'
p2823
aS'http://www.opengis.net/def/crs/EPSG/0/4326'
p2824
assS'NL.RIVM.AQ/SPO_F-NL00546_00038_100_100'
p2825
(dp2826
g34
(lp2827
sg36
(lp2828
S'52.420230036959516 4.83206 1.0'
p2829
aS'http://www.opengis.net/def/crs/EPSG/0/4326'
p2830
assS'NL.RIVM.AQ/SPO_F-NL00738_00007_100_101'
p2831
(dp2832
g34
(lp2833
S'NL.RIVM.AQ/STA-NL00738/7'
p2834
asg36
(lp2835
S'52.111621037273686 5.708418999999999 18.0'
p2836
aS'http://www.opengis.net/def/crs/EPSG/0/4326'
p2837
assS'NL.RIVM.AQ/SPO_F-NL00701_00005_101_101'
p2838
(dp2839
g34
(lp2840
sg36
(lp2841
S'52.44801103693068 4.816706000000001 1.0'
p2842
aS'http://www.opengis.net/def/crs/EPSG/0/4326'
p2843
assS'NL.RIVM.AQ/SPO_F-NL00742_00009_100_101'
p2844
(dp2845
g34
(lp2846
sg36
(lp2847
S'51.83822103754241 5.856938 30.0'
p2848
aS'http://www.opengis.net/def/crs/EPSG/0/4326'
p2849
assS'NL.RIVM.AQ/SPO_F-NL00020_00009_101_101'
p2850
(dp2851
g34
(lp2852
sg36
(lp2853
S'52.3747860370065 4.860319 4.0'
p2854
aS'http://www.opengis.net/def/crs/EPSG/0/4326'
p2855
assS'NL.RIVM.AQ/SPO_F-NL00572_06001_100_100'
p2856
(dp2857
g34
(lp2858
sg36
(lp2859
S'52.47440003690322 4.628799999999999 1.0'
p2860
aS'http://www.opengis.net/def/crs/EPSG/0/4326'
p2861
assS'NL.RIVM.AQ/SPO_F-NL00704_00008_100_100'
p2862
(dp2863
g34
(lp2864
sg36
(lp2865
S'52.428017036951445 4.773478 4.0'
p2866
aS'http://www.opengis.net/def/crs/EPSG/0/4326'
p2867
assS'NL.RIVM.AQ/SPO_F-NL00929_00046_101_101'
p2868
(dp2869
g34
(lp2870
sg36
(lp2871
S'52.87572503647533 6.932432000000001 10.0'
p2872
aS'http://www.opengis.net/def/crs/EPSG/0/4326'
p2873
assS'NL.RIVM.AQ/SPO_F-NL00938_00009_100_101'
p2874
(dp2875
g34
(lp2876
sg36
(lp2877
S'53.2465350360636 6.608937 -1.0'
p2878
aS'http://www.opengis.net/def/crs/EPSG/0/4326'
p2879
assS'NL.RIVM.AQ/SPO_F-NL00565_00038_100_100'
p2880
(dp2881
g34
(lp2882
sg36
(lp2883
S'52.32746403705515 4.715008000000001 1.0'
p2884
aS'http://www.opengis.net/def/crs/EPSG/0/4326'
p2885
assS'NL.RIVM.AQ/SPO_F-NL00485_00001_100_100'
p2886
(dp2887
g34
(lp2888
sg36
(lp2889
S'51.867411037514145 4.355241999999999 1.0'
p2890
aS'http://www.opengis.net/def/crs/EPSG/0/4326'
p2891
assS'NL.RIVM.AQ/SPO_F-NL00553_00005_100_100'
p2892
(dp2893
g34
(lp2894
sg36
(lp2895
S'52.49399203688275 4.601986000000001 7.0'
p2896
aS'http://www.opengis.net/def/crs/EPSG/0/4326'
p2897
assS'NL.RIVM.AQ/SPO_F-NL00017_06001_100_100'
p2898
(dp2899
g34
(lp2900
sg36
(lp2901
S'52.358039037023744 4.8997 4.0'
p2902
aS'http://www.opengis.net/def/crs/EPSG/0/4326'
p2903
assS'NL.RIVM.AQ/SPO_F-NL00641_00009_100_101'
p2904
(dp2905
g34
(lp2906
sg36
(lp2907
S'52.20153003718333 4.987444000000001 -1.0'
p2908
aS'http://www.opengis.net/def/crs/EPSG/0/4326'
p2909
assS'NL.RIVM.AQ/SPO_F-NL00404_00008_111_112'
p2910
(dp2911
g34
(lp2912
sg36
(lp2913
S'52.07714803730809 4.289185000000001 2.0'
p2914
aS'http://www.opengis.net/def/crs/EPSG/0/4326'
p2915
assS'NL.RIVM.AQ/SPO_F-NL00444_00001_100_100'
p2916
(dp2917
g34
(lp2918
S'NL.RIVM.AQ/STA-NL00444/1'
p2919
asg36
(lp2920
S'52.2965560370868 4.510817 4.0'
p2921
aS'http://www.opengis.net/def/crs/EPSG/0/4326'
p2922
assS'NL.RIVM.AQ/SPO_F-NL00404_00038_111_112'
p2923
(dp2924
g34
(lp2925
S'NL.RIVM.AQ/STA-NL00404/38'
p2926
asg36
(lp2927
S'52.07714803730809 4.289185000000001 2.0'
p2928
aS'http://www.opengis.net/def/crs/EPSG/0/4326'
p2929
assS'NL.RIVM.AQ/SPO_F-NL00446_00008_100_100'
p2930
(dp2931
g34
(lp2932
sg36
(lp2933
S'52.03902303734593 4.359376000000001 -2.0'
p2934
aS'http://www.opengis.net/def/crs/EPSG/0/4326'
p2935
assS'NL.RIVM.AQ/SPO_F-NL00934_00668_100_100'
p2936
(dp2937
g34
(lp2938
sg36
(lp2939
S'53.330425035968325 6.276815 1.0'
p2940
aS'http://www.opengis.net/def/crs/EPSG/0/4326'
p2941
assS'NL.RIVM.AQ/SPO_F-NL00487_00038_100_100'
p2942
(dp2943
g34
(lp2944
sg36
(lp2945
S'51.89114703749109 4.480690000000001 0.0'
p2946
aS'http://www.opengis.net/def/crs/EPSG/0/4326'
p2947
assS'NL.RIVM.AQ/SPO_F-NL00538_00046_101_101'
p2948
(dp2949
g34
(lp2950
sg36
(lp2951
S'52.803657036553524 5.050509 -4.0'
p2952
aS'http://www.opengis.net/def/crs/EPSG/0/4326'
p2953
assS'NL.RIVM.AQ/SPO_F-NL00553_06001_100_100'
p2954
(dp2955
g34
(lp2956
sg36
(lp2957
S'52.49399203688275 4.601986000000001 7.0'
p2958
aS'http://www.opengis.net/def/crs/EPSG/0/4326'
p2959
assS'NL.RIVM.AQ/SPO_F-NL00007_00010_100_100'
p2960
(dp2961
g34
(lp2962
sg36
(lp2963
S'52.381331036999754 4.845233 2.0'
p2964
aS'http://www.opengis.net/def/crs/EPSG/0/4326'
p2965
assS'NL.RIVM.AQ/SPO_F-NL00133_00008_101_102'
p2966
(dp2967
g34
(lp2968
sg36
(lp2969
S'50.902281038391635 5.881748000000001 96.0'
p2970
aS'http://www.opengis.net/def/crs/EPSG/0/4326'
p2971
assS'NL.RIVM.AQ/SPO_F-NL00136_00005_100_101'
p2972
(dp2973
g34
(lp2974
sg36
(lp2975
S'50.88795903840375 5.970496 100.0'
p2976
aS'http://www.opengis.net/def/crs/EPSG/0/4326'
p2977
assS'NL.RIVM.AQ/SPO_F-NL00644_00005_100_100'
p2978
(dp2979
g34
(lp2980
sg36
(lp2981
S'51.97448903740961 4.923301 1.0'
p2982
aS'http://www.opengis.net/def/crs/EPSG/0/4326'
p2983
assS'NL.RIVM.AQ/SPO_F-NL00551_06001_100_100'
p2984
(dp2985
g34
(lp2986
sg36
(lp2987
S'52.46303903691505 4.6018419999999995 1.0'
p2988
aS'http://www.opengis.net/def/crs/EPSG/0/4326'
p2989
assS'NL.RIVM.AQ/SPO_F-NL00934_00018_101_101'
p2990
(dp2991
g34
(lp2992
sg36
(lp2993
S'53.330425035968325 6.276815 1.0'
p2994
aS'http://www.opengis.net/def/crs/EPSG/0/4326'
p2995
assS'NL.RIVM.AQ/SPO_F-NL00701_00008_100_100'
p2996
(dp2997
g34
(lp2998
sg36
(lp2999
S'52.44801103693068 4.816706000000001 1.0'
p3000
aS'http://www.opengis.net/def/crs/EPSG/0/4326'
p3001
assS'NL.RIVM.AQ/SPO_F-NL00246_00038_100_100'
p3002
(dp3003
g34
(lp3004
S'NL.RIVM.AQ/STA-NL00246/38'
p3005
asg36
(lp3006
S'51.65372903771855 4.515271 1.0'
p3007
aS'http://www.opengis.net/def/crs/EPSG/0/4326'
p3008
assS'NL.RIVM.AQ/SPO_F-NL00918_00005_100_101'
p3009
(dp3010
g34
(lp3011
sg36
(lp3012
S'52.91691592643034 5.573491569999999 1.0'
p3013
aS'http://www.opengis.net/def/crs/EPSG/0/4326'
p3014
assS'NL.RIVM.AQ/SPO_F-NL00627_00018_101_101'
p3015
(dp3016
g34
(lp3017
sg36
(lp3018
S'52.12083303726448 5.195567 3.0'
p3019
aS'http://www.opengis.net/def/crs/EPSG/0/4326'
p3020
assS'NL.RIVM.AQ/SPO_F-NL00247_00005_100_100'
p3021
(dp3022
g34
(lp3023
sg36
(lp3024
S'51.40736503794714 5.3933279999999995 22.0'
p3025
aS'http://www.opengis.net/def/crs/EPSG/0/4326'
p3026
assS'NL.RIVM.AQ/SPO_F-NL00445_00009_100_101'
p3027
(dp3028
g34
(lp3029
sg36
(lp3030
S'52.075071037310146 4.315872 4.0'
p3031
aS'http://www.opengis.net/def/crs/EPSG/0/4326'
p3032
assS'NL.RIVM.AQ/SPO_F-NL00551_00001_100_100'
p3033
(dp3034
g34
(lp3035
sg36
(lp3036
S'52.46303903691505 4.6018419999999995 1.0'
p3037
aS'http://www.opengis.net/def/crs/EPSG/0/4326'
p3038
assS'NL.RIVM.AQ/SPO_F-NL00728_00005_101_101'
p3039
(dp3040
g34
(lp3041
sg36
(lp3042
S'52.213965037170766 5.966719 11.0'
p3043
aS'http://www.opengis.net/def/crs/EPSG/0/4326'
p3044
assS'NL.RIVM.AQ/SPO_F-NL00549_00008_100_100'
p3045
(dp3046
g34
(lp3047
sg36
(lp3048
S'52.257356037126755 5.235903 1.0'
p3049
aS'http://www.opengis.net/def/crs/EPSG/0/4326'
p3050
assS'NL.RIVM.AQ/SPO_F-NL00241_00006_100_100'
p3051
(dp3052
g34
(lp3053
sg36
(lp3054
S'51.60308003776617 4.781016000000001 1.0'
p3055
aS'http://www.opengis.net/def/crs/EPSG/0/4326'
p3056
assS'NL.RIVM.AQ/SPO_F-NL00488_00005_100_100'
p3057
(dp3058
g34
(lp3059
sg36
(lp3060
S'51.893617037488696 4.487528 0.0'
p3061
aS'http://www.opengis.net/def/crs/EPSG/0/4326'
p3062
assS'NL.RIVM.AQ/SPO_F-NL00641_00008_100_101'
p3063
(dp3064
g34
(lp3065
sg36
(lp3066
S'52.20153003718333 4.987444000000001 -1.0'
p3067
aS'http://www.opengis.net/def/crs/EPSG/0/4326'
p3068
assS'NL.RIVM.AQ/SPO_F-NL00570_00005_100_100'
p3069
(dp3070
g34
(lp3071
sg36
(lp3072
S'52.48930303688765 4.640531 1.0'
p3073
aS'http://www.opengis.net/def/crs/EPSG/0/4326'
p3074
assS'NL.RIVM.AQ/SPO_F-NL00442_00009_100_100'
p3075
(dp3076
g34
(lp3077
sg36
(lp3078
S'51.80065803757861 4.708238999999999 1.0'
p3079
aS'http://www.opengis.net/def/crs/EPSG/0/4326'
p3080
assS'NL.RIVM.AQ/SPO_F-NL00107_00008_101_102'
p3081
(dp3082
g34
(lp3083
sg36
(lp3084
S'51.11919403820476 6.0423990000000005 32.0'
p3085
aS'http://www.opengis.net/def/crs/EPSG/0/4326'
p3086
assS'NL.RIVM.AQ/SPO_F-NL00636_00005_100_101'
p3087
(dp3088
g34
(lp3089
sg36
(lp3090
S'52.105031037280284 5.124464 1.0'
p3091
aS'http://www.opengis.net/def/crs/EPSG/0/4326'
p3092
assS'NL.RIVM.AQ/SPO_F-NL00138_00005_100_100'
p3093
(dp3094
g34
(lp3095
sg36
(lp3096
S'50.90031703839329 5.986853 98.0'
p3097
aS'http://www.opengis.net/def/crs/EPSG/0/4326'
p3098
assS'NL.RIVM.AQ/SPO_F-NL00701_06001_101_101'
p3099
(dp3100
g34
(lp3101
sg36
(lp3102
S'52.44801103693068 4.816706000000001 1.0'
p3103
aS'http://www.opengis.net/def/crs/EPSG/0/4326'
p3104
assS'NL.RIVM.AQ/SPO_F-NL00493_00009_100_100'
p3105
(dp3106
g34
(lp3107
sg36
(lp3108
S'51.92711103745604 4.461344 0.0'
p3109
aS'http://www.opengis.net/def/crs/EPSG/0/4326'
p3110
assS'NL.RIVM.AQ/SPO_F-NL00644_00001_100_100'
p3111
(dp3112
g34
(lp3113
S'NL.RIVM.AQ/STA-NL00644/1'
p3114
asg36
(lp3115
S'51.97448903740961 4.923301 1.0'
p3116
aS'http://www.opengis.net/def/crs/EPSG/0/4326'
p3117
assS'NL.RIVM.AQ/SPO_F-NL00493_00005_100_100'
p3118
(dp3119
g34
(lp3120
sg36
(lp3121
S'51.92711103745604 4.461344 0.0'
p3122
aS'http://www.opengis.net/def/crs/EPSG/0/4326'
p3123
assS'NL.RIVM.AQ/SPO_F-NL00230_00007_101_102'
p3124
(dp3125
g34
(lp3126
S'NL.RIVM.AQ/STA-NL00230/7'
p3127
asg36
(lp3128
S'51.518440037845004 5.1484499999999995 15.0'
p3129
aS'http://www.opengis.net/def/crs/EPSG/0/4326'
p3130
assS'NL.RIVM.AQ/SPO_F-NL00565_00009_100_100'
p3131
(dp3132
g34
(lp3133
sg36
(lp3134
S'52.32746403705515 4.715008000000001 1.0'
p3135
aS'http://www.opengis.net/def/crs/EPSG/0/4326'
p3136
assS'NL.RIVM.AQ/SPO_F-NL00485_00020_100_100'
p3137
(dp3138
g34
(lp3139
sg36
(lp3140
S'51.867411037514145 4.355241999999999 1.0'
p3141
aS'http://www.opengis.net/def/crs/EPSG/0/4326'
p3142
assS'NL.RIVM.AQ/SPO_F-NL00318_00038_111_112'
p3143
(dp3144
g34
(lp3145
S'NL.RIVM.AQ/STA-NL00318/38'
p3146
asg36
(lp3147
S'51.294498038049305 3.749483999999999 5.0'
p3148
aS'http://www.opengis.net/def/crs/EPSG/0/4326'
p3149
assS'NL.RIVM.AQ/SPO_F-NL00446_00005_100_101'
p3150
(dp3151
g34
(lp3152
sg36
(lp3153
S'52.03902303734593 4.359376000000001 -2.0'
p3154
aS'http://www.opengis.net/def/crs/EPSG/0/4326'
p3155
assS'NL.RIVM.AQ/SPO_F-NL00934_00063_101_101'
p3156
(dp3157
g34
(lp3158
sg36
(lp3159
S'53.330425035968325 6.276815 1.0'
p3160
aS'http://www.opengis.net/def/crs/EPSG/0/4326'
p3161
assS'NL.RIVM.AQ/SPO_F-NL00644_00007_100_100'
p3162
(dp3163
g34
(lp3164
S'NL.RIVM.AQ/STA-NL00644/7'
p3165
asg36
(lp3166
S'51.97448903740961 4.923301 1.0'
p3167
aS'http://www.opengis.net/def/crs/EPSG/0/4326'
p3168
assS'NL.RIVM.AQ/SPO_F-NL00496_00005_100_100'
p3169
(dp3170
g34
(lp3171
sg36
(lp3172
S'51.97780303740636 4.121944000000001 0.0'
p3173
aS'http://www.opengis.net/def/crs/EPSG/0/4326'
p3174
assS'NL.RIVM.AQ/SPO_F-NL00016_06001_100_100'
p3175
(dp3176
g34
(lp3177
sg36
(lp3178
S'52.39397203698668 4.870157000000001 3.0'
p3179
aS'http://www.opengis.net/def/crs/EPSG/0/4326'
p3180
assS'NL.RIVM.AQ/SPO_F-NL00633_00008_101_102'
p3181
(dp3182
g34
(lp3183
sg36
(lp3184
S'52.13795003724734 4.83819 -2.0'
p3185
aS'http://www.opengis.net/def/crs/EPSG/0/4326'
p3186
assS'NL.RIVM.AQ/SPO_F-NL00644_00008_100_100'
p3187
(dp3188
g34
(lp3189
sg36
(lp3190
S'51.97448903740961 4.923301 1.0'
p3191
aS'http://www.opengis.net/def/crs/EPSG/0/4326'
p3192
assS'NL.RIVM.AQ/SPO_F-NL00564_00005_100_100'
p3193
(dp3194
g34
(lp3195
sg36
(lp3196
S'52.28745003709609 4.766614000000001 1.0'
p3197
aS'http://www.opengis.net/def/crs/EPSG/0/4326'
p3198
assS'NL.RIVM.AQ/SPO_F-NL00636_00009_101_102'
p3199
(dp3200
g34
(lp3201
sg36
(lp3202
S'52.105031037280284 5.124464 1.0'
p3203
aS'http://www.opengis.net/def/crs/EPSG/0/4326'
p3204
assS'NL.RIVM.AQ/SPO_F-NL00570_06001_100_100'
p3205
(dp3206
g34
(lp3207
sg36
(lp3208
S'52.48930303688765 4.640531 1.0'
p3209
aS'http://www.opengis.net/def/crs/EPSG/0/4326'
p3210
assS'NL.RIVM.AQ/SPO_F-NL00639_00007_101_102'
p3211
(dp3212
g34
(lp3213
S'NL.RIVM.AQ/STA-NL00639/7'
p3214
asg36
(lp3215
S'52.06774803731743 5.120507000000001 1.0'
p3216
aS'http://www.opengis.net/def/crs/EPSG/0/4326'
p3217
assS'NL.RIVM.AQ/SPO_F-NL00489_00007_100_100'
p3218
(dp3219
g34
(lp3220
sg36
(lp3221
S'51.869431037512186 4.580058 0.0'
p3222
aS'http://www.opengis.net/def/crs/EPSG/0/4326'
p3223
asssS'procedure'
p3224
(dp3225
S'NL.RIVM.AQ/SPP-NL_A_chemi_D9038'
p3226
(dp3227
g34
(lp3228
g2102
aS'NL.RIVM.AQ/STA-NL00240/8'
p3229
aS'NL.RIVM.AQ/STA-NL00240/9'
p3230
ag1748
aS'NL.RIVM.AQ/STA-NL00446/8'
p3231
aS'NL.RIVM.AQ/STA-NL00446/9'
p3232
ag115
aS'NL.RIVM.AQ/STA-NL00643/8'
p3233
asS'FOI'
p3234
g7
((lp3235
S'NL.RIVM.AQ/SPO_F-NL00643_00038_100_100'
p3236
aS'NL.RIVM.AQ/SPO_F-NL00446_00038_100_100'
p3237
aS'NL.RIVM.AQ/SPO_F-NL00240_00038_100_100'
p3238
atRp3239
sS'obsProperty'
p3240
S'http://dd.eionet.europa.eu/vocabulary/aq/pollutant/38'
p3241
ssS'NL.RIVM.AQ/SPP-NL_A_chemi_thermo42i'
p3242
(dp3243
g34
(lp3244
S'NL.RIVM.AQ/STA-NL00014/38'
p3245
aS'NL.RIVM.AQ/STA-NL00014/8'
p3246
aS'NL.RIVM.AQ/STA-NL00014/9'
p3247
aS'NL.RIVM.AQ/STA-NL00019/38'
p3248
aS'NL.RIVM.AQ/STA-NL00019/8'
p3249
aS'NL.RIVM.AQ/STA-NL00019/9'
p3250
aS'NL.RIVM.AQ/STA-NL00020/38'
p3251
aS'NL.RIVM.AQ/STA-NL00020/8'
p3252
aS'NL.RIVM.AQ/STA-NL00020/9'
p3253
aS'NL.RIVM.AQ/STA-NL00021/38'
p3254
aS'NL.RIVM.AQ/STA-NL00021/8'
p3255
aS'NL.RIVM.AQ/STA-NL00021/9'
p3256
aS'NL.RIVM.AQ/STA-NL00022/38'
p3257
aS'NL.RIVM.AQ/STA-NL00022/8'
p3258
aS'NL.RIVM.AQ/STA-NL00022/9'
p3259
aS'NL.RIVM.AQ/STA-NL00701/38'
p3260
aS'NL.RIVM.AQ/STA-NL00701/8'
p3261
aS'NL.RIVM.AQ/STA-NL00701/9'
p3262
asg3234
g7
((ltRp3263
sg3240
S'http://dd.eionet.europa.eu/vocabulary/aq/pollutant/38'
p3264
ssS'NL.RIVM.AQ/SPP-NL_N_ICP-MS_leckelSEQ47-50'
p3265
(dp3266
g34
(lp3267
S'NL.RIVM.AQ/STA-NL00131/12'
p3268
aS'NL.RIVM.AQ/STA-NL00131/14'
p3269
aS'NL.RIVM.AQ/STA-NL00131/15'
p3270
aS'NL.RIVM.AQ/STA-NL00131/18'
p3271
aS'NL.RIVM.AQ/STA-NL00131/629'
p3272
aS'NL.RIVM.AQ/STA-NL00131/63'
p3273
aS'NL.RIVM.AQ/STA-NL00131/659'
p3274
aS'NL.RIVM.AQ/STA-NL00131/668'
p3275
aS'NL.RIVM.AQ/STA-NL00433/12'
p3276
aS'NL.RIVM.AQ/STA-NL00433/14'
p3277
aS'NL.RIVM.AQ/STA-NL00433/15'
p3278
aS'NL.RIVM.AQ/STA-NL00433/18'
p3279
aS'NL.RIVM.AQ/STA-NL00433/629'
p3280
aS'NL.RIVM.AQ/STA-NL00433/63'
p3281
aS'NL.RIVM.AQ/STA-NL00433/659'
p3282
aS'NL.RIVM.AQ/STA-NL00433/668'
p3283
aS'NL.RIVM.AQ/STA-NL00627/12'
p3284
aS'NL.RIVM.AQ/STA-NL00627/14'
p3285
aS'NL.RIVM.AQ/STA-NL00627/15'
p3286
aS'NL.RIVM.AQ/STA-NL00627/18'
p3287
aS'NL.RIVM.AQ/STA-NL00627/629'
p3288
aS'NL.RIVM.AQ/STA-NL00627/63'
p3289
aS'NL.RIVM.AQ/STA-NL00627/659'
p3290
aS'NL.RIVM.AQ/STA-NL00627/668'
p3291
aS'NL.RIVM.AQ/STA-NL00934/12'
p3292
aS'NL.RIVM.AQ/STA-NL00934/14'
p3293
aS'NL.RIVM.AQ/STA-NL00934/15'
p3294
aS'NL.RIVM.AQ/STA-NL00934/18'
p3295
aS'NL.RIVM.AQ/STA-NL00934/629'
p3296
aS'NL.RIVM.AQ/STA-NL00934/63'
p3297
aS'NL.RIVM.AQ/STA-NL00934/659'
p3298
aS'NL.RIVM.AQ/STA-NL00934/668'
p3299
asg3234
g7
((ltRp3300
sg3240
S'http://dd.eionet.europa.eu/vocabulary/aq/pollutant/12'
p3301
ssS'NL.RIVM.AQ/SPP-NL_N_01466chrompackVOC-AIR'
p3302
(dp3303
g34
(lp3304
S'NL.RIVM.AQ/STA-NL00495/20'
p3305
aS'NL.RIVM.AQ/STA-NL00495/21'
p3306
asg3234
g7
((ltRp3307
sg3240
S'http://dd.eionet.europa.eu/vocabulary/aq/pollutant/20'
p3308
ssS'NL.RIVM.AQ/SPP-NL_A_UV-FL_thermo43i'
p3309
(dp3310
g34
(lp3311
S'NL.RIVM.AQ/STA-NL00016/1'
p3312
aS'NL.RIVM.AQ/STA-NL00551/1'
p3313
aS'NL.RIVM.AQ/STA-NL00553/1'
p3314
aS'NL.RIVM.AQ/STA-NL00704/1'
p3315
asg3234
g7
((ltRp3316
sg3240
S'http://dd.eionet.europa.eu/vocabulary/aq/pollutant/1'
p3317
ssS'NL.RIVM.AQ/SPP-NL_A_UV-P_thermo49c'
p3318
(dp3319
g34
(lp3320
S'NL.RIVM.AQ/STA-NL00485/7'
p3321
aS'NL.RIVM.AQ/STA-NL00489/7'
p3322
aS'NL.RIVM.AQ/STA-NL00493/7'
p3323
aS'NL.RIVM.AQ/STA-NL00494/7'
p3324
aS'NL.RIVM.AQ/STA-NL00495/7'
p3325
aS'NL.RIVM.AQ/STA-NL00496/7'
p3326
asg3234
g7
((ltRp3327
sg3240
S'http://dd.eionet.europa.eu/vocabulary/aq/pollutant/7'
p3328
ssS'NL.RIVM.AQ/SPP-NL_A_UV-P_thermo49i'
p3329
(dp3330
g34
(lp3331
S'NL.RIVM.AQ/STA-NL00003/7'
p3332
aS'NL.RIVM.AQ/STA-NL00012/7'
p3333
aS'NL.RIVM.AQ/STA-NL00014/7'
p3334
ag134
ag2702
ag1963
aS'NL.RIVM.AQ/STA-NL00137/7'
p3335
ag3127
ag159
ag271
ag773
ag1289
ag2721
ag1786
ag1041
ag2268
ag643
ag2500
ag970
ag995
aS'NL.RIVM.AQ/STA-NL00537/7'
p3336
ag927
aS'NL.RIVM.AQ/STA-NL00564/7'
p3337
ag108
ag736
ag3214
ag1526
ag1234
aS'NL.RIVM.AQ/STA-NL00701/7'
p3338
ag1519
ag2834
ag1735
ag196
ag1034
ag89
ag2071
ag630
ag2171
asg3234
g7
((lp3339
S'NL.RIVM.AQ/SPO_F-NL00538_00007_111_112'
p3340
aS'NL.RIVM.AQ/SPO_F-NL00738_00007_100_101'
p3341
aS'NL.RIVM.AQ/SPO_F-NL00742_00007_100_101'
p3342
aS'NL.RIVM.AQ/SPO_F-NL00236_00007_101_102'
p3343
aS'NL.RIVM.AQ/SPO_F-NL00241_00007_100_101'
p3344
aS'NL.RIVM.AQ/SPO_F-NL00818_00007_100_101'
p3345
aS'NL.RIVM.AQ/SPO_F-NL00918_00007_101_102'
p3346
aS'NL.RIVM.AQ/SPO_F-NL00938_00007_100_101'
p3347
aS'NL.RIVM.AQ/SPO_F-NL00722_00007_111_112'
p3348
aS'NL.RIVM.AQ/SPO_F-NL00247_00007_100_100'
p3349
aS'NL.RIVM.AQ/SPO_F-NL00444_00007_100_101'
p3350
aS'NL.RIVM.AQ/SPO_F-NL00934_00007_111_112'
p3351
aS'NL.RIVM.AQ/SPO_F-NL00631_00007_111_112'
p3352
aS'NL.RIVM.AQ/SPO_F-NL00433_00007_101_102'
p3353
aS'NL.RIVM.AQ/SPO_F-NL00107_00007_101_102'
p3354
aS'NL.RIVM.AQ/SPO_F-NL00133_00007_111_112'
p3355
aS'NL.RIVM.AQ/SPO_F-NL00442_00007_100_100'
p3356
aS'NL.RIVM.AQ/SPO_F-NL00404_00007_111_112'
p3357
aS'NL.RIVM.AQ/SPO_F-NL00641_00007_100_101'
p3358
aS'NL.RIVM.AQ/SPO_F-NL00131_00007_111_112'
p3359
aS'NL.RIVM.AQ/SPO_F-NL00235_00007_111_112'
p3360
aS'NL.RIVM.AQ/SPO_F-NL00301_00007_101_102'
p3361
aS'NL.RIVM.AQ/SPO_F-NL00318_00007_111_112'
p3362
aS'NL.RIVM.AQ/SPO_F-NL00643_00007_100_100'
p3363
aS'NL.RIVM.AQ/SPO_F-NL00230_00007_101_102'
p3364
aS'NL.RIVM.AQ/SPO_F-NL00807_00007_101_102'
p3365
aS'NL.RIVM.AQ/SPO_F-NL00418_00007_120_121'
p3366
aS'NL.RIVM.AQ/SPO_F-NL00437_00007_101_102'
p3367
aS'NL.RIVM.AQ/SPO_F-NL00929_00007_100_101'
p3368
aS'NL.RIVM.AQ/SPO_F-NL00633_00007_111_112'
p3369
aS'NL.RIVM.AQ/SPO_F-NL00639_00007_101_102'
p3370
atRp3371
sg3240
S'http://dd.eionet.europa.eu/vocabulary/aq/pollutant/7'
p3372
ssS'NL.RIVM.AQ/SPP-NL_A_D9042D9042'
p3373
(dp3374
g34
(lp3375
S'NL.RIVM.AQ/STA-NL00017/20'
p3376
aS'NL.RIVM.AQ/STA-NL00017/21'
p3377
aS'NL.RIVM.AQ/STA-NL00703/20'
p3378
aS'NL.RIVM.AQ/STA-NL00703/21'
p3379
aS'NL.RIVM.AQ/STA-NL00704/20'
p3380
aS'NL.RIVM.AQ/STA-NL00704/21'
p3381
asg3234
g7
((ltRp3382
sg3240
S'http://dd.eionet.europa.eu/vocabulary/aq/pollutant/20'
p3383
ssS'NL.RIVM.AQ/SPP-NL_A_UV-P_thermo49w'
p3384
(dp3385
g34
(lp3386
g3165
asg3234
g7
((lp3387
S'NL.RIVM.AQ/SPO_F-NL00644_00007_100_100'
p3388
atRp3389
sg3240
S'http://dd.eionet.europa.eu/vocabulary/aq/pollutant/7'
p3390
ssS'NL.RIVM.AQ/SPP-NL_A_chemi_API200E'
p3391
(dp3392
g34
(lp3393
g433
aS'NL.RIVM.AQ/STA-NL00107/8'
p3394
aS'NL.RIVM.AQ/STA-NL00107/9'
p3395
ag1369
aS'NL.RIVM.AQ/STA-NL00131/8'
p3396
aS'NL.RIVM.AQ/STA-NL00131/9'
p3397
ag549
aS'NL.RIVM.AQ/STA-NL00133/8'
p3398
aS'NL.RIVM.AQ/STA-NL00133/9'
p3399
ag1021
aS'NL.RIVM.AQ/STA-NL00136/8'
p3400
aS'NL.RIVM.AQ/STA-NL00136/9'
p3401
aS'NL.RIVM.AQ/STA-NL00137/38'
p3402
aS'NL.RIVM.AQ/STA-NL00137/8'
p3403
aS'NL.RIVM.AQ/STA-NL00137/9'
p3404
ag240
aS'NL.RIVM.AQ/STA-NL00230/8'
p3405
aS'NL.RIVM.AQ/STA-NL00230/9'
p3406
ag1202
aS'NL.RIVM.AQ/STA-NL00235/8'
p3407
aS'NL.RIVM.AQ/STA-NL00235/9'
p3408
ag1569
aS'NL.RIVM.AQ/STA-NL00236/8'
p3409
aS'NL.RIVM.AQ/STA-NL00236/9'
p3410
ag1469
aS'NL.RIVM.AQ/STA-NL00237/8'
p3411
aS'NL.RIVM.AQ/STA-NL00237/9'
p3412
ag420
aS'NL.RIVM.AQ/STA-NL00241/8'
p3413
aS'NL.RIVM.AQ/STA-NL00241/9'
p3414
aS'NL.RIVM.AQ/STA-NL00245/38'
p3415
aS'NL.RIVM.AQ/STA-NL00245/8'
p3416
aS'NL.RIVM.AQ/STA-NL00245/9'
p3417
ag3005
aS'NL.RIVM.AQ/STA-NL00246/8'
p3418
aS'NL.RIVM.AQ/STA-NL00246/9'
p3419
ag2575
aS'NL.RIVM.AQ/STA-NL00247/8'
p3420
aS'NL.RIVM.AQ/STA-NL00247/9'
p3421
ag859
aS'NL.RIVM.AQ/STA-NL00301/8'
p3422
aS'NL.RIVM.AQ/STA-NL00301/9'
p3423
ag3146
aS'NL.RIVM.AQ/STA-NL00318/8'
p3424
aS'NL.RIVM.AQ/STA-NL00318/9'
p3425
ag2926
aS'NL.RIVM.AQ/STA-NL00404/8'
p3426
aS'NL.RIVM.AQ/STA-NL00404/9'
p3427
ag340
aS'NL.RIVM.AQ/STA-NL00418/8'
p3428
aS'NL.RIVM.AQ/STA-NL00418/9'
p3429
ag1990
aS'NL.RIVM.AQ/STA-NL00433/8'
p3430
aS'NL.RIVM.AQ/STA-NL00433/9'
p3431
ag1767
aS'NL.RIVM.AQ/STA-NL00437/8'
p3432
aS'NL.RIVM.AQ/STA-NL00437/9'
p3433
ag2531
aS'NL.RIVM.AQ/STA-NL00442/8'
p3434
aS'NL.RIVM.AQ/STA-NL00442/9'
p3435
ag389
aS'NL.RIVM.AQ/STA-NL00444/8'
p3436
aS'NL.RIVM.AQ/STA-NL00444/9'
p3437
ag43
aS'NL.RIVM.AQ/STA-NL00445/8'
p3438
aS'NL.RIVM.AQ/STA-NL00445/9'
p3439
aS'NL.RIVM.AQ/STA-NL00485/38'
p3440
aS'NL.RIVM.AQ/STA-NL00485/8'
p3441
aS'NL.RIVM.AQ/STA-NL00485/9'
p3442
aS'NL.RIVM.AQ/STA-NL00486/38'
p3443
aS'NL.RIVM.AQ/STA-NL00486/8'
p3444
aS'NL.RIVM.AQ/STA-NL00486/9'
p3445
aS'NL.RIVM.AQ/STA-NL00487/38'
p3446
aS'NL.RIVM.AQ/STA-NL00487/8'
p3447
aS'NL.RIVM.AQ/STA-NL00487/9'
p3448
aS'NL.RIVM.AQ/STA-NL00488/38'
p3449
aS'NL.RIVM.AQ/STA-NL00488/8'
p3450
aS'NL.RIVM.AQ/STA-NL00488/9'
p3451
aS'NL.RIVM.AQ/STA-NL00489/38'
p3452
aS'NL.RIVM.AQ/STA-NL00489/8'
p3453
aS'NL.RIVM.AQ/STA-NL00489/9'
p3454
aS'NL.RIVM.AQ/STA-NL00491/38'
p3455
aS'NL.RIVM.AQ/STA-NL00491/8'
p3456
aS'NL.RIVM.AQ/STA-NL00491/9'
p3457
aS'NL.RIVM.AQ/STA-NL00493/38'
p3458
aS'NL.RIVM.AQ/STA-NL00493/8'
p3459
aS'NL.RIVM.AQ/STA-NL00493/9'
p3460
aS'NL.RIVM.AQ/STA-NL00494/38'
p3461
aS'NL.RIVM.AQ/STA-NL00494/8'
p3462
aS'NL.RIVM.AQ/STA-NL00494/9'
p3463
aS'NL.RIVM.AQ/STA-NL00495/38'
p3464
aS'NL.RIVM.AQ/STA-NL00495/8'
p3465
aS'NL.RIVM.AQ/STA-NL00495/9'
p3466
aS'NL.RIVM.AQ/STA-NL00496/38'
p3467
aS'NL.RIVM.AQ/STA-NL00496/8'
p3468
aS'NL.RIVM.AQ/STA-NL00496/9'
p3469
aS'NL.RIVM.AQ/STA-NL00537/38'
p3470
aS'NL.RIVM.AQ/STA-NL00537/8'
p3471
aS'NL.RIVM.AQ/STA-NL00537/9'
p3472
ag2821
aS'NL.RIVM.AQ/STA-NL00538/8'
p3473
aS'NL.RIVM.AQ/STA-NL00538/9'
p3474
ag2064
aS'NL.RIVM.AQ/STA-NL00547/8'
p3475
aS'NL.RIVM.AQ/STA-NL00547/9'
p3476
aS'NL.RIVM.AQ/STA-NL00548/38'
p3477
aS'NL.RIVM.AQ/STA-NL00548/8'
p3478
aS'NL.RIVM.AQ/STA-NL00548/9'
p3479
ag2152
aS'NL.RIVM.AQ/STA-NL00549/8'
p3480
aS'NL.RIVM.AQ/STA-NL00549/9'
p3481
ag320
aS'NL.RIVM.AQ/STA-NL00631/8'
p3482
aS'NL.RIVM.AQ/STA-NL00631/9'
p3483
ag2311
aS'NL.RIVM.AQ/STA-NL00633/8'
p3484
aS'NL.RIVM.AQ/STA-NL00633/9'
p3485
ag2003
aS'NL.RIVM.AQ/STA-NL00636/8'
p3486
aS'NL.RIVM.AQ/STA-NL00636/9'
p3487
ag333
aS'NL.RIVM.AQ/STA-NL00639/8'
p3488
aS'NL.RIVM.AQ/STA-NL00639/9'
p3489
ag1344
aS'NL.RIVM.AQ/STA-NL00641/8'
p3490
aS'NL.RIVM.AQ/STA-NL00641/9'
p3491
ag2625
aS'NL.RIVM.AQ/STA-NL00644/8'
p3492
aS'NL.RIVM.AQ/STA-NL00644/9'
p3493
ag2403
aS'NL.RIVM.AQ/STA-NL00722/8'
p3494
aS'NL.RIVM.AQ/STA-NL00722/9'
p3495
ag209
aS'NL.RIVM.AQ/STA-NL00738/8'
p3496
aS'NL.RIVM.AQ/STA-NL00738/9'
p3497
ag896
aS'NL.RIVM.AQ/STA-NL00741/8'
p3498
aS'NL.RIVM.AQ/STA-NL00741/9'
p3499
ag1209
aS'NL.RIVM.AQ/STA-NL00742/8'
p3500
aS'NL.RIVM.AQ/STA-NL00742/9'
p3501
ag1829
aS'NL.RIVM.AQ/STA-NL00807/8'
p3502
aS'NL.RIVM.AQ/STA-NL00807/9'
p3503
ag2139
aS'NL.RIVM.AQ/STA-NL00818/8'
p3504
aS'NL.RIVM.AQ/STA-NL00818/9'
p3505
ag1488
aS'NL.RIVM.AQ/STA-NL00918/8'
p3506
aS'NL.RIVM.AQ/STA-NL00918/9'
p3507
ag1983
aS'NL.RIVM.AQ/STA-NL00929/8'
p3508
aS'NL.RIVM.AQ/STA-NL00929/9'
p3509
ag1376
aS'NL.RIVM.AQ/STA-NL00934/8'
p3510
aS'NL.RIVM.AQ/STA-NL00934/9'
p3511
ag82
aS'NL.RIVM.AQ/STA-NL00937/8'
p3512
aS'NL.RIVM.AQ/STA-NL00937/9'
p3513
ag2695
aS'NL.RIVM.AQ/STA-NL00938/8'
p3514
aS'NL.RIVM.AQ/STA-NL00938/9'
p3515
asg3234
g7
((lp3516
S'NL.RIVM.AQ/SPO_F-NL00246_00038_100_100'
p3517
aS'NL.RIVM.AQ/SPO_F-NL00442_00038_100_100'
p3518
aS'NL.RIVM.AQ/SPO_F-NL00918_00038_101_102'
p3519
aS'NL.RIVM.AQ/SPO_F-NL00445_00038_100_101'
p3520
aS'NL.RIVM.AQ/SPO_F-NL00230_00038_101_102'
p3521
aS'NL.RIVM.AQ/SPO_F-NL00538_00038_111_112'
p3522
aS'NL.RIVM.AQ/SPO_F-NL00818_00038_100_101'
p3523
aS'NL.RIVM.AQ/SPO_F-NL00549_00038_100_100'
p3524
aS'NL.RIVM.AQ/SPO_F-NL00937_00038_100_101'
p3525
aS'NL.RIVM.AQ/SPO_F-NL00241_00038_100_101'
p3526
aS'NL.RIVM.AQ/SPO_F-NL00247_00038_100_100'
p3527
aS'NL.RIVM.AQ/SPO_F-NL00107_00038_101_102'
p3528
aS'NL.RIVM.AQ/SPO_F-NL00641_00038_100_101'
p3529
aS'NL.RIVM.AQ/SPO_F-NL00722_00038_111_112'
p3530
aS'NL.RIVM.AQ/SPO_F-NL00235_00038_101_102'
p3531
aS'NL.RIVM.AQ/SPO_F-NL00631_00038_111_113'
p3532
aS'NL.RIVM.AQ/SPO_F-NL00644_00038_100_100'
p3533
aS'NL.RIVM.AQ/SPO_F-NL00136_00038_100_101'
p3534
aS'NL.RIVM.AQ/SPO_F-NL00639_00038_101_102'
p3535
aS'NL.RIVM.AQ/SPO_F-NL00418_00038_111_112'
p3536
aS'NL.RIVM.AQ/SPO_F-NL00131_00038_111_112'
p3537
aS'NL.RIVM.AQ/SPO_F-NL00934_00038_111_112'
p3538
aS'NL.RIVM.AQ/SPO_F-NL00738_00038_100_101'
p3539
aS'NL.RIVM.AQ/SPO_F-NL00404_00038_111_112'
p3540
aS'NL.RIVM.AQ/SPO_F-NL00938_00038_100_101'
p3541
aS'NL.RIVM.AQ/SPO_F-NL00929_00038_100_101'
p3542
aS'NL.RIVM.AQ/SPO_F-NL00433_00038_111_112'
p3543
aS'NL.RIVM.AQ/SPO_F-NL00636_00038_111_112'
p3544
aS'NL.RIVM.AQ/SPO_F-NL00437_00038_101_102'
p3545
aS'NL.RIVM.AQ/SPO_F-NL00633_00038_101_102'
p3546
aS'NL.RIVM.AQ/SPO_F-NL00236_00038_101_102'
p3547
aS'NL.RIVM.AQ/SPO_F-NL00742_00038_100_101'
p3548
aS'NL.RIVM.AQ/SPO_F-NL00318_00038_111_112'
p3549
aS'NL.RIVM.AQ/SPO_F-NL00301_00038_101_102'
p3550
aS'NL.RIVM.AQ/SPO_F-NL00444_00038_100_101'
p3551
aS'NL.RIVM.AQ/SPO_F-NL00741_00038_100_101'
p3552
aS'NL.RIVM.AQ/SPO_F-NL00807_00038_101_102'
p3553
aS'NL.RIVM.AQ/SPO_F-NL00133_00038_101_102'
p3554
aS'NL.RIVM.AQ/SPO_F-NL00237_00038_101_102'
p3555
aS'NL.RIVM.AQ/SPO_F-NL00547_00038_100_100'
p3556
atRp3557
sg3240
S'http://dd.eionet.europa.eu/vocabulary/aq/pollutant/38'
p3558
ssS'NL.RIVM.AQ/SPP-NL_A_NDIR_thermo48w'
p3559
(dp3560
g34
(lp3561
S'NL.RIVM.AQ/STA-NL00633/10'
p3562
ag586
ag729
aS'NL.RIVM.AQ/STA-NL00742/10'
p3563
asg3234
g7
((lp3564
S'NL.RIVM.AQ/SPO_F-NL00741_00010_100_100'
p3565
aS'NL.RIVM.AQ/SPO_F-NL00644_00010_100_100'
p3566
atRp3567
sg3240
S'http://dd.eionet.europa.eu/vocabulary/aq/pollutant/10'
p3568
ssS'NL.RIVM.AQ/SPP-NL_A_5090150901'
p3569
(dp3570
g34
(lp3571
S'NL.RIVM.AQ/STA-NL00131/35'
p3572
aS'NL.RIVM.AQ/STA-NL00235/35'
p3573
aS'NL.RIVM.AQ/STA-NL00244/35'
p3574
ag2538
ag2600
ag2632
aS'NL.RIVM.AQ/STA-NL00722/35'
p3575
ag2348
ag2741
asg3234
g7
((lp3576
S'NL.RIVM.AQ/SPO_F-NL00444_00035_100_100'
p3577
aS'NL.RIVM.AQ/SPO_F-NL00633_00035_100_100'
p3578
aS'NL.RIVM.AQ/SPO_F-NL00738_00035_100_100'
p3579
aS'NL.RIVM.AQ/SPO_F-NL00538_00035_100_100'
p3580
aS'NL.RIVM.AQ/SPO_F-NL00929_00035_100_100'
p3581
atRp3582
sg3240
S'http://dd.eionet.europa.eu/vocabulary/aq/pollutant/35'
p3583
ssS'NL.RIVM.AQ/SPP-NL_A_UV-FL_API100E'
p3584
(dp3585
g34
(lp3586
S'NL.RIVM.AQ/STA-NL00484/1'
p3587
aS'NL.RIVM.AQ/STA-NL00485/1'
p3588
aS'NL.RIVM.AQ/STA-NL00486/1'
p3589
aS'NL.RIVM.AQ/STA-NL00494/1'
p3590
aS'NL.RIVM.AQ/STA-NL00495/1'
p3591
aS'NL.RIVM.AQ/STA-NL00496/1'
p3592
asg3234
g7
((ltRp3593
sg3240
S'http://dd.eionet.europa.eu/vocabulary/aq/pollutant/1'
p3594
ssS'NL.RIVM.AQ/SPP-NL_N_gravi_leckelSEQ47-50'
p3595
(dp3596
g34
(lp3597
g56
asg3234
g7
((lp3598
S'NL.RIVM.AQ/SPO_F-NL00230_06001_100_101'
p3599
atRp3600
sg3240
S'http://dd.eionet.europa.eu/vocabulary/aq/pollutant/6001'
p3601
ssS'NL.RIVM.AQ/SPP-NL_A_UV-FL_thermo43w'
p3602
(dp3603
g34
(lp3604
g1698
ag1606
ag2919
ag3114
ag1048
ag494
asg3234
g7
((lp3605
S'NL.RIVM.AQ/SPO_F-NL00722_00001_111_111'
p3606
aS'NL.RIVM.AQ/SPO_F-NL00133_00001_101_101'
p3607
aS'NL.RIVM.AQ/SPO_F-NL00444_00001_100_100'
p3608
aS'NL.RIVM.AQ/SPO_F-NL00934_00001_101_101'
p3609
aS'NL.RIVM.AQ/SPO_F-NL00644_00001_100_100'
p3610
aS'NL.RIVM.AQ/SPO_F-NL00318_00001_111_111'
p3611
atRp3612
sg3240
S'http://dd.eionet.europa.eu/vocabulary/aq/pollutant/1'
p3613
ssS'NL.RIVM.AQ/SPP-NL_A_BETA_andersenFH62IR'
p3614
(dp3615
g34
(lp3616
S'NL.RIVM.AQ/STA-NL00131/5'
p3617
aS'NL.RIVM.AQ/STA-NL00133/5'
p3618
aS'NL.RIVM.AQ/STA-NL00136/5'
p3619
aS'NL.RIVM.AQ/STA-NL00137/5'
p3620
aS'NL.RIVM.AQ/STA-NL00138/5'
p3621
aS'NL.RIVM.AQ/STA-NL00230/5'
p3622
aS'NL.RIVM.AQ/STA-NL00235/5'
p3623
aS'NL.RIVM.AQ/STA-NL00236/5'
p3624
aS'NL.RIVM.AQ/STA-NL00237/5'
p3625
aS'NL.RIVM.AQ/STA-NL00240/5'
p3626
aS'NL.RIVM.AQ/STA-NL00241/5'
p3627
aS'NL.RIVM.AQ/STA-NL00244/5'
p3628
aS'NL.RIVM.AQ/STA-NL00246/5'
p3629
aS'NL.RIVM.AQ/STA-NL00247/5'
p3630
aS'NL.RIVM.AQ/STA-NL00312/5'
p3631
aS'NL.RIVM.AQ/STA-NL00318/5'
p3632
aS'NL.RIVM.AQ/STA-NL00319/5'
p3633
aS'NL.RIVM.AQ/STA-NL00404/5'
p3634
aS'NL.RIVM.AQ/STA-NL00418/5'
p3635
aS'NL.RIVM.AQ/STA-NL00433/5'
p3636
aS'NL.RIVM.AQ/STA-NL00437/5'
p3637
aS'NL.RIVM.AQ/STA-NL00442/5'
p3638
aS'NL.RIVM.AQ/STA-NL00444/5'
p3639
aS'NL.RIVM.AQ/STA-NL00445/5'
p3640
aS'NL.RIVM.AQ/STA-NL00446/5'
p3641
aS'NL.RIVM.AQ/STA-NL00447/5'
p3642
aS'NL.RIVM.AQ/STA-NL00537/5'
p3643
aS'NL.RIVM.AQ/STA-NL00538/5'
p3644
aS'NL.RIVM.AQ/STA-NL00545/5'
p3645
aS'NL.RIVM.AQ/STA-NL00631/5'
p3646
aS'NL.RIVM.AQ/STA-NL00633/5'
p3647
aS'NL.RIVM.AQ/STA-NL00636/5'
p3648
aS'NL.RIVM.AQ/STA-NL00639/5'
p3649
aS'NL.RIVM.AQ/STA-NL00641/5'
p3650
aS'NL.RIVM.AQ/STA-NL00644/5'
p3651
aS'NL.RIVM.AQ/STA-NL00722/5'
p3652
aS'NL.RIVM.AQ/STA-NL00728/5'
p3653
aS'NL.RIVM.AQ/STA-NL00738/5'
p3654
aS'NL.RIVM.AQ/STA-NL00741/5'
p3655
aS'NL.RIVM.AQ/STA-NL00743/5'
p3656
aS'NL.RIVM.AQ/STA-NL00818/5'
p3657
aS'NL.RIVM.AQ/STA-NL00918/5'
p3658
aS'NL.RIVM.AQ/STA-NL00929/5'
p3659
aS'NL.RIVM.AQ/STA-NL00934/5'
p3660
aS'NL.RIVM.AQ/STA-NL00937/5'
p3661
asg3234
g7
((ltRp3662
sg3240
S'http://dd.eionet.europa.eu/vocabulary/aq/pollutant/5'
p3663
ssS'NL.RIVM.AQ/SPP-NL_A_reflect_08001'
p3664
(dp3665
g34
(lp3666
S'NL.RIVM.AQ/STA-NL00131/6'
p3667
aS'NL.RIVM.AQ/STA-NL00240/6'
p3668
aS'NL.RIVM.AQ/STA-NL00241/6'
p3669
aS'NL.RIVM.AQ/STA-NL00433/6'
p3670
aS'NL.RIVM.AQ/STA-NL00444/6'
p3671
aS'NL.RIVM.AQ/STA-NL00448/6'
p3672
aS'NL.RIVM.AQ/STA-NL00538/6'
p3673
asg3234
g7
((ltRp3674
sg3240
S'http://dd.eionet.europa.eu/vocabulary/aq/pollutant/6'
p3675
ssS'NL.RIVM.AQ/SPP-NL_A_NDIR_API300E'
p3676
(dp3677
g34
(lp3678
S'NL.RIVM.AQ/STA-NL00487/10'
p3679
aS'NL.RIVM.AQ/STA-NL00488/10'
p3680
aS'NL.RIVM.AQ/STA-NL00491/10'
p3681
aS'NL.RIVM.AQ/STA-NL00493/10'
p3682
asg3234
g7
((ltRp3683
sg3240
S'http://dd.eionet.europa.eu/vocabulary/aq/pollutant/10'
p3684
ssS'NL.RIVM.AQ/SPP-NL_A_IR-GFC_06003'
p3685
(dp3686
g34
(lp3687
S'NL.RIVM.AQ/STA-NL00007/10'
p3688
aS'NL.RIVM.AQ/STA-NL00012/10'
p3689
aS'NL.RIVM.AQ/STA-NL00014/10'
p3690
aS'NL.RIVM.AQ/STA-NL00551/10'
p3691
aS'NL.RIVM.AQ/STA-NL00553/10'
p3692
aS'NL.RIVM.AQ/STA-NL00561/10'
p3693
asg3234
g7
((ltRp3694
sg3240
S'http://dd.eionet.europa.eu/vocabulary/aq/pollutant/10'
p3695
ssS'NL.RIVM.AQ/SPP-NL_N_CFA_leckelSEQ47-50'
p3696
(dp3697
g34
(lp3698
S'NL.RIVM.AQ/STA-NL00131/45'
p3699
aS'NL.RIVM.AQ/STA-NL00444/45'
p3700
aS'NL.RIVM.AQ/STA-NL00538/45'
p3701
aS'NL.RIVM.AQ/STA-NL00929/45'
p3702
asg3234
g7
((ltRp3703
sg3240
S'http://dd.eionet.europa.eu/vocabulary/aq/pollutant/45'
p3704
ssS'NL.RIVM.AQ/SPP-NL_A_BETA_BAM1020'
p3705
(dp3706
g34
(lp3707
S'NL.RIVM.AQ/STA-NL00007/5'
p3708
aS'NL.RIVM.AQ/STA-NL00007/6001'
p3709
aS'NL.RIVM.AQ/STA-NL00012/5'
p3710
aS'NL.RIVM.AQ/STA-NL00012/6001'
p3711
aS'NL.RIVM.AQ/STA-NL00014/5'
p3712
aS'NL.RIVM.AQ/STA-NL00014/6001'
p3713
aS'NL.RIVM.AQ/STA-NL00016/5'
p3714
aS'NL.RIVM.AQ/STA-NL00016/6001'
p3715
aS'NL.RIVM.AQ/STA-NL00017/5'
p3716
aS'NL.RIVM.AQ/STA-NL00017/6001'
p3717
aS'NL.RIVM.AQ/STA-NL00482/5'
p3718
aS'NL.RIVM.AQ/STA-NL00482/6001'
p3719
aS'NL.RIVM.AQ/STA-NL00485/5'
p3720
aS'NL.RIVM.AQ/STA-NL00487/5'
p3721
aS'NL.RIVM.AQ/STA-NL00487/6001'
p3722
aS'NL.RIVM.AQ/STA-NL00488/5'
p3723
aS'NL.RIVM.AQ/STA-NL00488/6001'
p3724
aS'NL.RIVM.AQ/STA-NL00489/5'
p3725
aS'NL.RIVM.AQ/STA-NL00489/6001'
p3726
aS'NL.RIVM.AQ/STA-NL00491/5'
p3727
aS'NL.RIVM.AQ/STA-NL00491/6001'
p3728
aS'NL.RIVM.AQ/STA-NL00493/5'
p3729
aS'NL.RIVM.AQ/STA-NL00494/5'
p3730
aS'NL.RIVM.AQ/STA-NL00494/6001'
p3731
aS'NL.RIVM.AQ/STA-NL00495/5'
p3732
aS'NL.RIVM.AQ/STA-NL00495/6001'
p3733
aS'NL.RIVM.AQ/STA-NL00496/5'
p3734
aS'NL.RIVM.AQ/STA-NL00496/6001'
p3735
aS'NL.RIVM.AQ/STA-NL00546/5'
p3736
aS'NL.RIVM.AQ/STA-NL00551/5'
p3737
aS'NL.RIVM.AQ/STA-NL00551/6001'
p3738
aS'NL.RIVM.AQ/STA-NL00553/5'
p3739
aS'NL.RIVM.AQ/STA-NL00553/6001'
p3740
aS'NL.RIVM.AQ/STA-NL00556/5'
p3741
aS'NL.RIVM.AQ/STA-NL00561/5'
p3742
aS'NL.RIVM.AQ/STA-NL00561/6001'
p3743
aS'NL.RIVM.AQ/STA-NL00564/5'
p3744
aS'NL.RIVM.AQ/STA-NL00565/5'
p3745
aS'NL.RIVM.AQ/STA-NL00570/5'
p3746
aS'NL.RIVM.AQ/STA-NL00570/6001'
p3747
aS'NL.RIVM.AQ/STA-NL00572/5'
p3748
aS'NL.RIVM.AQ/STA-NL00572/6001'
p3749
aS'NL.RIVM.AQ/STA-NL00573/5'
p3750
aS'NL.RIVM.AQ/STA-NL00573/6001'
p3751
aS'NL.RIVM.AQ/STA-NL00701/5'
p3752
aS'NL.RIVM.AQ/STA-NL00701/6001'
p3753
aS'NL.RIVM.AQ/STA-NL00703/5'
p3754
aS'NL.RIVM.AQ/STA-NL00703/6001'
p3755
aS'NL.RIVM.AQ/STA-NL00704/5'
p3756
aS'NL.RIVM.AQ/STA-NL00704/6001'
p3757
asg3234
g7
((ltRp3758
sg3240
S'http://dd.eionet.europa.eu/vocabulary/aq/pollutant/5'
p3759
ssS'NL.RIVM.AQ/SPP-NL_A_D9037D9037'
p3760
(dp3761
g34
(lp3762
S'NL.RIVM.AQ/STA-NL00483/20'
p3763
aS'NL.RIVM.AQ/STA-NL00483/21'
p3764
aS'NL.RIVM.AQ/STA-NL00485/20'
p3765
aS'NL.RIVM.AQ/STA-NL00485/21'
p3766
aS'NL.RIVM.AQ/STA-NL00496/20'
p3767
aS'NL.RIVM.AQ/STA-NL00496/21'
p3768
asg3234
g7
((ltRp3769
sg3240
S'http://dd.eionet.europa.eu/vocabulary/aq/pollutant/20'
p3770
ssS'NL.RIVM.AQ/SPP-NL_A_D9040D9040'
p3771
(dp3772
g34
(lp3773
S'NL.RIVM.AQ/STA-NL00546/20'
p3774
aS'NL.RIVM.AQ/STA-NL00546/21'
p3775
aS'NL.RIVM.AQ/STA-NL00633/20'
p3776
aS'NL.RIVM.AQ/STA-NL00633/21'
p3777
aS'NL.RIVM.AQ/STA-NL00633/431'
p3778
aS'NL.RIVM.AQ/STA-NL00633/464'
p3779
aS'NL.RIVM.AQ/STA-NL00633/482'
p3780
aS'NL.RIVM.AQ/STA-NL00639/20'
p3781
aS'NL.RIVM.AQ/STA-NL00639/21'
p3782
aS'NL.RIVM.AQ/STA-NL00639/431'
p3783
aS'NL.RIVM.AQ/STA-NL00639/464'
p3784
aS'NL.RIVM.AQ/STA-NL00639/482'
p3785
asg3234
g7
((ltRp3786
sg3240
S'http://dd.eionet.europa.eu/vocabulary/aq/pollutant/20'
p3787
ssS'NL.RIVM.AQ/SPP-NL_N_gravi_derenda'
p3788
(dp3789
g34
(lp3790
S'NL.RIVM.AQ/STA-NL00131/6001'
p3791
aS'NL.RIVM.AQ/STA-NL00136/6001'
p3792
aS'NL.RIVM.AQ/STA-NL00138/6001'
p3793
ag1970
aS'NL.RIVM.AQ/STA-NL00241/6001'
p3794
ag2682
ag1183
aS'NL.RIVM.AQ/STA-NL00418/6001'
p3795
ag1685
ag1395
ag822
ag593
ag2645
ag75
ag1848
ag1462
ag1008
aS'NL.RIVM.AQ/STA-NL00741/6001'
p3796
ag1079
ag1086
ag2728
aS'NL.RIVM.AQ/STA-NL00937/6001'
p3797
ag692
asg3234
g7
((lp3798
S'NL.RIVM.AQ/SPO_F-NL00938_06001_100_101'
p3799
aS'NL.RIVM.AQ/SPO_F-NL00444_06001_100_101'
p3800
aS'NL.RIVM.AQ/SPO_F-NL00821_06001_100_100'
p3801
aS'NL.RIVM.AQ/SPO_F-NL00240_06001_100_100'
p3802
aS'NL.RIVM.AQ/SPO_F-NL00247_06001_100_100'
p3803
aS'NL.RIVM.AQ/SPO_F-NL00641_06001_100_100'
p3804
aS'NL.RIVM.AQ/SPO_F-NL00742_06001_100_100'
p3805
aS'NL.RIVM.AQ/SPO_F-NL00448_06001_100_101'
p3806
aS'NL.RIVM.AQ/SPO_F-NL00538_06001_100_100'
p3807
aS'NL.RIVM.AQ/SPO_F-NL00738_06001_100_100'
p3808
aS'NL.RIVM.AQ/SPO_F-NL00404_06001_100_101'
p3809
aS'NL.RIVM.AQ/SPO_F-NL00934_06001_100_100'
p3810
aS'NL.RIVM.AQ/SPO_F-NL00433_06001_100_101'
p3811
aS'NL.RIVM.AQ/SPO_F-NL00636_06001_100_100'
p3812
aS'NL.RIVM.AQ/SPO_F-NL00643_06001_100_100'
p3813
aS'NL.RIVM.AQ/SPO_F-NL00644_06001_100_100'
p3814
atRp3815
sg3240
S'http://dd.eionet.europa.eu/vocabulary/aq/pollutant/6001'
p3816
ssS'NL.RIVM.AQ/SPP-NL_N_IC_leckelSEQ47-50'
p3817
(dp3818
g34
(lp3819
S'NL.RIVM.AQ/STA-NL00131/46'
p3820
aS'NL.RIVM.AQ/STA-NL00131/47'
p3821
aS'NL.RIVM.AQ/STA-NL00131/631'
p3822
aS'NL.RIVM.AQ/STA-NL00444/46'
p3823
aS'NL.RIVM.AQ/STA-NL00444/47'
p3824
aS'NL.RIVM.AQ/STA-NL00444/631'
p3825
aS'NL.RIVM.AQ/STA-NL00538/46'
p3826
aS'NL.RIVM.AQ/STA-NL00538/47'
p3827
aS'NL.RIVM.AQ/STA-NL00538/631'
p3828
aS'NL.RIVM.AQ/STA-NL00929/46'
p3829
aS'NL.RIVM.AQ/STA-NL00929/47'
p3830
aS'NL.RIVM.AQ/STA-NL00929/631'
p3831
asg3234
g7
((ltRp3832
sg3240
S'http://dd.eionet.europa.eu/vocabulary/aq/pollutant/46'
p3833
ssS'NL.RIVM.AQ/SPP-NL_A_BETA_D9041'
p3834
(dp3835
g34
(lp3836
S'NL.RIVM.AQ/STA-NL00547/5'
p3837
aS'NL.RIVM.AQ/STA-NL00549/5'
p3838
asg3234
g7
((ltRp3839
sg3240
S'http://dd.eionet.europa.eu/vocabulary/aq/pollutant/5'
p3840
ssS'NL.RIVM.AQ/SPP-NL_A_chemi_API200'
p3841
(dp3842
g34
(lp3843
S'NL.RIVM.AQ/STA-NL00002/38'
p3844
aS'NL.RIVM.AQ/STA-NL00002/8'
p3845
aS'NL.RIVM.AQ/STA-NL00002/9'
p3846
aS'NL.RIVM.AQ/STA-NL00003/38'
p3847
aS'NL.RIVM.AQ/STA-NL00003/8'
p3848
aS'NL.RIVM.AQ/STA-NL00003/9'
p3849
aS'NL.RIVM.AQ/STA-NL00007/38'
p3850
aS'NL.RIVM.AQ/STA-NL00007/8'
p3851
aS'NL.RIVM.AQ/STA-NL00007/9'
p3852
aS'NL.RIVM.AQ/STA-NL00012/38'
p3853
aS'NL.RIVM.AQ/STA-NL00012/8'
p3854
aS'NL.RIVM.AQ/STA-NL00012/9'
p3855
aS'NL.RIVM.AQ/STA-NL00017/38'
p3856
aS'NL.RIVM.AQ/STA-NL00017/8'
p3857
aS'NL.RIVM.AQ/STA-NL00017/9'
p3858
aS'NL.RIVM.AQ/STA-NL00546/38'
p3859
aS'NL.RIVM.AQ/STA-NL00546/8'
p3860
aS'NL.RIVM.AQ/STA-NL00546/9'
p3861
aS'NL.RIVM.AQ/STA-NL00551/38'
p3862
aS'NL.RIVM.AQ/STA-NL00551/8'
p3863
aS'NL.RIVM.AQ/STA-NL00551/9'
p3864
aS'NL.RIVM.AQ/STA-NL00553/38'
p3865
aS'NL.RIVM.AQ/STA-NL00553/8'
p3866
aS'NL.RIVM.AQ/STA-NL00553/9'
p3867
aS'NL.RIVM.AQ/STA-NL00561/38'
p3868
aS'NL.RIVM.AQ/STA-NL00561/8'
p3869
aS'NL.RIVM.AQ/STA-NL00561/9'
p3870
aS'NL.RIVM.AQ/STA-NL00564/38'
p3871
aS'NL.RIVM.AQ/STA-NL00564/8'
p3872
aS'NL.RIVM.AQ/STA-NL00564/9'
p3873
aS'NL.RIVM.AQ/STA-NL00565/38'
p3874
aS'NL.RIVM.AQ/STA-NL00565/8'
p3875
aS'NL.RIVM.AQ/STA-NL00565/9'
p3876
aS'NL.RIVM.AQ/STA-NL00703/38'
p3877
aS'NL.RIVM.AQ/STA-NL00703/8'
p3878
aS'NL.RIVM.AQ/STA-NL00703/9'
p3879
aS'NL.RIVM.AQ/STA-NL00704/38'
p3880
aS'NL.RIVM.AQ/STA-NL00704/8'
p3881
aS'NL.RIVM.AQ/STA-NL00704/9'
p3882
asg3234
g7
((ltRp3883
sg3240
S'http://dd.eionet.europa.eu/vocabulary/aq/pollutant/38'
p3884
ssS'NL.RIVM.AQ/SPP-NL_A_UV-P_D9039'
p3885
(dp3886
g34
(lp3887
g2754
asg3234
g7
((lp3888
S'NL.RIVM.AQ/SPO_F-NL00446_00007_100_100'
p3889
atRp3890
sg3240
S'http://dd.eionet.europa.eu/vocabulary/aq/pollutant/7'
p3891
sssS'accesConstraints'
p3892
S'NONE'
p3893
sb.