(isosRequests
SOS
p1
(dp2
S'accessConstraints'
p3
S''
sS'name'
p4
S'SOS of IRCEL - CELINE'
p5
sS'resourceDescriptionFormat'
p6
c__builtin__
set
p7
((lp8
S'\n        '
p9
atRp10
sS'url'
p11
S'http://sos.irceline.be/sos?'
p12
sS'responseFormat'
p13
g7
((lp14
S'application/zip'
p15
aS'http://www.opengis.net/om/2.0'
p16
atRp17
sS'organisation'
p18
S'IRCEL - CELINE'
p19
sS'costs'
p20
S'NONE'
p21
sS'version'
p22
g7
((lp23
S'1.0.0'
p24
aS'2.0.0'
p25
atRp26
sS'error'
p27
I00
sS'featureofinterest'
p28
(dp29
S'BETR841'
p30
(dp31
S'offerings'
p32
(lp33
S'81104 - PM2.5_._6855'
p34
aS'81102 - PM10_._6854'
p35
aS'42601 - NO_._6851'
p36
aS'44201 - O3_._6853'
p37
aS'42602 - NO2_._6852'
p38
asS'coords'
p39
(lp40
S'157059.0 188039.0'
p41
aS'http://www.opengis.net/def/crs/EPSG/0/31370'
p42
assS'BELSA04'
p43
(dp44
g32
(lp45
S'81102 - PM10_._10691'
p46
aS'16111 - Black Carbon_._10690'
p47
aS'81104 - PM2.5_._10692'
p48
asg39
(lp49
S'152448.0 222679.0'
p50
aS'http://www.opengis.net/def/crs/EPSG/0/31370'
p51
assS'BETR750'
p52
(dp53
g32
(lp54
S'42601 - NO_._7121'
p55
aS'81104 - PM2.5_._100012'
p56
aS'42602 - NO2_._7122'
p57
aS'42401 - SO2_._7120'
p58
aS'42101 - CO_._7119'
p59
aS'81102 - PM10_._7125'
p60
aS'16111 - Black Carbon_._10605'
p61
asg39
(lp62
S'111845.0 209705.0'
p63
aS'http://www.opengis.net/def/crs/EPSG/0/31370'
p64
assS'BETE715'
p65
(dp66
g32
(lp67
S'42601 - NO_._7203'
p68
aS'42602 - NO2_._7204'
p69
asg39
(lp70
S'66645.0 215775.0'
p71
aS'http://www.opengis.net/def/crs/EPSG/0/31370'
p72
assS'BETE714'
p73
(dp74
g32
(lp75
S'42602 - NO2_._7201'
p76
aS'42601 - NO_._7200'
p77
asg39
(lp78
S'71842.0 219377.0'
p79
aS'http://www.opengis.net/def/crs/EPSG/0/31370'
p80
assS'BETE716'
p81
(dp82
g32
(lp83
S'42602 - NO2_._7207'
p84
aS'42601 - NO_._7206'
p85
asg39
(lp86
S'101919.0 195427.0'
p87
aS'http://www.opengis.net/def/crs/EPSG/0/31370'
p88
assS'BETR512'
p89
(dp90
g32
(lp91
S'42101 - CO_._7157'
p92
aS'16111 - Black Carbon_._7155'
p93
aS'42601 - NO_._7159'
p94
aS'42401 - SO2_._7158'
p95
aS'81102 - PM10_._7162'
p96
aS'81104 - PM2.5_._7163'
p97
aS'42602 - NO2_._7160'
p98
asg39
(lp99
S'151930.0 121880.0'
p100
aS'http://www.opengis.net/def/crs/EPSG/0/31370'
p101
assS'BETR510'
p102
(dp103
g32
(lp104
S'81104 - PM2.5_._7149'
p105
aS'42401 - SO2_._7147'
p106
aS'81102 - PM10_._7148'
p107
asg39
(lp108
S'160830.0 122850.0'
p109
aS'http://www.opengis.net/def/crs/EPSG/0/31370'
p110
assS'BETR511'
p111
(dp112
g32
(lp113
S'81104 - PM2.5_._7152'
p114
aS'81102 - PM10_._7151'
p115
asg39
(lp116
S'153980.0 118520.0'
p117
aS'http://www.opengis.net/def/crs/EPSG/0/31370'
p118
assS'BETN093'
p119
(dp120
g32
(lp121
S'42401 - SO2_._6939'
p122
aS'81102 - PM10_._6943'
p123
aS'44201 - O3_._6942'
p124
aS'42602 - NO2_._6941'
p125
aS'42601 - NO_._6940'
p126
aS'81104 - PM2.5_._6944'
p127
asg39
(lp128
S'211760.0 107410.0'
p129
aS'http://www.opengis.net/def/crs/EPSG/0/31370'
p130
assS'BELAB02'
p131
(dp132
g32
(lp133
S'81102 - PM10_._6149'
p134
aS'81104 - PM2.5_._100003'
p135
asg39
(lp136
S'146729.0 225661.0'
p137
aS'http://www.opengis.net/def/crs/EPSG/0/31370'
p138
assS'BELAB01'
p139
(dp140
g32
(lp141
S'16111 - Black Carbon_._6147'
p142
aS'81102 - PM10_._6148'
p143
aS'81104 - PM2.5_._100002'
p144
asg39
(lp145
S'147285.0 219017.0'
p146
aS'http://www.opengis.net/def/crs/EPSG/0/31370'
p147
assS'BETN016'
p148
(dp149
g32
(lp150
S'81104 - PM2.5_._100018'
p151
aS'42601 - NO_._6701'
p152
aS'42401 - SO2_._6700'
p153
aS'44201 - O3_._6703'
p154
aS'42602 - NO2_._6702'
p155
aS'81102 - PM10_._6704'
p156
aS'16111 - Black Carbon_._10609'
p157
asg39
(lp158
S'205542.0 214045.0'
p159
aS'http://www.opengis.net/def/crs/EPSG/0/31370'
p160
assS'BETN012'
p161
(dp162
g32
(lp163
S'81104 - PM2.5_._99997'
p164
aS'44201 - O3_._7041'
p165
aS'42602 - NO2_._7040'
p166
aS'81102 - PM10_._7042'
p167
aS'42601 - NO_._7039'
p168
asg39
(lp169
S'79753.0 216550.0'
p170
aS'http://www.opengis.net/def/crs/EPSG/0/31370'
p171
assS'BETM204'
p172
(dp173
g32
(lp174
S'62101 - TT_._99929'
p175
aS'81104 - PM2.5_._6884'
p176
aS'81102 - PM10_._6883'
p177
asg39
(lp178
S'237930.0 145320.0'
p179
aS'http://www.opengis.net/def/crs/EPSG/0/31370'
p180
assS'BETH201'
p181
(dp182
g32
(lp183
S'42401 - SO2_._6879'
p184
aS'81102 - PM10_._6880'
p185
aS'81104 - PM2.5_._6881'
p186
asg39
(lp187
S'233400.0 146700.0'
p188
aS'http://www.opengis.net/def/crs/EPSG/0/31370'
p189
assS'BELTS07'
p190
(dp191
sS'BETR721'
p192
(dp193
g32
(lp194
S'42601 - NO_._7096'
p195
aS'42602 - NO2_._7097'
p196
aS'42401 - SO2_._7095'
p197
asg39
(lp198
S'104275.0 197850.0'
p199
aS'http://www.opengis.net/def/crs/EPSG/0/31370'
p200
assS'BELGK09'
p201
(dp202
g32
(lp203
S'42602 - NO2_._6200'
p204
aS'45201 - C6H6_._6202'
p205
aS'42401 - SO2_._6198'
p206
aS'42601 - NO_._6199'
p207
asg39
(lp208
S'229010.0 181080.0'
p209
aS'http://www.opengis.net/def/crs/EPSG/0/31370'
p210
assS'BETN085'
p211
(dp212
g32
(lp213
S'42401 - SO2_._6932'
p214
aS'42601 - NO_._6933'
p215
aS'42101 - CO_._6930'
p216
aS'42242 - Hg_._6931'
p217
aS'81102 - PM10_._6936'
p218
aS'81104 - PM2.5_._6937'
p219
aS'42602 - NO2_._6934'
p220
aS'44201 - O3_._6935'
p221
aS'16111 - Black Carbon_._6928'
p222
asg39
(lp223
S'266325.0 111525.0'
p224
aS'http://www.opengis.net/def/crs/EPSG/0/31370'
p225
assS'BELGK06'
p226
(dp227
g32
(lp228
S'81102 - PM10_._6196'
p229
asg39
(lp230
S'227463.0 180307.0'
p231
aS'http://www.opengis.net/def/crs/EPSG/0/31370'
p232
assS'BETE702'
p233
(dp234
g32
(lp235
S'42602 - NO2_._7192'
p236
aS'42601 - NO_._7191'
p237
asg39
(lp238
S'91013.0 167394.0'
p239
aS'http://www.opengis.net/def/crs/EPSG/0/31370'
p240
assS'BETE703'
p241
(dp242
g32
(lp243
S'42401 - SO2_._7193'
p244
aS'42602 - NO2_._7195'
p245
aS'42601 - NO_._7194'
p246
asg39
(lp247
S'102359.0 209144.0'
p248
aS'http://www.opengis.net/def/crs/EPSG/0/31370'
p249
assS'BETE704'
p250
(dp251
g32
(lp252
S'42601 - NO_._10750'
p253
aS'42602 - NO2_._10751'
p254
asg39
(lp255
S'115116.0 207461.0'
p256
aS'http://www.opengis.net/def/crs/EPSG/0/31370'
p257
assS'BETTS21'
p258
(dp259
g32
(lp260
S'42401 - SO2_._6407'
p261
asg39
(lp262
S'201786.0 195321.0'
p263
aS'http://www.opengis.net/def/crs/EPSG/0/31370'
p264
assS'BELMN01'
p265
(dp266
g32
(lp267
S'81102 - PM10_._6301'
p268
asg39
(lp269
S'61230.0 165530.0'
p270
aS'http://www.opengis.net/def/crs/EPSG/0/31370'
p271
assS'BELTS12'
p272
(dp273
sS'BETWOL1'
p274
(dp275
g32
(lp276
S'42601 - NO_._6638'
p277
aS'42602 - NO2_._6639'
p278
aS'16111 - Black Carbon_._6633'
p279
aS'42101 - CO_._6635'
p280
aS'42401 - SO2_._6637'
p281
aS'42102 - CO2_._6636'
p282
aS'44201 - O3_._6642'
p283
aS'81102 - PM10_._6643'
p284
asg39
(lp285
S'154010.0 171800.0'
p286
aS'http://www.opengis.net/def/crs/EPSG/0/31370'
p287
assS'BETWOL2'
p288
(dp289
sS'BETN121'
p290
(dp291
g32
(lp292
S'42602 - NO2_._6961'
p293
aS'42601 - NO_._6960'
p294
aS'81102 - PM10_._6963'
p295
aS'44201 - O3_._6962'
p296
aS'81104 - PM2.5_._6964'
p297
asg39
(lp298
S'209920.0 63190.0'
p299
aS'http://www.opengis.net/def/crs/EPSG/0/31370'
p300
assS'BELWZ01'
p301
(dp302
sS'BELWZ02'
p303
(dp304
g32
(lp305
S'42401 - SO2_._6430'
p306
asg39
(lp307
S'209614.0 209545.0'
p308
aS'http://www.opengis.net/def/crs/EPSG/0/31370'
p309
assS'BELBE06'
p310
(dp311
sS'BETN035'
p312
(dp313
g32
(lp314
S'81104 - PM2.5_._100014'
p315
aS'81102 - PM10_._6716'
p316
aS'42602 - NO2_._6714'
p317
aS'44201 - O3_._6715'
p318
aS'42401 - SO2_._6712'
p319
aS'42601 - NO_._6713'
p320
asg39
(lp321
S'182928.0 185359.0'
p322
aS'http://www.opengis.net/def/crs/EPSG/0/31370'
p323
assS'BETR811'
p324
(dp325
g32
(lp326
S'81102 - PM10_._6794'
p327
aS'42602 - NO2_._6792'
p328
aS'44201 - O3_._6793'
p329
aS'42601 - NO_._6791'
p330
aS'81104 - PM2.5_._100017'
p331
asg39
(lp332
S'158560.0 215807.0'
p333
aS'http://www.opengis.net/def/crs/EPSG/0/31370'
p334
assS'BETR817'
p335
(dp336
g32
(lp337
S'81104 - PM2.5_._10749'
p338
aS'81102 - PM10_._10748'
p339
aS'42602 - NO2_._10746'
p340
aS'42601 - NO_._10745'
p341
asg39
(lp342
S'153440.0 207460.0'
p343
aS'http://www.opengis.net/def/crs/EPSG/0/31370'
p344
assS'BELZL01'
p345
(dp346
g32
(lp347
S'45201 - C6H6_._6487'
p348
asg39
(lp349
S'110836.0 210500.0'
p350
aS'http://www.opengis.net/def/crs/EPSG/0/31370'
p351
assS'BETR815'
p352
(dp353
g32
(lp354
S'81104 - PM2.5_._99995'
p355
aS'81102 - PM10_._6804'
p356
aS'42601 - NO_._6802'
p357
aS'42602 - NO2_._6803'
p358
aS'16111 - Black Carbon_._6800'
p359
aS'42401 - SO2_._6801'
p360
asg39
(lp361
S'147446.0 211639.0'
p362
aS'http://www.opengis.net/def/crs/EPSG/0/31370'
p363
assS'BETR012'
p364
(dp365
g32
(lp366
S'42102 - CO2_._6619'
p367
aS'61110 - WSP-SCA_._99940'
p368
aS'62101 - TT_._99941'
p369
aS'81102 - PM10_._6626'
p370
aS'81104 - PM2.5_._6627'
p371
aS'44201 - O3_._6625'
p372
aS'42401 - SO2_._6620'
p373
aS'42601 - NO_._6621'
p374
aS'61102 - DD_._99939'
p375
aS'42602 - NO2_._6622'
p376
aS'16111 - Black Carbon_._10607'
p377
asg39
(lp378
S'149280.0 165130.0'
p379
aS'http://www.opengis.net/def/crs/EPSG/0/31370'
p380
assS'BETR010'
p381
(dp382
g32
(lp383
S'42601 - NO_._6752'
p384
aS'42602 - NO2_._6753'
p385
aS'42101 - CO_._6750'
p386
asg39
(lp387
S'154201.0 172749.0'
p388
aS'http://www.opengis.net/def/crs/EPSG/0/31370'
p389
assS'BELRL01'
p390
(dp391
g32
(lp392
S'81104 - PM2.5_._100005'
p393
aS'81102 - PM10_._6334'
p394
asg39
(lp395
S'62340.0 183280.0'
p396
aS'http://www.opengis.net/def/crs/EPSG/0/31370'
p397
assS'BETR740'
p398
(dp399
g32
(lp400
S'44201 - O3_._7115'
p401
aS'42602 - NO2_._7111'
p402
aS'42601 - NO_._7110'
p403
aS'81102 - PM10_._7117'
p404
aS'42401 - SO2_._7109'
p405
asg39
(lp406
S'110815.0 204603.0'
p407
aS'http://www.opengis.net/def/crs/EPSG/0/31370'
p408
assS'BETN132'
p409
(dp410
g32
(lp411
S'81102 - PM10_._6970'
p412
aS'81104 - PM2.5_._6971'
p413
aS'42101 - CO_._6965'
p414
aS'42601 - NO_._6967'
p415
aS'42401 - SO2_._6966'
p416
aS'44201 - O3_._6969'
p417
aS'42602 - NO2_._6968'
p418
asg39
(lp419
S'240980.0 46070.0'
p420
aS'http://www.opengis.net/def/crs/EPSG/0/31370'
p421
assS'BETN029'
p422
(dp423
g32
(lp424
S'42401 - SO2_._7045'
p425
aS'44201 - O3_._7048'
p426
aS'42602 - NO2_._7047'
p427
aS'42601 - NO_._7046'
p428
aS'81102 - PM10_._7054'
p429
aS'81104 - PM2.5_._7055'
p430
aS'61102 - DD_._99900'
p431
aS'45201 - C6H6_._7050'
p432
aS'16111 - Black Carbon_._10606'
p433
aS'62101 - TT_._99902'
p434
aS'61110 - WSP-SCA_._99901'
p435
asg39
(lp436
S'24655.0 191071.0'
p437
aS'http://www.opengis.net/def/crs/EPSG/0/31370'
p438
assS'BETN027'
p439
(dp440
g32
(lp441
S'42602 - NO2_._6710'
p442
aS'44201 - O3_._6711'
p443
aS'42601 - NO_._6709'
p444
asg39
(lp445
S'236644.0 203352.0'
p446
aS'http://www.opengis.net/def/crs/EPSG/0/31370'
p447
assS'BETM702'
p448
(dp449
g32
(lp450
S'42602 - NO2_._7026'
p451
aS'42601 - NO_._7025'
p452
asg39
(lp453
S'107569.0 206396.0'
p454
aS'http://www.opengis.net/def/crs/EPSG/0/31370'
p455
assS'BETR701'
p456
(dp457
g32
(lp458
S'44201 - O3_._7078'
p459
aS'42602 - NO2_._7074'
p460
aS'42101 - CO_._7071'
p461
aS'42401 - SO2_._7072'
p462
aS'42601 - NO_._7073'
p463
aS'61110 - WSP-SCA_._99907'
p464
aS'16111 - Black Carbon_._10602'
p465
aS'61102 - DD_._99906'
p466
aS'62101 - TT_._99908'
p467
aS'45201 - C6H6_._7080'
p468
aS'81104 - PM2.5_._7087'
p469
aS'81102 - PM10_._7086'
p470
asg39
(lp471
S'105169.0 194435.0'
p472
aS'http://www.opengis.net/def/crs/EPSG/0/31370'
p473
assS'BETM802'
p474
(dp475
g32
(lp476
S'81104 - PM2.5_._99994'
p477
aS'62101 - TT_._99911'
p478
aS'61110 - WSP-SCA_._99910'
p479
aS'61102 - DD_._99909'
p480
aS'42401 - SO2_._6688'
p481
aS'42601 - NO_._6689'
p482
aS'16111 - Black Carbon_._6687'
p483
aS'81102 - PM10_._6693'
p484
aS'42602 - NO2_._6690'
p485
asg39
(lp486
S'153884.0 216790.0'
p487
aS'http://www.opengis.net/def/crs/EPSG/0/31370'
p488
assS'BETR801'
p489
(dp490
g32
(lp491
S'45201 - C6H6_._6780'
p492
aS'81104 - PM2.5_._6787'
p493
aS'81102 - PM10_._6786'
p494
aS'44201 - O3_._6778'
p495
aS'42401 - SO2_._6774'
p496
aS'42601 - NO_._6775'
p497
aS'42602 - NO2_._6776'
p498
aS'42101 - CO_._6773'
p499
aS'16111 - Black Carbon_._10603'
p500
asg39
(lp501
S'154407.0 211080.0'
p502
aS'http://www.opengis.net/def/crs/EPSG/0/31370'
p503
assS'BETR802'
p504
(dp505
g32
(lp506
S'42601 - NO_._10696'
p507
aS'81104 - PM2.5_._6789'
p508
aS'81102 - PM10_._6788'
p509
aS'42101 - CO_._10739'
p510
aS'42602 - NO2_._10601'
p511
aS'16111 - Black Carbon_._10604'
p512
asg39
(lp513
S'154405.0 211064.0'
p514
aS'http://www.opengis.net/def/crs/EPSG/0/31370'
p515
assS'BETR803'
p516
(dp517
g32
(lp518
S'81104 - PM2.5_._10744'
p519
aS'81102 - PM10_._10743'
p520
aS'16111 - Black Carbon_._10742'
p521
aS'42602 - NO2_._10741'
p522
aS'42601 - NO_._10740'
p523
asg39
(lp524
S'154170.0 213190.0'
p525
aS'http://www.opengis.net/def/crs/EPSG/0/31370'
p526
assS'BETR001'
p527
(dp528
g32
(lp529
S'61110 - WSP-SCA_._99916'
p530
aS'61102 - DD_._99915'
p531
aS'42401 - SO2_._6572'
p532
aS'42601 - NO_._6573'
p533
aS'42101 - CO_._6571'
p534
aS'44201 - O3_._6577'
p535
aS'42602 - NO2_._6574'
p536
aS'81102 - PM10_._6578'
p537
aS'81104 - PM2.5_._6579'
p538
aS'62101 - TT_._99917'
p539
aS'16111 - Black Carbon_._6569'
p540
asg39
(lp541
S'147540.0 171030.0'
p542
aS'http://www.opengis.net/def/crs/EPSG/0/31370'
p543
assS'BETR002'
p544
(dp545
g32
(lp546
S'42401 - SO2_._6613'
p547
aS'42102 - CO2_._6612'
p548
aS'42101 - CO_._6611'
p549
aS'42602 - NO2_._6615'
p550
aS'42601 - NO_._6614'
p551
aS'16111 - Black Carbon_._6609'
p552
asg39
(lp553
S'151125.0 168300.0'
p554
aS'http://www.opengis.net/def/crs/EPSG/0/31370'
p555
assS'BETR893'
p556
(dp557
g32
(lp558
S'42401 - SO2_._6864'
p559
aS'42601 - NO_._6865'
p560
aS'42602 - NO2_._6866'
p561
asg39
(lp562
S'151187.0 219057.0'
p563
aS'http://www.opengis.net/def/crs/EPSG/0/31370'
p564
assS'BETR892'
p565
(dp566
g32
(lp567
S'42401 - SO2_._6860'
p568
aS'42601 - NO_._6861'
p569
aS'42602 - NO2_._6862'
p570
asg39
(lp571
S'143727.0 217020.0'
p572
aS'http://www.opengis.net/def/crs/EPSG/0/31370'
p573
assS'BETR891'
p574
(dp575
g32
(lp576
S'42601 - NO_._6857'
p577
aS'42401 - SO2_._6856'
p578
aS'42602 - NO2_._6858'
p579
asg39
(lp580
S'151159.0 216212.0'
p581
aS'http://www.opengis.net/def/crs/EPSG/0/31370'
p582
assS'BETR897'
p583
(dp584
g32
(lp585
S'42602 - NO2_._6875'
p586
aS'42601 - NO_._6874'
p587
aS'42401 - SO2_._6873'
p588
asg39
(lp589
S'148139.0 215578.0'
p590
aS'http://www.opengis.net/def/crs/EPSG/0/31370'
p591
assS'BETR894'
p592
(dp593
g32
(lp594
S'42401 - SO2_._6868'
p595
aS'42601 - NO_._6869'
p596
aS'42602 - NO2_._6870'
p597
asg39
(lp598
S'148656.0 219293.0'
p599
aS'http://www.opengis.net/def/crs/EPSG/0/31370'
p600
assS'BETN100'
p601
(dp602
g32
(lp603
S'81102 - PM10_._6950'
p604
aS'81104 - PM2.5_._6951'
p605
aS'44201 - O3_._6949'
p606
aS'42602 - NO2_._6948'
p607
aS'42601 - NO_._6947'
p608
aS'42401 - SO2_._6946'
p609
asg39
(lp610
S'166172.0 87187.0'
p611
aS'http://www.opengis.net/def/crs/EPSG/0/31370'
p612
assS'BELAL01'
p613
(dp614
g32
(lp615
S'16111 - Black Carbon_._6151'
p616
aS'81102 - PM10_._6152'
p617
aS'81104 - PM2.5_._100008'
p618
asg39
(lp619
S'151150.0 214030.0'
p620
aS'http://www.opengis.net/def/crs/EPSG/0/31370'
p621
assS'BETE808'
p622
(dp623
sS'BELAL03'
p624
(dp625
g32
(lp626
S'81104 - PM2.5_._6155'
p627
asg39
(lp628
S'138320.0 216020.0'
p629
aS'http://www.opengis.net/def/crs/EPSG/0/31370'
p630
assS'BELAL02'
p631
(dp632
g32
(lp633
S'81102 - PM10_._6153'
p634
asg39
(lp635
S'140660.0 221640.0'
p636
aS'http://www.opengis.net/def/crs/EPSG/0/31370'
p637
assS'BELAL05'
p638
(dp639
g32
(lp640
S'81102 - PM10_._6157'
p641
asg39
(lp642
S'143727.0 217029.0'
p643
aS'http://www.opengis.net/def/crs/EPSG/0/31370'
p644
assS'BELAL04'
p645
(dp646
sS'BETN052'
p647
(dp648
g32
(lp649
S'81104 - PM2.5_._100010'
p650
aS'81102 - PM10_._7069'
p651
aS'44201 - O3_._7068'
p652
aS'42602 - NO2_._7067'
p653
aS'42601 - NO_._7066'
p654
aS'42401 - SO2_._7065'
p655
asg39
(lp656
S'76269.0 167678.0'
p657
aS'http://www.opengis.net/def/crs/EPSG/0/31370'
p658
assS'BETN051'
p659
(dp660
g32
(lp661
S'44201 - O3_._7064'
p662
aS'42602 - NO2_._7063'
p663
aS'42601 - NO_._7062'
p664
asg39
(lp665
S'119090.0 165475.0'
p666
aS'http://www.opengis.net/def/crs/EPSG/0/31370'
p667
assS'BETR710'
p668
(dp669
g32
(lp670
S'81104 - PM2.5_._99998'
p671
aS'81102 - PM10_._7092'
p672
aS'42602 - NO2_._7090'
p673
aS'44201 - O3_._7091'
p674
aS'42601 - NO_._7089'
p675
asg39
(lp676
S'108394.0 194736.0'
p677
aS'http://www.opengis.net/def/crs/EPSG/0/31370'
p678
assS'BETE812'
p679
(dp680
g32
(lp681
S'42602 - NO2_._7234'
p682
aS'42401 - SO2_._7232'
p683
aS'42601 - NO_._7233'
p684
asg39
(lp685
S'232111.0 184838.0'
p686
aS'http://www.opengis.net/def/crs/EPSG/0/31370'
p687
assS'BETR240'
p688
(dp689
g32
(lp690
S'42602 - NO2_._7017'
p691
aS'81102 - PM10_._7021'
p692
aS'44201 - O3_._7020'
p693
aS'81104 - PM2.5_._7022'
p694
aS'42601 - NO_._7016'
p695
aS'42401 - SO2_._7014'
p696
asg39
(lp697
S'222850.0 141940.0'
p698
aS'http://www.opengis.net/def/crs/EPSG/0/31370'
p699
assS'BETN054'
p700
(dp701
g32
(lp702
S'81104 - PM2.5_._100013'
p703
aS'42602 - NO2_._6747'
p704
aS'42601 - NO_._6746'
p705
aS'81102 - PM10_._6749'
p706
aS'44201 - O3_._6748'
p707
asg39
(lp708
S'201869.0 155940.0'
p709
aS'http://www.opengis.net/def/crs/EPSG/0/31370'
p710
assS'BELHB23'
p711
(dp712
g32
(lp713
S'81104 - PM2.5_._99999'
p714
aS'42602 - NO2_._6217'
p715
aS'42601 - NO_._6216'
p716
aS'42401 - SO2_._6215'
p717
aS'81102 - PM10_._6218'
p718
asg39
(lp719
S'148059.0 206699.0'
p720
aS'http://www.opengis.net/def/crs/EPSG/0/31370'
p721
assS'BETM705'
p722
(dp723
g32
(lp724
S'61110 - WSP-SCA_._99904'
p725
aS'81104 - PM2.5_._99996'
p726
aS'42601 - NO_._7031'
p727
aS'42602 - NO2_._7032'
p728
aS'44201 - O3_._7033'
p729
aS'16111 - Black Carbon_._7029'
p730
aS'62101 - TT_._99905'
p731
aS'61102 - DD_._99903'
p732
aS'81102 - PM10_._7034'
p733
asg39
(lp734
S'64521.0 182374.0'
p735
aS'http://www.opengis.net/def/crs/EPSG/0/31370'
p736
assS'BELOB01'
p737
(dp738
g32
(lp739
S'81102 - PM10_._6324'
p740
aS'42602 - NO2_._6323'
p741
aS'42601 - NO_._6322'
p742
aS'81104 - PM2.5_._100006'
p743
asg39
(lp744
S'75367.0 179078.0'
p745
aS'http://www.opengis.net/def/crs/EPSG/0/31370'
p746
assS'BETB004'
p747
(dp748
g32
(lp749
S'42601 - NO_._6507'
p750
aS'42101 - CO_._6506'
p751
aS'42602 - NO2_._6508'
p752
aS'44201 - O3_._6509'
p753
asg39
(lp754
S'148580.0 171157.0'
p755
aS'http://www.opengis.net/def/crs/EPSG/0/31370'
p756
assS'BETE810'
p757
(dp758
sS'BETN113'
p759
(dp760
g32
(lp761
S'42601 - NO_._6954'
p762
aS'42602 - NO2_._6955'
p763
aS'44201 - O3_._6956'
p764
aS'81102 - PM10_._6957'
p765
aS'81104 - PM2.5_._6958'
p766
asg39
(lp767
S'237720.0 80250.0'
p768
aS'http://www.opengis.net/def/crs/EPSG/0/31370'
p769
assS'BETMEU1'
p770
(dp771
g32
(lp772
S'42601 - NO_._6550'
p773
aS'42602 - NO2_._6551'
p774
aS'81102 - PM10_._6552'
p775
aS'81104 - PM2.5_._6553'
p776
aS'42401 - SO2_._6549'
p777
aS'42242 - Hg_._6548'
p778
asg39
(lp779
S'151686.0 176084.0'
p780
aS'http://www.opengis.net/def/crs/EPSG/0/31370'
p781
assS'BETGK11'
p782
(dp783
sS'BETN040'
p784
(dp785
g32
(lp786
S'42602 - NO2_._6718'
p787
aS'44201 - O3_._6719'
p788
aS'42601 - NO_._6717'
p789
asg39
(lp790
S'139873.0 161970.0'
p791
aS'http://www.opengis.net/def/crs/EPSG/0/31370'
p792
assS'BETN041'
p793
(dp794
sS'BETN043'
p795
(dp796
g32
(lp797
S'16111 - Black Carbon_._10693'
p798
aS'81104 - PM2.5_._6564'
p799
aS'42602 - NO2_._6561'
p800
aS'42601 - NO_._6560'
p801
aS'81102 - PM10_._6563'
p802
aS'44201 - O3_._6562'
p803
aS'42101 - CO_._6558'
p804
aS'42401 - SO2_._6559'
p805
asg39
(lp806
S'151000.0 174800.0'
p807
aS'http://www.opengis.net/def/crs/EPSG/0/31370'
p808
assS'BETN045'
p809
(dp810
g32
(lp811
S'42602 - NO2_._6726'
p812
aS'42601 - NO_._6725'
p813
aS'42401 - SO2_._6724'
p814
aS'81104 - PM2.5_._6740'
p815
aS'44201 - O3_._6731'
p816
aS'45201 - C6H6_._6733'
p817
aS'81102 - PM10_._6739'
p818
aS'16111 - Black Carbon_._10608'
p819
asg39
(lp820
S'220258.0 181520.0'
p821
aS'http://www.opengis.net/def/crs/EPSG/0/31370'
p822
assS'BETN046'
p823
(dp824
g32
(lp825
S'44201 - O3_._6744'
p826
aS'42602 - NO2_._6743'
p827
aS'42601 - NO_._6742'
p828
asg39
(lp829
S'237970.0 175401.0'
p830
aS'http://www.opengis.net/def/crs/EPSG/0/31370'
p831
assS'BELR801'
p832
(dp833
g32
(lp834
S'90500 - PN1'
p835
asg39
(lp836
S'154407.0 211080.0'
p837
aS'http://www.opengis.net/def/crs/EPSG/0/31370'
p838
assS'BETE007'
p839
(dp840
g32
(lp841
S'42602 - NO2_._7177'
p842
aS'42601 - NO_._7176'
p843
asg39
(lp844
S'141813.0 164988.0'
p845
aS'http://www.opengis.net/def/crs/EPSG/0/31370'
p846
assS'BETE009'
p847
(dp848
g32
(lp849
S'42601 - NO_._7182'
p850
aS'42602 - NO2_._7183'
p851
asg39
(lp852
S'154684.0 182740.0'
p853
aS'http://www.opengis.net/def/crs/EPSG/0/31370'
p854
assS'BETE008'
p855
(dp856
g32
(lp857
S'42601 - NO_._7179'
p858
aS'42602 - NO2_._7180'
p859
asg39
(lp860
S'151910.0 179532.0'
p861
aS'http://www.opengis.net/def/crs/EPSG/0/31370'
p862
assS'BETR020'
p863
(dp864
g32
(lp865
S'81104 - PM2.5_._100016'
p866
aS'81102 - PM10_._6771'
p867
aS'42602 - NO2_._6769'
p868
aS'42601 - NO_._6768'
p869
aS'42401 - SO2_._6767'
p870
aS'42101 - CO_._6766'
p871
asg39
(lp872
S'154777.0 181235.0'
p873
aS'http://www.opengis.net/def/crs/EPSG/0/31370'
p874
assS'BETR502'
p875
(dp876
g32
(lp877
S'81104 - PM2.5_._7144'
p878
aS'42601 - NO_._7140'
p879
aS'42602 - NO2_._7141'
p880
aS'44201 - O3_._7142'
p881
aS'81102 - PM10_._7143'
p882
asg39
(lp883
S'156390.0 124240.0'
p884
aS'http://www.opengis.net/def/crs/EPSG/0/31370'
p885
assS'BELLD02'
p886
(dp887
g32
(lp888
S'42601 - NO_._6280'
p889
aS'42602 - NO2_._6281'
p890
aS'45201 - C6H6_._6283'
p891
asg39
(lp892
S'195705.0 201347.0'
p893
aS'http://www.opengis.net/def/crs/EPSG/0/31370'
p894
assS'BETB011'
p895
(dp896
g32
(lp897
S'81104 - PM2.5_._6532'
p898
aS'44201 - O3_._6530'
p899
aS'81102 - PM10_._6531'
p900
aS'42601 - NO_._6527'
p901
aS'42602 - NO2_._6528'
p902
aS'62101 - TT_._99914'
p903
asg39
(lp904
S'144338.0 171963.0'
p905
aS'http://www.opengis.net/def/crs/EPSG/0/31370'
p906
assS'BETN070'
p907
(dp908
g32
(lp909
S'42601 - NO_._6916'
p910
aS'42602 - NO2_._6917'
p911
aS'81104 - PM2.5_._6920'
p912
aS'42101 - CO_._6914'
p913
aS'42401 - SO2_._6915'
p914
aS'44201 - O3_._6918'
p915
aS'81102 - PM10_._6919'
p916
asg39
(lp917
S'119540.0 128350.0'
p918
aS'http://www.opengis.net/def/crs/EPSG/0/31370'
p919
assS'BETN073'
p920
(dp921
g32
(lp922
S'44201 - O3_._6925'
p923
aS'42602 - NO2_._6924'
p924
aS'81104 - PM2.5_._6927'
p925
aS'81102 - PM10_._6926'
p926
aS'42601 - NO_._6923'
p927
asg39
(lp928
S'193960.0 132620.0'
p929
aS'http://www.opengis.net/def/crs/EPSG/0/31370'
p930
assS'BETR731'
p931
(dp932
g32
(lp933
S'42401 - SO2_._7103'
p934
aS'81102 - PM10_._7106'
p935
aS'81104 - PM2.5_._7107'
p936
aS'42601 - NO_._7104'
p937
aS'42602 - NO2_._7105'
p938
asg39
(lp939
S'105947.0 201811.0'
p940
aS'http://www.opengis.net/def/crs/EPSG/0/31370'
p941
assS'BETE809'
p942
(dp943
sS'BETR834'
p944
(dp945
g32
(lp946
S'81104 - PM2.5_._100011'
p947
aS'42602 - NO2_._10611'
p948
aS'81102 - PM10_._10610'
p949
aS'42601 - NO_._10612'
p950
asg39
(lp951
S'150795.0 197988.0'
p952
aS'http://www.opengis.net/def/crs/EPSG/0/31370'
p953
assS'BELLD01'
p954
(dp955
g32
(lp956
S'42601 - NO_._6271'
p957
aS'42602 - NO2_._6272'
p958
aS'45201 - C6H6_._6274'
p959
asg39
(lp960
S'194547.0 200179.0'
p961
aS'http://www.opengis.net/def/crs/EPSG/0/31370'
p962
assS'BETR831'
p963
(dp964
g32
(lp965
S'81104 - PM2.5_._100015'
p966
aS'42401 - SO2_._6828'
p967
aS'42601 - NO_._6829'
p968
aS'81102 - PM10_._10600'
p969
aS'44201 - O3_._6832'
p970
aS'42602 - NO2_._6830'
p971
asg39
(lp972
S'147976.0 226558.0'
p973
aS'http://www.opengis.net/def/crs/EPSG/0/31370'
p974
assS'BETR830'
p975
(dp976
g32
(lp977
S'42401 - SO2_._6824'
p978
aS'42601 - NO_._6825'
p979
aS'42602 - NO2_._6826'
p980
asg39
(lp981
S'142601.0 223162.0'
p982
aS'http://www.opengis.net/def/crs/EPSG/0/31370'
p983
assS'BETR221'
p984
(dp985
g32
(lp986
S'16111 - Black Carbon_._6988'
p987
aS'44201 - O3_._10701'
p988
aS'42602 - NO2_._10700'
p989
aS'42601 - NO_._10699'
p990
aS'81104 - PM2.5_._6994'
p991
aS'42401 - SO2_._6990'
p992
aS'81102 - PM10_._6993'
p993
aS'62101 - TT_._99932'
p994
asg39
(lp995
S'239023.0 150514.0'
p996
aS'http://www.opengis.net/def/crs/EPSG/0/31370'
p997
assS'BETR222'
p998
(dp999
g32
(lp1000
S'81104 - PM2.5_._7001'
p1001
aS'81102 - PM10_._7000'
p1002
aS'42602 - NO2_._6998'
p1003
aS'44201 - O3_._6999'
p1004
aS'42101 - CO_._6995'
p1005
aS'42401 - SO2_._6996'
p1006
aS'42601 - NO_._6997'
p1007
asg39
(lp1008
S'235031.0 145438.0'
p1009
aS'http://www.opengis.net/def/crs/EPSG/0/31370'
p1010
assS'BETR223'
p1011
(dp1012
g32
(lp1013
S'42101 - CO_._7003'
p1014
aS'81104 - PM2.5_._7009'
p1015
aS'42601 - NO_._7005'
p1016
aS'42401 - SO2_._7004'
p1017
aS'42602 - NO2_._7006'
p1018
aS'62101 - TT_._99935'
p1019
aS'81102 - PM10_._7008'
p1020
asg39
(lp1021
S'231210.0 146185.0'
p1022
aS'http://www.opengis.net/def/crs/EPSG/0/31370'
p1023
assS'BETE805'
p1024
(dp1025
sS'BETE804'
p1026
(dp1027
g32
(lp1028
S'42602 - NO2_._7210'
p1029
aS'42601 - NO_._7209'
p1030
asg39
(lp1031
S'145702.0 219060.0'
p1032
aS'http://www.opengis.net/def/crs/EPSG/0/31370'
p1033
assS'BETE807'
p1034
(dp1035
sS'BETE806'
p1036
(dp1037
sS'BELR833'
p1038
(dp1039
g32
(lp1040
S'45201 - C6H6_._6842'
p1041
aS'16111 - Black Carbon_._6840'
p1042
aS'42601 - NO_._10688'
p1043
aS'42602 - NO2_._10689'
p1044
asg39
(lp1045
S'149547.0 224206.0'
p1046
aS'http://www.opengis.net/def/crs/EPSG/0/31370'
p1047
assS'BETE013'
p1048
(dp1049
g32
(lp1050
S'42601 - NO_._7185'
p1051
aS'42602 - NO2_._7186'
p1052
asg39
(lp1053
S'147155.0 166807.0'
p1054
aS'http://www.opengis.net/def/crs/EPSG/0/31370'
p1055
assS'BETN063'
p1056
(dp1057
g32
(lp1058
S'42101 - CO_._6895'
p1059
aS'42601 - NO_._6897'
p1060
aS'42401 - SO2_._6896'
p1061
aS'44201 - O3_._6899'
p1062
aS'42602 - NO2_._6898'
p1063
aS'81104 - PM2.5_._6901'
p1064
aS'81102 - PM10_._6900'
p1065
asg39
(lp1066
S'171181.0 149467.0'
p1067
aS'http://www.opengis.net/def/crs/EPSG/0/31370'
p1068
assS'BETN060'
p1069
(dp1070
g32
(lp1071
S'44201 - O3_._6891'
p1072
aS'42602 - NO2_._6890'
p1073
aS'81104 - PM2.5_._6893'
p1074
aS'81102 - PM10_._6892'
p1075
aS'42101 - CO_._6887'
p1076
aS'42401 - SO2_._6888'
p1077
aS'42601 - NO_._6889'
p1078
asg39
(lp1079
S'85521.0 145512.0'
p1080
aS'http://www.opengis.net/def/crs/EPSG/0/31370'
p1081
assS'BETB003'
p1082
(dp1083
sS'BETN066'
p1084
(dp1085
g32
(lp1086
S'44201 - O3_._6907'
p1087
aS'42602 - NO2_._6906'
p1088
aS'42601 - NO_._6905'
p1089
aS'42401 - SO2_._6904'
p1090
asg39
(lp1091
S'265570.0 147740.0'
p1092
aS'http://www.opengis.net/def/crs/EPSG/0/31370'
p1093
assS'BETN067'
p1094
(dp1095
g32
(lp1096
S'81102 - PM10_._6911'
p1097
aS'81104 - PM2.5_._6912'
p1098
aS'89101 - PM1_._6913'
p1099
asg39
(lp1100
S'264933.0 145881.0'
p1101
aS'http://www.opengis.net/def/crs/EPSG/0/31370'
p1102
assS'BETB006'
p1103
(dp1104
g32
(lp1105
S'45203 - C6H5-C2H5_._6521'
p1106
aS'45202 - C6H5-CH3_._6520'
p1107
aS'45204 - o-C6H4-(CH3)2_._6522'
p1108
aS'45201 - C6H6_._6519'
p1109
aS'42101 - CO_._6514'
p1110
aS'42601 - NO_._6515'
p1111
aS'42602 - NO2_._6516'
p1112
aS'44201 - O3_._6517'
p1113
asg39
(lp1114
S'150397.0 169802.0'
p1115
aS'http://www.opengis.net/def/crs/EPSG/0/31370'
p1116
assS'BETE811'
p1117
(dp1118
g32
(lp1119
S'42401 - SO2_._7229'
p1120
aS'42601 - NO_._7230'
p1121
aS'42602 - NO2_._7231'
p1122
asg39
(lp1123
S'223827.0 176810.0'
p1124
aS'http://www.opengis.net/def/crs/EPSG/0/31370'
p1125
assS'BETB008'
p1126
(dp1127
g32
(lp1128
S'42601 - NO_._10613'
p1129
aS'42401 - SO2_._10615'
p1130
aS'42602 - NO2_._10614'
p1131
aS'42101 - CO_._10616'
p1132
asg39
(lp1133
S'150521.0 170042.0'
p1134
aS'http://www.opengis.net/def/crs/EPSG/0/31370'
p1135
assS'BELTS20'
p1136
(dp1137
sS'BETR501'
p1138
(dp1139
g32
(lp1140
S'42601 - NO_._7131'
p1141
aS'81102 - PM10_._7135'
p1142
aS'81104 - PM2.5_._7136'
p1143
aS'42101 - CO_._7129'
p1144
aS'42401 - SO2_._7130'
p1145
aS'42602 - NO2_._7132'
p1146
asg39
(lp1147
S'155930.0 122050.0'
p1148
aS'http://www.opengis.net/def/crs/EPSG/0/31370'
p1149
assS'BETR702'
p1150
(dp1151
g32
(lp1152
S'42602 - NO2_._10703'
p1153
aS'42601 - NO_._10702'
p1154
aS'16111 - Black Carbon_._10706'
p1155
aS'81104 - PM2.5_._10705'
p1156
aS'81102 - PM10_._10704'
p1157
asg39
(lp1158
S'105550.0 192469.0'
p1159
aS'http://www.opengis.net/def/crs/EPSG/0/31370'
p1160
assS'BETR822'
p1161
(dp1162
g32
(lp1163
S'42401 - SO2_._6815'
p1164
aS'42602 - NO2_._6817'
p1165
aS'42601 - NO_._6816'
p1166
asg39
(lp1167
S'148082.0 217156.0'
p1168
aS'http://www.opengis.net/def/crs/EPSG/0/31370'
p1169
assS'BETR820'
p1170
(dp1171
g32
(lp1172
S'42401 - SO2_._6809'
p1173
aS'42602 - NO2_._10698'
p1174
aS'42601 - NO_._10697'
p1175
asg39
(lp1176
S'155302.0 223403.0'
p1177
aS'http://www.opengis.net/def/crs/EPSG/0/31370'
p1178
assS'BETR821'
p1179
(dp1180
g32
(lp1181
S'42601 - NO_._6813'
p1182
aS'42401 - SO2_._6812'
p1183
aS'42602 - NO2_._6814'
p1184
asg39
(lp1185
S'141724.0 211734.0'
p1186
aS'http://www.opengis.net/def/crs/EPSG/0/31370'
p1187
assS'BELSZ01'
p1188
(dp1189
g32
(lp1190
S'81104 - PM2.5_._6356'
p1191
aS'16111 - Black Carbon_._6343'
p1192
aS'42601 - NO_._6347'
p1193
aS'42602 - NO2_._6348'
p1194
asg39
(lp1195
S'159524.0 178259.0'
p1196
aS'http://www.opengis.net/def/crs/EPSG/0/31370'
p1197
assS'BELSZ02'
p1198
(dp1199
g32
(lp1200
S'81104 - PM2.5_._100009'
p1201
aS'81102 - PM10_._6368'
p1202
aS'42602 - NO2_._6361'
p1203
aS'42601 - NO_._6360'
p1204
asg39
(lp1205
S'160087.0 178087.0'
p1206
aS'http://www.opengis.net/def/crs/EPSG/0/31370'
p1207
assS'BELML01'
p1208
(dp1209
ssS'procedure'
p1210
(dp1211
S'6723'
p1212
(dp1213
S'42101 - CO'
p1214
(dp1215
g32
(lp1216
S'42101 - CO_._6723'
p1217
asS'FOI'
p1218
g7
((ltRp1219
sssS'6722'
p1220
(dp1221
S'44201 - O3'
p1222
(dp1223
g32
(lp1224
S'44201 - O3_._6722'
p1225
asg1218
g7
((ltRp1226
sssS'6726'
p1227
(dp1228
S'42602 - NO2'
p1229
(dp1230
g32
(lp1231
g812
asg1218
g7
((lp1232
S'BETN045'
p1233
atRp1234
sssS'6725'
p1235
(dp1236
S'42601 - NO'
p1237
(dp1238
g32
(lp1239
g813
asg1218
g7
((lp1240
S'BETN045'
p1241
atRp1242
sssS'6724'
p1243
(dp1244
S'42401 - SO2'
p1245
(dp1246
g32
(lp1247
g814
asg1218
g7
((lp1248
S'BETN045'
p1249
atRp1250
sssS'6842'
p1251
(dp1252
S'45201 - C6H6'
p1253
(dp1254
g32
(lp1255
g1041
asg1218
g7
((lp1256
S'BELR833'
p1257
atRp1258
sssS'7003'
p1259
(dp1260
S'42101 - CO'
p1261
(dp1262
g32
(lp1263
g1014
asg1218
g7
((lp1264
S'BETR223'
p1265
atRp1266
sssS'6954'
p1267
(dp1268
S'42601 - NO'
p1269
(dp1270
g32
(lp1271
g762
asg1218
g7
((lp1272
S'BETN113'
p1273
atRp1274
sssS'6955'
p1275
(dp1276
S'42602 - NO2'
p1277
(dp1278
g32
(lp1279
g763
asg1218
g7
((lp1280
S'BETN113'
p1281
atRp1282
sssS'99904'
p1283
(dp1284
S'61110 - WSP-SCA'
p1285
(dp1286
g32
(lp1287
g725
asg1218
g7
((lp1288
S'BETM705'
p1289
atRp1290
sssS'7045'
p1291
(dp1292
S'42401 - SO2'
p1293
(dp1294
g32
(lp1295
g425
asg1218
g7
((lp1296
S'BETN029'
p1297
atRp1298
sssS'6151'
p1299
(dp1300
S'16111 - Black Carbon'
p1301
(dp1302
g32
(lp1303
g616
asg1218
g7
((lp1304
S'BELAL01'
p1305
atRp1306
sssS'6152'
p1307
(dp1308
S'81102 - PM10'
p1309
(dp1310
g32
(lp1311
g617
asg1218
g7
((lp1312
S'BELAL01'
p1313
atRp1314
sssS'6153'
p1315
(dp1316
S'81102 - PM10'
p1317
(dp1318
g32
(lp1319
g634
asg1218
g7
((lp1320
S'BELAL02'
p1321
atRp1322
sssS'6154'
p1323
(dp1324
S'81104 - PM2.5'
p1325
(dp1326
g32
(lp1327
S'81104 - PM2.5_._6154'
p1328
asg1218
g7
((ltRp1329
sssS'6155'
p1330
(dp1331
S'81104 - PM2.5'
p1332
(dp1333
g32
(lp1334
g627
asg1218
g7
((lp1335
S'BELAL03'
p1336
atRp1337
sssS'6156'
p1338
(dp1339
S'81104 - PM2.5'
p1340
(dp1341
g32
(lp1342
S'81104 - PM2.5_._6156'
p1343
asg1218
g7
((ltRp1344
sssS'6157'
p1345
(dp1346
S'81102 - PM10'
p1347
(dp1348
g32
(lp1349
g641
asg1218
g7
((lp1350
S'BELAL05'
p1351
atRp1352
sssS'6158'
p1353
(dp1354
S'81104 - PM2.5'
p1355
(dp1356
g32
(lp1357
S'81104 - PM2.5_._6158'
p1358
asg1218
g7
((ltRp1359
sssS'6843'
p1360
(dp1361
S'45202 - C6H5-CH3'
p1362
(dp1363
g32
(lp1364
S'45202 - C6H5-CH3_._6843'
p1365
asg1218
g7
((ltRp1366
sssS'6840'
p1367
(dp1368
S'16111 - Black Carbon'
p1369
(dp1370
g32
(lp1371
g1042
asg1218
g7
((lp1372
S'BELR833'
p1373
atRp1374
sssS'6841'
p1375
(dp1376
S'45109 - m,p-C6H4(CH3)2'
p1377
(dp1378
g32
(lp1379
S'45109 - m,p-C6H4(CH3)2_._6841'
p1380
asg1218
g7
((ltRp1381
sssS'7049'
p1382
(dp1383
S'45109 - m,p-C6H4(CH3)2'
p1384
(dp1385
g32
(lp1386
S'45109 - m,p-C6H4(CH3)2_._7049'
p1387
asg1218
g7
((ltRp1388
sssS'7048'
p1389
(dp1390
S'44201 - O3'
p1391
(dp1392
g32
(lp1393
g426
asg1218
g7
((lp1394
S'BETN029'
p1395
atRp1396
sssS'6844'
p1397
(dp1398
S'45203 - C6H5-C2H5'
p1399
(dp1400
g32
(lp1401
S'45203 - C6H5-C2H5_._6844'
p1402
asg1218
g7
((ltRp1403
sssS'6845'
p1404
(dp1405
S'45204 - o-C6H4-(CH3)2'
p1406
(dp1407
g32
(lp1408
S'45204 - o-C6H4-(CH3)2_._6845'
p1409
asg1218
g7
((ltRp1410
sssS'6794'
p1411
(dp1412
S'81102 - PM10'
p1413
(dp1414
g32
(lp1415
g327
asg1218
g7
((lp1416
S'BETR811'
p1417
atRp1418
sssS'6792'
p1419
(dp1420
S'42602 - NO2'
p1421
(dp1422
g32
(lp1423
g328
asg1218
g7
((lp1424
S'BETR811'
p1425
atRp1426
sssS'6793'
p1427
(dp1428
S'44201 - O3'
p1429
(dp1430
g32
(lp1431
g329
asg1218
g7
((lp1432
S'BETR811'
p1433
atRp1434
sssS'6791'
p1435
(dp1436
S'42601 - NO'
p1437
(dp1438
g32
(lp1439
g330
asg1218
g7
((lp1440
S'BETR811'
p1441
atRp1442
sssS'99999'
p1443
(dp1444
S'81104 - PM2.5'
p1445
(dp1446
g32
(lp1447
g714
asg1218
g7
((lp1448
S'BELHB23'
p1449
atRp1450
sssS'99998'
p1451
(dp1452
S'81104 - PM2.5'
p1453
(dp1454
g32
(lp1455
g671
asg1218
g7
((lp1456
S'BETR710'
p1457
atRp1458
sssS'6988'
p1459
(dp1460
S'16111 - Black Carbon'
p1461
(dp1462
g32
(lp1463
g987
asg1218
g7
((lp1464
S'BETR221'
p1465
atRp1466
sssS'99993'
p1467
(dp1468
S'90500 - PN1'
p1469
(dp1470
g32
(lp1471
g835
asg1218
g7
((lp1472
S'BELR801'
p1473
atRp1474
sssS'99995'
p1475
(dp1476
S'81104 - PM2.5'
p1477
(dp1478
g32
(lp1479
g355
asg1218
g7
((lp1480
S'BETR815'
p1481
atRp1482
sssS'99994'
p1483
(dp1484
S'81104 - PM2.5'
p1485
(dp1486
g32
(lp1487
g477
asg1218
g7
((lp1488
S'BETM802'
p1489
atRp1490
sssS'99997'
p1491
(dp1492
S'81104 - PM2.5'
p1493
(dp1494
g32
(lp1495
g164
asg1218
g7
((lp1496
S'BETN012'
p1497
atRp1498
sssS'99996'
p1499
(dp1500
S'81104 - PM2.5'
p1501
(dp1502
g32
(lp1503
g726
asg1218
g7
((lp1504
S'BETM705'
p1505
atRp1506
sssS'6386'
p1507
(dp1508
S'42242 - Hg'
p1509
(dp1510
g32
(lp1511
S'42242 - Hg_._6386'
p1512
asg1218
g7
((ltRp1513
sssS'7121'
p1514
(dp1515
S'42601 - NO'
p1516
(dp1517
g32
(lp1518
g55
asg1218
g7
((lp1519
S'BETR750'
p1520
atRp1521
sssS'100016'
p1522
(dp1523
S'81104 - PM2.5'
p1524
(dp1525
g32
(lp1526
g866
asg1218
g7
((lp1527
S'BETR020'
p1528
atRp1529
sssS'100017'
p1530
(dp1531
S'81104 - PM2.5'
p1532
(dp1533
g32
(lp1534
g331
asg1218
g7
((lp1535
S'BETR811'
p1536
atRp1537
sssS'100014'
p1538
(dp1539
S'81104 - PM2.5'
p1540
(dp1541
g32
(lp1542
g315
asg1218
g7
((lp1543
S'BETN035'
p1544
atRp1545
sssS'100015'
p1546
(dp1547
S'81104 - PM2.5'
p1548
(dp1549
g32
(lp1550
g966
asg1218
g7
((lp1551
S'BETR831'
p1552
atRp1553
sssS'100012'
p1554
(dp1555
S'81104 - PM2.5'
p1556
(dp1557
g32
(lp1558
g56
asg1218
g7
((lp1559
S'BETR750'
p1560
atRp1561
sssS'100013'
p1562
(dp1563
S'81104 - PM2.5'
p1564
(dp1565
g32
(lp1566
g703
asg1218
g7
((lp1567
S'BETN054'
p1568
atRp1569
sssS'100010'
p1570
(dp1571
S'81104 - PM2.5'
p1572
(dp1573
g32
(lp1574
g650
asg1218
g7
((lp1575
S'BETN052'
p1576
atRp1577
sssS'100011'
p1578
(dp1579
S'81104 - PM2.5'
p1580
(dp1581
g32
(lp1582
g947
asg1218
g7
((lp1583
S'BETR834'
p1584
atRp1585
sssS'100018'
p1586
(dp1587
S'81104 - PM2.5'
p1588
(dp1589
g32
(lp1590
g151
asg1218
g7
((lp1591
S'BETN016'
p1592
atRp1593
sssS'10703'
p1594
(dp1595
S'42602 - NO2'
p1596
(dp1597
g32
(lp1598
g1153
asg1218
g7
((lp1599
S'BETR702'
p1600
atRp1601
sssS'10702'
p1602
(dp1603
S'42601 - NO'
p1604
(dp1605
g32
(lp1606
g1154
asg1218
g7
((lp1607
S'BETR702'
p1608
atRp1609
sssS'10701'
p1610
(dp1611
S'44201 - O3'
p1612
(dp1613
g32
(lp1614
g988
asg1218
g7
((lp1615
S'BETR221'
p1616
atRp1617
sssS'10700'
p1618
(dp1619
S'42602 - NO2'
p1620
(dp1621
g32
(lp1622
g989
asg1218
g7
((lp1623
S'BETR221'
p1624
atRp1625
sssS'10706'
p1626
(dp1627
S'16111 - Black Carbon'
p1628
(dp1629
g32
(lp1630
g1155
asg1218
g7
((lp1631
S'BETR702'
p1632
atRp1633
sssS'10705'
p1634
(dp1635
S'81104 - PM2.5'
p1636
(dp1637
g32
(lp1638
g1156
asg1218
g7
((lp1639
S'BETR702'
p1640
atRp1641
sssS'10704'
p1642
(dp1643
S'81102 - PM10'
p1644
(dp1645
g32
(lp1646
g1157
asg1218
g7
((lp1647
S'BETR702'
p1648
atRp1649
sssS'6932'
p1650
(dp1651
S'42401 - SO2'
p1652
(dp1653
g32
(lp1654
g214
asg1218
g7
((lp1655
S'BETN085'
p1656
atRp1657
sssS'6933'
p1658
(dp1659
S'42601 - NO'
p1660
(dp1661
g32
(lp1662
g215
asg1218
g7
((lp1663
S'BETN085'
p1664
atRp1665
sssS'6930'
p1666
(dp1667
S'42101 - CO'
p1668
(dp1669
g32
(lp1670
g216
asg1218
g7
((lp1671
S'BETN085'
p1672
atRp1673
sssS'6931'
p1674
(dp1675
S'42242 - Hg'
p1676
(dp1677
g32
(lp1678
g217
asg1218
g7
((lp1679
S'BETN085'
p1680
atRp1681
sssS'6936'
p1682
(dp1683
S'81102 - PM10'
p1684
(dp1685
g32
(lp1686
g218
asg1218
g7
((lp1687
S'BETN085'
p1688
atRp1689
sssS'6937'
p1690
(dp1691
S'81104 - PM2.5'
p1692
(dp1693
g32
(lp1694
g219
asg1218
g7
((lp1695
S'BETN085'
p1696
atRp1697
sssS'6934'
p1698
(dp1699
S'42602 - NO2'
p1700
(dp1701
g32
(lp1702
g220
asg1218
g7
((lp1703
S'BETN085'
p1704
atRp1705
sssS'6935'
p1706
(dp1707
S'44201 - O3'
p1708
(dp1709
g32
(lp1710
g221
asg1218
g7
((lp1711
S'BETN085'
p1712
atRp1713
sssS'6938'
p1714
(dp1715
S'89101 - PM1'
p1716
(dp1717
g32
(lp1718
S'89101 - PM1_._6938'
p1719
asg1218
g7
((ltRp1720
sssS'6939'
p1721
(dp1722
S'42401 - SO2'
p1723
(dp1724
g32
(lp1725
g122
asg1218
g7
((lp1726
S'BETN093'
p1727
atRp1728
sssS'6271'
p1729
(dp1730
S'42601 - NO'
p1731
(dp1732
g32
(lp1733
g957
asg1218
g7
((lp1734
S'BELLD01'
p1735
atRp1736
sssS'6273'
p1737
(dp1738
S'45109 - m,p-C6H4(CH3)2'
p1739
(dp1740
g32
(lp1741
S'45109 - m,p-C6H4(CH3)2_._6273'
p1742
asg1218
g7
((ltRp1743
sssS'6272'
p1744
(dp1745
S'42602 - NO2'
p1746
(dp1747
g32
(lp1748
g958
asg1218
g7
((lp1749
S'BELLD01'
p1750
atRp1751
sssS'6275'
p1752
(dp1753
S'45202 - C6H5-CH3'
p1754
(dp1755
g32
(lp1756
S'45202 - C6H5-CH3_._6275'
p1757
asg1218
g7
((ltRp1758
sssS'6274'
p1759
(dp1760
S'45201 - C6H6'
p1761
(dp1762
g32
(lp1763
g959
asg1218
g7
((lp1764
S'BELLD01'
p1765
atRp1766
sssS'6277'
p1767
(dp1768
S'45204 - o-C6H4-(CH3)2'
p1769
(dp1770
g32
(lp1771
S'45204 - o-C6H4-(CH3)2_._6277'
p1772
asg1218
g7
((ltRp1773
sssS'6276'
p1774
(dp1775
S'45203 - C6H5-C2H5'
p1776
(dp1777
g32
(lp1778
S'45203 - C6H5-C2H5_._6276'
p1779
asg1218
g7
((ltRp1780
sssS'6503'
p1781
(dp1782
S'42601 - NO'
p1783
(dp1784
g32
(lp1785
S'42601 - NO_._6503'
p1786
asg1218
g7
((ltRp1787
sssS'6502'
p1788
(dp1789
S'42401 - SO2'
p1790
(dp1791
g32
(lp1792
S'42401 - SO2_._6502'
p1793
asg1218
g7
((ltRp1794
sssS'6501'
p1795
(dp1796
S'42102 - CO2'
p1797
(dp1798
g32
(lp1799
S'42102 - CO2_._6501'
p1800
asg1218
g7
((ltRp1801
sssS'6500'
p1802
(dp1803
S'42101 - CO'
p1804
(dp1805
g32
(lp1806
S'42101 - CO_._6500'
p1807
asg1218
g7
((ltRp1808
sssS'6507'
p1809
(dp1810
S'42601 - NO'
p1811
(dp1812
g32
(lp1813
g750
asg1218
g7
((lp1814
S'BETB004'
p1815
atRp1816
sssS'6506'
p1817
(dp1818
S'42101 - CO'
p1819
(dp1820
g32
(lp1821
g751
asg1218
g7
((lp1822
S'BETB004'
p1823
atRp1824
sssS'6504'
p1825
(dp1826
S'42602 - NO2'
p1827
(dp1828
g32
(lp1829
S'42602 - NO2_._6504'
p1830
asg1218
g7
((ltRp1831
sssS'7009'
p1832
(dp1833
S'81104 - PM2.5'
p1834
(dp1835
g32
(lp1836
g1015
asg1218
g7
((lp1837
S'BETR223'
p1838
atRp1839
sssS'99925'
p1840
(dp1841
S'61110 - WSP-SCA'
p1842
(dp1843
g32
(lp1844
S'61110 - WSP-SCA_._99925'
p1845
asg1218
g7
((ltRp1846
sssS'99937'
p1847
(dp1848
S'61110 - WSP-SCA'
p1849
(dp1850
g32
(lp1851
S'61110 - WSP-SCA_._99937'
p1852
asg1218
g7
((ltRp1853
sssS'6430'
p1854
(dp1855
S'42401 - SO2'
p1856
(dp1857
g32
(lp1858
g306
asg1218
g7
((lp1859
S'BELWZ02'
p1860
atRp1861
sssS'6204'
p1862
(dp1863
S'45203 - C6H5-C2H5'
p1864
(dp1865
g32
(lp1866
S'45203 - C6H5-C2H5_._6204'
p1867
asg1218
g7
((ltRp1868
sssS'6205'
p1869
(dp1870
S'45204 - o-C6H4-(CH3)2'
p1871
(dp1872
g32
(lp1873
S'45204 - o-C6H4-(CH3)2_._6205'
p1874
asg1218
g7
((ltRp1875
sssS'6206'
p1876
(dp1877
S'81102 - PM10'
p1878
(dp1879
g32
(lp1880
S'81102 - PM10_._6206'
p1881
asg1218
g7
((ltRp1882
sssS'6207'
p1883
(dp1884
S'42242 - Hg'
p1885
(dp1886
g32
(lp1887
S'42242 - Hg_._6207'
p1888
asg1218
g7
((ltRp1889
sssS'6200'
p1890
(dp1891
S'42602 - NO2'
p1892
(dp1893
g32
(lp1894
g204
asg1218
g7
((lp1895
S'BELGK09'
p1896
atRp1897
sssS'6201'
p1898
(dp1899
S'45109 - m,p-C6H4(CH3)2'
p1900
(dp1901
g32
(lp1902
S'45109 - m,p-C6H4(CH3)2_._6201'
p1903
asg1218
g7
((ltRp1904
sssS'6202'
p1905
(dp1906
S'45201 - C6H6'
p1907
(dp1908
g32
(lp1909
g205
asg1218
g7
((lp1910
S'BELGK09'
p1911
atRp1912
sssS'6203'
p1913
(dp1914
S'45202 - C6H5-CH3'
p1915
(dp1916
g32
(lp1917
S'45202 - C6H5-CH3_._6203'
p1918
asg1218
g7
((ltRp1919
sssS'6809'
p1920
(dp1921
S'42401 - SO2'
p1922
(dp1923
g32
(lp1924
g1173
asg1218
g7
((lp1925
S'BETR820'
p1926
atRp1927
sssS'6804'
p1928
(dp1929
S'81102 - PM10'
p1930
(dp1931
g32
(lp1932
g356
asg1218
g7
((lp1933
S'BETR815'
p1934
atRp1935
sssS'6802'
p1936
(dp1937
S'42601 - NO'
p1938
(dp1939
g32
(lp1940
g357
asg1218
g7
((lp1941
S'BETR815'
p1942
atRp1943
sssS'6803'
p1944
(dp1945
S'42602 - NO2'
p1946
(dp1947
g32
(lp1948
g358
asg1218
g7
((lp1949
S'BETR815'
p1950
atRp1951
sssS'6800'
p1952
(dp1953
S'16111 - Black Carbon'
p1954
(dp1955
g32
(lp1956
g359
asg1218
g7
((lp1957
S'BETR815'
p1958
atRp1959
sssS'6801'
p1960
(dp1961
S'42401 - SO2'
p1962
(dp1963
g32
(lp1964
g360
asg1218
g7
((lp1965
S'BETR815'
p1966
atRp1967
sssS'6613'
p1968
(dp1969
S'42401 - SO2'
p1970
(dp1971
g32
(lp1972
g547
asg1218
g7
((lp1973
S'BETR002'
p1974
atRp1975
sssS'6612'
p1976
(dp1977
S'42102 - CO2'
p1978
(dp1979
g32
(lp1980
g548
asg1218
g7
((lp1981
S'BETR002'
p1982
atRp1983
sssS'6611'
p1984
(dp1985
S'42101 - CO'
p1986
(dp1987
g32
(lp1988
g549
asg1218
g7
((lp1989
S'BETR002'
p1990
atRp1991
sssS'99927'
p1992
(dp1993
S'61102 - DD'
p1994
(dp1995
g32
(lp1996
S'61102 - DD_._99927'
p1997
asg1218
g7
((ltRp1998
sssS'6615'
p1999
(dp2000
S'42602 - NO2'
p2001
(dp2002
g32
(lp2003
g550
asg1218
g7
((lp2004
S'BETR002'
p2005
atRp2006
sssS'6614'
p2007
(dp2008
S'42601 - NO'
p2009
(dp2010
g32
(lp2011
g551
asg1218
g7
((lp2012
S'BETR002'
p2013
atRp2014
sssS'7001'
p2015
(dp2016
S'81104 - PM2.5'
p2017
(dp2018
g32
(lp2019
g1001
asg1218
g7
((lp2020
S'BETR222'
p2021
atRp2022
sssS'7000'
p2023
(dp2024
S'81102 - PM10'
p2025
(dp2026
g32
(lp2027
g1002
asg1218
g7
((lp2028
S'BETR222'
p2029
atRp2030
sssS'6619'
p2031
(dp2032
S'42102 - CO2'
p2033
(dp2034
g32
(lp2035
g367
asg1218
g7
((lp2036
S'BETR012'
p2037
atRp2038
sssS'7005'
p2039
(dp2040
S'42601 - NO'
p2041
(dp2042
g32
(lp2043
g1016
asg1218
g7
((lp2044
S'BETR223'
p2045
atRp2046
sssS'7004'
p2047
(dp2048
S'42401 - SO2'
p2049
(dp2050
g32
(lp2051
g1017
asg1218
g7
((lp2052
S'BETR223'
p2053
atRp2054
sssS'7006'
p2055
(dp2056
S'42602 - NO2'
p2057
(dp2058
g32
(lp2059
g1018
asg1218
g7
((lp2060
S'BETR223'
p2061
atRp2062
sssS'6752'
p2063
(dp2064
S'42601 - NO'
p2065
(dp2066
g32
(lp2067
g384
asg1218
g7
((lp2068
S'BETR010'
p2069
atRp2070
sssS'6753'
p2071
(dp2072
S'42602 - NO2'
p2073
(dp2074
g32
(lp2075
g385
asg1218
g7
((lp2076
S'BETR010'
p2077
atRp2078
sssS'6750'
p2079
(dp2080
S'42101 - CO'
p2081
(dp2082
g32
(lp2083
g386
asg1218
g7
((lp2084
S'BETR010'
p2085
atRp2086
sssS'99916'
p2087
(dp2088
S'61110 - WSP-SCA'
p2089
(dp2090
g32
(lp2091
g530
asg1218
g7
((lp2092
S'BETR001'
p2093
atRp2094
sssS'7177'
p2095
(dp2096
S'42602 - NO2'
p2097
(dp2098
g32
(lp2099
g842
asg1218
g7
((lp2100
S'BETE007'
p2101
atRp2102
sssS'99919'
p2103
(dp2104
S'61110 - WSP-SCA'
p2105
(dp2106
g32
(lp2107
S'61110 - WSP-SCA_._99919'
p2108
asg1218
g7
((ltRp2109
sssS'7176'
p2110
(dp2111
S'42601 - NO'
p2112
(dp2113
g32
(lp2114
g843
asg1218
g7
((lp2115
S'BETE007'
p2116
atRp2117
sssS'99940'
p2118
(dp2119
S'61110 - WSP-SCA'
p2120
(dp2121
g32
(lp2122
g368
asg1218
g7
((lp2123
S'BETR012'
p2124
atRp2125
sssS'99918'
p2126
(dp2127
S'61102 - DD'
p2128
(dp2129
g32
(lp2130
S'61102 - DD_._99918'
p2131
asg1218
g7
((ltRp2132
sssS'99941'
p2133
(dp2134
S'62101 - TT'
p2135
(dp2136
g32
(lp2137
g369
asg1218
g7
((lp2138
S'BETR012'
p2139
atRp2140
sssS'99915'
p2141
(dp2142
S'61102 - DD'
p2143
(dp2144
g32
(lp2145
g531
asg1218
g7
((lp2146
S'BETR001'
p2147
atRp2148
sssS'6891'
p2149
(dp2150
S'44201 - O3'
p2151
(dp2152
g32
(lp2153
g1072
asg1218
g7
((lp2154
S'BETN060'
p2155
atRp2156
sssS'6890'
p2157
(dp2158
S'42602 - NO2'
p2159
(dp2160
g32
(lp2161
g1073
asg1218
g7
((lp2162
S'BETN060'
p2163
atRp2164
sssS'6893'
p2165
(dp2166
S'81104 - PM2.5'
p2167
(dp2168
g32
(lp2169
g1074
asg1218
g7
((lp2170
S'BETN060'
p2171
atRp2172
sssS'6892'
p2173
(dp2174
S'81102 - PM10'
p2175
(dp2176
g32
(lp2177
g1075
asg1218
g7
((lp2178
S'BETN060'
p2179
atRp2180
sssS'6895'
p2181
(dp2182
S'42101 - CO'
p2183
(dp2184
g32
(lp2185
g1059
asg1218
g7
((lp2186
S'BETN063'
p2187
atRp2188
sssS'6894'
p2189
(dp2190
S'89101 - PM1'
p2191
(dp2192
g32
(lp2193
S'89101 - PM1_._6894'
p2194
asg1218
g7
((ltRp2195
sssS'6897'
p2196
(dp2197
S'42601 - NO'
p2198
(dp2199
g32
(lp2200
g1060
asg1218
g7
((lp2201
S'BETN063'
p2202
atRp2203
sssS'6896'
p2204
(dp2205
S'42401 - SO2'
p2206
(dp2207
g32
(lp2208
g1061
asg1218
g7
((lp2209
S'BETN063'
p2210
atRp2211
sssS'6899'
p2212
(dp2213
S'44201 - O3'
p2214
(dp2215
g32
(lp2216
g1062
asg1218
g7
((lp2217
S'BETN063'
p2218
atRp2219
sssS'6898'
p2220
(dp2221
S'42602 - NO2'
p2222
(dp2223
g32
(lp2224
g1063
asg1218
g7
((lp2225
S'BETN063'
p2226
atRp2227
sssS'7179'
p2228
(dp2229
S'42601 - NO'
p2230
(dp2231
g32
(lp2232
g858
asg1218
g7
((lp2233
S'BETE008'
p2234
atRp2235
sssS'99928'
p2236
(dp2237
S'61110 - WSP-SCA'
p2238
(dp2239
g32
(lp2240
S'61110 - WSP-SCA_._99928'
p2241
asg1218
g7
((ltRp2242
sssS'99929'
p2243
(dp2244
S'62101 - TT'
p2245
(dp2246
g32
(lp2247
g175
asg1218
g7
((lp2248
S'BETM204'
p2249
atRp2250
sssS'7078'
p2251
(dp2252
S'44201 - O3'
p2253
(dp2254
g32
(lp2255
g459
asg1218
g7
((lp2256
S'BETR701'
p2257
atRp2258
sssS'7079'
p2259
(dp2260
S'45109 - m,p-C6H4(CH3)2'
p2261
(dp2262
g32
(lp2263
S'45109 - m,p-C6H4(CH3)2_._7079'
p2264
asg1218
g7
((ltRp2265
sssS'7074'
p2266
(dp2267
S'42602 - NO2'
p2268
(dp2269
g32
(lp2270
g460
asg1218
g7
((lp2271
S'BETR701'
p2272
atRp2273
sssS'99921'
p2274
(dp2275
S'61102 - DD'
p2276
(dp2277
g32
(lp2278
S'61102 - DD_._99921'
p2279
asg1218
g7
((ltRp2280
sssS'99922'
p2281
(dp2282
S'61110 - WSP-SCA'
p2283
(dp2284
g32
(lp2285
S'61110 - WSP-SCA_._99922'
p2286
asg1218
g7
((ltRp2287
sssS'99923'
p2288
(dp2289
S'62101 - TT'
p2290
(dp2291
g32
(lp2292
S'62101 - TT_._99923'
p2293
asg1218
g7
((ltRp2294
sssS'99924'
p2295
(dp2296
S'61102 - DD'
p2297
(dp2298
g32
(lp2299
S'61102 - DD_._99924'
p2300
asg1218
g7
((ltRp2301
sssS'7071'
p2302
(dp2303
S'42101 - CO'
p2304
(dp2305
g32
(lp2306
g461
asg1218
g7
((lp2307
S'BETR701'
p2308
atRp2309
sssS'7072'
p2310
(dp2311
S'42401 - SO2'
p2312
(dp2313
g32
(lp2314
g462
asg1218
g7
((lp2315
S'BETR701'
p2316
atRp2317
sssS'7073'
p2318
(dp2319
S'42601 - NO'
p2320
(dp2321
g32
(lp2322
g463
asg1218
g7
((lp2323
S'BETR701'
p2324
atRp2325
sssS'6972'
p2326
(dp2327
S'89101 - PM1'
p2328
(dp2329
g32
(lp2330
S'89101 - PM1_._6972'
p2331
asg1218
g7
((ltRp2332
sssS'6970'
p2333
(dp2334
S'81102 - PM10'
p2335
(dp2336
g32
(lp2337
g412
asg1218
g7
((lp2338
S'BETN132'
p2339
atRp2340
sssS'6971'
p2341
(dp2342
S'81104 - PM2.5'
p2343
(dp2344
g32
(lp2345
g413
asg1218
g7
((lp2346
S'BETN132'
p2347
atRp2348
sssS'6508'
p2349
(dp2350
S'42602 - NO2'
p2351
(dp2352
g32
(lp2353
g752
asg1218
g7
((lp2354
S'BETB004'
p2355
atRp2356
sssS'6916'
p2357
(dp2358
S'42601 - NO'
p2359
(dp2360
g32
(lp2361
g910
asg1218
g7
((lp2362
S'BETN070'
p2363
atRp2364
sssS'99920'
p2365
(dp2366
S'62101 - TT'
p2367
(dp2368
g32
(lp2369
S'62101 - TT_._99920'
p2370
asg1218
g7
((ltRp2371
sssS'6917'
p2372
(dp2373
S'42602 - NO2'
p2374
(dp2375
g32
(lp2376
g911
asg1218
g7
((lp2377
S'BETN070'
p2378
atRp2379
sssS'7180'
p2380
(dp2381
S'42602 - NO2'
p2382
(dp2383
g32
(lp2384
g859
asg1218
g7
((lp2385
S'BETE008'
p2386
atRp2387
sssS'7041'
p2388
(dp2389
S'44201 - O3'
p2390
(dp2391
g32
(lp2392
g165
asg1218
g7
((lp2393
S'BETN012'
p2394
atRp2395
sssS'7182'
p2396
(dp2397
S'42601 - NO'
p2398
(dp2399
g32
(lp2400
g850
asg1218
g7
((lp2401
S'BETE009'
p2402
atRp2403
sssS'7183'
p2404
(dp2405
S'42602 - NO2'
p2406
(dp2407
g32
(lp2408
g851
asg1218
g7
((lp2409
S'BETE009'
p2410
atRp2411
sssS'7185'
p2412
(dp2413
S'42601 - NO'
p2414
(dp2415
g32
(lp2416
g1051
asg1218
g7
((lp2417
S'BETE013'
p2418
atRp2419
sssS'7186'
p2420
(dp2421
S'42602 - NO2'
p2422
(dp2423
g32
(lp2424
g1052
asg1218
g7
((lp2425
S'BETE013'
p2426
atRp2427
sssS'7040'
p2428
(dp2429
S'42602 - NO2'
p2430
(dp2431
g32
(lp2432
g166
asg1218
g7
((lp2433
S'BETN012'
p2434
atRp2435
sssS'7207'
p2436
(dp2437
S'42602 - NO2'
p2438
(dp2439
g32
(lp2440
g84
asg1218
g7
((lp2441
S'BETE716'
p2442
atRp2443
sssS'7042'
p2444
(dp2445
S'81102 - PM10'
p2446
(dp2447
g32
(lp2448
g167
asg1218
g7
((lp2449
S'BETN012'
p2450
atRp2451
sssS'7206'
p2452
(dp2453
S'42601 - NO'
p2454
(dp2455
g32
(lp2456
g85
asg1218
g7
((lp2457
S'BETE716'
p2458
atRp2459
sssS'10699'
p2460
(dp2461
S'42601 - NO'
p2462
(dp2463
g32
(lp2464
g990
asg1218
g7
((lp2465
S'BETR221'
p2466
atRp2467
sssS'10698'
p2468
(dp2469
S'42602 - NO2'
p2470
(dp2471
g32
(lp2472
g1174
asg1218
g7
((lp2473
S'BETR820'
p2474
atRp2475
sssS'7223'
p2476
(dp2477
S'42401 - SO2'
p2478
(dp2479
g32
(lp2480
S'42401 - SO2_._7223'
p2481
asg1218
g7
((ltRp2482
sssS'7222'
p2483
(dp2484
S'42602 - NO2'
p2485
(dp2486
g32
(lp2487
S'42602 - NO2_._7222'
p2488
asg1218
g7
((ltRp2489
sssS'7225'
p2490
(dp2491
S'42602 - NO2'
p2492
(dp2493
g32
(lp2494
S'42602 - NO2_._7225'
p2495
asg1218
g7
((ltRp2496
sssS'7224'
p2497
(dp2498
S'42601 - NO'
p2499
(dp2500
g32
(lp2501
S'42601 - NO_._7224'
p2502
asg1218
g7
((ltRp2503
sssS'7227'
p2504
(dp2505
S'42601 - NO'
p2506
(dp2507
g32
(lp2508
S'42601 - NO_._7227'
p2509
asg1218
g7
((ltRp2510
sssS'7226'
p2511
(dp2512
S'42401 - SO2'
p2513
(dp2514
g32
(lp2515
S'42401 - SO2_._7226'
p2516
asg1218
g7
((ltRp2517
sssS'10691'
p2518
(dp2519
S'81102 - PM10'
p2520
(dp2521
g32
(lp2522
g46
asg1218
g7
((lp2523
S'BELSA04'
p2524
atRp2525
sssS'10690'
p2526
(dp2527
S'16111 - Black Carbon'
p2528
(dp2529
g32
(lp2530
g47
asg1218
g7
((lp2531
S'BELSA04'
p2532
atRp2533
sssS'10693'
p2534
(dp2535
S'16111 - Black Carbon'
p2536
(dp2537
g32
(lp2538
g798
asg1218
g7
((lp2539
S'BETN043'
p2540
atRp2541
sssS'10692'
p2542
(dp2543
S'81104 - PM2.5'
p2544
(dp2545
g32
(lp2546
g48
asg1218
g7
((lp2547
S'BELSA04'
p2548
atRp2549
sssS'10697'
p2550
(dp2551
S'42601 - NO'
p2552
(dp2553
g32
(lp2554
g1175
asg1218
g7
((lp2555
S'BETR820'
p2556
atRp2557
sssS'10696'
p2558
(dp2559
S'42601 - NO'
p2560
(dp2561
g32
(lp2562
g507
asg1218
g7
((lp2563
S'BETR802'
p2564
atRp2565
sssS'6572'
p2566
(dp2567
S'42401 - SO2'
p2568
(dp2569
g32
(lp2570
g532
asg1218
g7
((lp2571
S'BETR001'
p2572
atRp2573
sssS'6573'
p2574
(dp2575
S'42601 - NO'
p2576
(dp2577
g32
(lp2578
g533
asg1218
g7
((lp2579
S'BETR001'
p2580
atRp2581
sssS'6571'
p2582
(dp2583
S'42101 - CO'
p2584
(dp2585
g32
(lp2586
g534
asg1218
g7
((lp2587
S'BETR001'
p2588
atRp2589
sssS'6577'
p2590
(dp2591
S'44201 - O3'
p2592
(dp2593
g32
(lp2594
g535
asg1218
g7
((lp2595
S'BETR001'
p2596
atRp2597
sssS'6574'
p2598
(dp2599
S'42602 - NO2'
p2600
(dp2601
g32
(lp2602
g536
asg1218
g7
((lp2603
S'BETR001'
p2604
atRp2605
sssS'7122'
p2606
(dp2607
S'42602 - NO2'
p2608
(dp2609
g32
(lp2610
g57
asg1218
g7
((lp2611
S'BETR750'
p2612
atRp2613
sssS'6578'
p2614
(dp2615
S'81102 - PM10'
p2616
(dp2617
g32
(lp2618
g537
asg1218
g7
((lp2619
S'BETR001'
p2620
atRp2621
sssS'6579'
p2622
(dp2623
S'81104 - PM2.5'
p2624
(dp2625
g32
(lp2626
g538
asg1218
g7
((lp2627
S'BETR001'
p2628
atRp2629
sssS'6324'
p2630
(dp2631
S'81102 - PM10'
p2632
(dp2633
g32
(lp2634
g740
asg1218
g7
((lp2635
S'BELOB01'
p2636
atRp2637
sssS'6323'
p2638
(dp2639
S'42602 - NO2'
p2640
(dp2641
g32
(lp2642
g741
asg1218
g7
((lp2643
S'BELOB01'
p2644
atRp2645
sssS'6322'
p2646
(dp2647
S'42601 - NO'
p2648
(dp2649
g32
(lp2650
g742
asg1218
g7
((lp2651
S'BELOB01'
p2652
atRp2653
sssS'10749'
p2654
(dp2655
S'81104 - PM2.5'
p2656
(dp2657
g32
(lp2658
g338
asg1218
g7
((lp2659
S'BETR817'
p2660
atRp2661
sssS'10748'
p2662
(dp2663
S'81102 - PM10'
p2664
(dp2665
g32
(lp2666
g339
asg1218
g7
((lp2667
S'BETR817'
p2668
atRp2669
sssS'10747'
p2670
(dp2671
S'16111 - Black Carbon'
p2672
(dp2673
g32
(lp2674
S'16111 - Black Carbon_._10747'
p2675
asg1218
g7
((ltRp2676
sssS'10746'
p2677
(dp2678
S'42602 - NO2'
p2679
(dp2680
g32
(lp2681
g340
asg1218
g7
((lp2682
S'BETR817'
p2683
atRp2684
sssS'10745'
p2685
(dp2686
S'42601 - NO'
p2687
(dp2688
g32
(lp2689
g341
asg1218
g7
((lp2690
S'BETR817'
p2691
atRp2692
sssS'10744'
p2693
(dp2694
S'81104 - PM2.5'
p2695
(dp2696
g32
(lp2697
g519
asg1218
g7
((lp2698
S'BETR803'
p2699
atRp2700
sssS'10743'
p2701
(dp2702
S'81102 - PM10'
p2703
(dp2704
g32
(lp2705
g520
asg1218
g7
((lp2706
S'BETR803'
p2707
atRp2708
sssS'10742'
p2709
(dp2710
S'16111 - Black Carbon'
p2711
(dp2712
g32
(lp2713
g521
asg1218
g7
((lp2714
S'BETR803'
p2715
atRp2716
sssS'10741'
p2717
(dp2718
S'42602 - NO2'
p2719
(dp2720
g32
(lp2721
g522
asg1218
g7
((lp2722
S'BETR803'
p2723
atRp2724
sssS'10740'
p2725
(dp2726
S'42601 - NO'
p2727
(dp2728
g32
(lp2729
g523
asg1218
g7
((lp2730
S'BETR803'
p2731
atRp2732
sssS'6718'
p2733
(dp2734
S'42602 - NO2'
p2735
(dp2736
g32
(lp2737
g787
asg1218
g7
((lp2738
S'BETN040'
p2739
atRp2740
sssS'6719'
p2741
(dp2742
S'44201 - O3'
p2743
(dp2744
g32
(lp2745
g788
asg1218
g7
((lp2746
S'BETN040'
p2747
atRp2748
sssS'6716'
p2749
(dp2750
S'81102 - PM10'
p2751
(dp2752
g32
(lp2753
g316
asg1218
g7
((lp2754
S'BETN035'
p2755
atRp2756
sssS'6717'
p2757
(dp2758
S'42601 - NO'
p2759
(dp2760
g32
(lp2761
g789
asg1218
g7
((lp2762
S'BETN040'
p2763
atRp2764
sssS'6714'
p2765
(dp2766
S'42602 - NO2'
p2767
(dp2768
g32
(lp2769
g317
asg1218
g7
((lp2770
S'BETN035'
p2771
atRp2772
sssS'6715'
p2773
(dp2774
S'44201 - O3'
p2775
(dp2776
g32
(lp2777
g318
asg1218
g7
((lp2778
S'BETN035'
p2779
atRp2780
sssS'6712'
p2781
(dp2782
S'42401 - SO2'
p2783
(dp2784
g32
(lp2785
g319
asg1218
g7
((lp2786
S'BETN035'
p2787
atRp2788
sssS'6713'
p2789
(dp2790
S'42601 - NO'
p2791
(dp2792
g32
(lp2793
g320
asg1218
g7
((lp2794
S'BETN035'
p2795
atRp2796
sssS'6710'
p2797
(dp2798
S'42602 - NO2'
p2799
(dp2800
g32
(lp2801
g442
asg1218
g7
((lp2802
S'BETN027'
p2803
atRp2804
sssS'6711'
p2805
(dp2806
S'44201 - O3'
p2807
(dp2808
g32
(lp2809
g443
asg1218
g7
((lp2810
S'BETN027'
p2811
atRp2812
sssS'6855'
p2813
(dp2814
S'81104 - PM2.5'
p2815
(dp2816
g32
(lp2817
g34
asg1218
g7
((lp2818
S'BETR841'
p2819
atRp2820
sssS'6854'
p2821
(dp2822
S'81102 - PM10'
p2823
(dp2824
g32
(lp2825
g35
asg1218
g7
((lp2826
S'BETR841'
p2827
atRp2828
sssS'6857'
p2829
(dp2830
S'42601 - NO'
p2831
(dp2832
g32
(lp2833
g577
asg1218
g7
((lp2834
S'BETR891'
p2835
atRp2836
sssS'6856'
p2837
(dp2838
S'42401 - SO2'
p2839
(dp2840
g32
(lp2841
g578
asg1218
g7
((lp2842
S'BETR891'
p2843
atRp2844
sssS'6851'
p2845
(dp2846
S'42601 - NO'
p2847
(dp2848
g32
(lp2849
g36
asg1218
g7
((lp2850
S'BETR841'
p2851
atRp2852
sssS'6853'
p2853
(dp2854
S'44201 - O3'
p2855
(dp2856
g32
(lp2857
g37
asg1218
g7
((lp2858
S'BETR841'
p2859
atRp2860
sssS'6852'
p2861
(dp2862
S'42602 - NO2'
p2863
(dp2864
g32
(lp2865
g38
asg1218
g7
((lp2866
S'BETR841'
p2867
atRp2868
sssS'6858'
p2869
(dp2870
S'42602 - NO2'
p2871
(dp2872
g32
(lp2873
g579
asg1218
g7
((lp2874
S'BETR891'
p2875
atRp2876
sssS'7031'
p2877
(dp2878
S'42601 - NO'
p2879
(dp2880
g32
(lp2881
g727
asg1218
g7
((lp2882
S'BETM705'
p2883
atRp2884
sssS'7032'
p2885
(dp2886
S'42602 - NO2'
p2887
(dp2888
g32
(lp2889
g728
asg1218
g7
((lp2890
S'BETM705'
p2891
atRp2892
sssS'7033'
p2893
(dp2894
S'44201 - O3'
p2895
(dp2896
g32
(lp2897
g729
asg1218
g7
((lp2898
S'BETM705'
p2899
atRp2900
sssS'6147'
p2901
(dp2902
S'16111 - Black Carbon'
p2903
(dp2904
g32
(lp2905
g142
asg1218
g7
((lp2906
S'BELAB01'
p2907
atRp2908
sssS'7017'
p2909
(dp2910
S'42602 - NO2'
p2911
(dp2912
g32
(lp2913
g691
asg1218
g7
((lp2914
S'BETR240'
p2915
atRp2916
sssS'7131'
p2917
(dp2918
S'42601 - NO'
p2919
(dp2920
g32
(lp2921
g1141
asg1218
g7
((lp2922
S'BETR501'
p2923
atRp2924
sssS'7039'
p2925
(dp2926
S'42601 - NO'
p2927
(dp2928
g32
(lp2929
g168
asg1218
g7
((lp2930
S'BETN012'
p2931
atRp2932
sssS'6149'
p2933
(dp2934
S'81102 - PM10'
p2935
(dp2936
g32
(lp2937
g134
asg1218
g7
((lp2938
S'BELAB02'
p2939
atRp2940
sssS'6148'
p2941
(dp2942
S'81102 - PM10'
p2943
(dp2944
g32
(lp2945
g143
asg1218
g7
((lp2946
S'BELAB01'
p2947
atRp2948
sssS'7135'
p2949
(dp2950
S'81102 - PM10'
p2951
(dp2952
g32
(lp2953
g1142
asg1218
g7
((lp2954
S'BETR501'
p2955
atRp2956
sssS'7137'
p2957
(dp2958
S'89101 - PM1'
p2959
(dp2960
g32
(lp2961
S'89101 - PM1_._7137'
p2962
asg1218
g7
((ltRp2963
sssS'7136'
p2964
(dp2965
S'81104 - PM2.5'
p2966
(dp2967
g32
(lp2968
g1143
asg1218
g7
((lp2969
S'BETR501'
p2970
atRp2971
sssS'6781'
p2972
(dp2973
S'45202 - C6H5-CH3'
p2974
(dp2975
g32
(lp2976
S'45202 - C6H5-CH3_._6781'
p2977
asg1218
g7
((ltRp2978
sssS'6780'
p2979
(dp2980
S'45201 - C6H6'
p2981
(dp2982
g32
(lp2983
g492
asg1218
g7
((lp2984
S'BETR801'
p2985
atRp2986
sssS'6783'
p2987
(dp2988
S'45204 - o-C6H4-(CH3)2'
p2989
(dp2990
g32
(lp2991
S'45204 - o-C6H4-(CH3)2_._6783'
p2992
asg1218
g7
((ltRp2993
sssS'6782'
p2994
(dp2995
S'45203 - C6H5-C2H5'
p2996
(dp2997
g32
(lp2998
S'45203 - C6H5-C2H5_._6782'
p2999
asg1218
g7
((ltRp3000
sssS'6787'
p3001
(dp3002
S'81104 - PM2.5'
p3003
(dp3004
g32
(lp3005
g493
asg1218
g7
((lp3006
S'BETR801'
p3007
atRp3008
sssS'6786'
p3009
(dp3010
S'81102 - PM10'
p3011
(dp3012
g32
(lp3013
g494
asg1218
g7
((lp3014
S'BETR801'
p3015
atRp3016
sssS'6789'
p3017
(dp3018
S'81104 - PM2.5'
p3019
(dp3020
g32
(lp3021
g508
asg1218
g7
((lp3022
S'BETR802'
p3023
atRp3024
sssS'6788'
p3025
(dp3026
S'81102 - PM10'
p3027
(dp3028
g32
(lp3029
g509
asg1218
g7
((lp3030
S'BETR802'
p3031
atRp3032
sssS'7044'
p3033
(dp3034
S'42242 - Hg'
p3035
(dp3036
g32
(lp3037
S'42242 - Hg_._7044'
p3038
asg1218
g7
((ltRp3039
sssS'99911'
p3040
(dp3041
S'62101 - TT'
p3042
(dp3043
g32
(lp3044
g478
asg1218
g7
((lp3045
S'BETM802'
p3046
atRp3047
sssS'99910'
p3048
(dp3049
S'61110 - WSP-SCA'
p3050
(dp3051
g32
(lp3052
g479
asg1218
g7
((lp3053
S'BETM802'
p3054
atRp3055
sssS'99913'
p3056
(dp3057
S'61110 - WSP-SCA'
p3058
(dp3059
g32
(lp3060
S'61110 - WSP-SCA_._99913'
p3061
asg1218
g7
((ltRp3062
sssS'99912'
p3063
(dp3064
S'61102 - DD'
p3065
(dp3066
g32
(lp3067
S'61102 - DD_._99912'
p3068
asg1218
g7
((ltRp3069
sssS'7047'
p3070
(dp3071
S'42602 - NO2'
p3072
(dp3073
g32
(lp3074
g427
asg1218
g7
((lp3075
S'BETN029'
p3076
atRp3077
sssS'7149'
p3078
(dp3079
S'81104 - PM2.5'
p3080
(dp3081
g32
(lp3082
g105
asg1218
g7
((lp3083
S'BETR510'
p3084
atRp3085
sssS'99917'
p3086
(dp3087
S'62101 - TT'
p3088
(dp3089
g32
(lp3090
g539
asg1218
g7
((lp3091
S'BETR001'
p3092
atRp3093
sssS'6638'
p3094
(dp3095
S'42601 - NO'
p3096
(dp3097
g32
(lp3098
g277
asg1218
g7
((lp3099
S'BETWOL1'
p3100
atRp3101
sssS'7144'
p3102
(dp3103
S'81104 - PM2.5'
p3104
(dp3105
g32
(lp3106
g878
asg1218
g7
((lp3107
S'BETR502'
p3108
atRp3109
sssS'7145'
p3110
(dp3111
S'89101 - PM1'
p3112
(dp3113
g32
(lp3114
S'89101 - PM1_._7145'
p3115
asg1218
g7
((ltRp3116
sssS'7147'
p3117
(dp3118
S'42401 - SO2'
p3119
(dp3120
g32
(lp3121
g106
asg1218
g7
((lp3122
S'BETR510'
p3123
atRp3124
sssS'7140'
p3125
(dp3126
S'42601 - NO'
p3127
(dp3128
g32
(lp3129
g879
asg1218
g7
((lp3130
S'BETR502'
p3131
atRp3132
sssS'7141'
p3133
(dp3134
S'42602 - NO2'
p3135
(dp3136
g32
(lp3137
g880
asg1218
g7
((lp3138
S'BETR502'
p3139
atRp3140
sssS'7142'
p3141
(dp3142
S'44201 - O3'
p3143
(dp3144
g32
(lp3145
g881
asg1218
g7
((lp3146
S'BETR502'
p3147
atRp3148
sssS'7143'
p3149
(dp3150
S'81102 - PM10'
p3151
(dp3152
g32
(lp3153
g882
asg1218
g7
((lp3154
S'BETR502'
p3155
atRp3156
sssS'100005'
p3157
(dp3158
S'81104 - PM2.5'
p3159
(dp3160
g32
(lp3161
g393
asg1218
g7
((lp3162
S'BELRL01'
p3163
atRp3164
sssS'100004'
p3165
(dp3166
S'81104 - PM2.5'
p3167
(dp3168
g32
(lp3169
S'81104 - PM2.5_._100004'
p3170
asg1218
g7
((ltRp3171
sssS'100006'
p3172
(dp3173
S'81104 - PM2.5'
p3174
(dp3175
g32
(lp3176
g743
asg1218
g7
((lp3177
S'BELOB01'
p3178
atRp3179
sssS'100001'
p3180
(dp3181
S'81104 - PM2.5'
p3182
(dp3183
g32
(lp3184
S'81104 - PM2.5_._100001'
p3185
asg1218
g7
((ltRp3186
sssS'100003'
p3187
(dp3188
S'81104 - PM2.5'
p3189
(dp3190
g32
(lp3191
g135
asg1218
g7
((lp3192
S'BELAB02'
p3193
atRp3194
sssS'100002'
p3195
(dp3196
S'81104 - PM2.5'
p3197
(dp3198
g32
(lp3199
g144
asg1218
g7
((lp3200
S'BELAB01'
p3201
atRp3202
sssS'7129'
p3203
(dp3204
S'42101 - CO'
p3205
(dp3206
g32
(lp3207
g1144
asg1218
g7
((lp3208
S'BETR501'
p3209
atRp3210
sssS'100009'
p3211
(dp3212
S'81104 - PM2.5'
p3213
(dp3214
g32
(lp3215
g1201
asg1218
g7
((lp3216
S'BELSZ02'
p3217
atRp3218
sssS'100008'
p3219
(dp3220
S'81104 - PM2.5'
p3221
(dp3222
g32
(lp3223
g618
asg1218
g7
((lp3224
S'BELAL01'
p3225
atRp3226
sssS'7046'
p3227
(dp3228
S'42601 - NO'
p3229
(dp3230
g32
(lp3231
g428
asg1218
g7
((lp3232
S'BETN029'
p3233
atRp3234
sssS'99936'
p3235
(dp3236
S'61102 - DD'
p3237
(dp3238
g32
(lp3239
S'61102 - DD_._99936'
p3240
asg1218
g7
((ltRp3241
sssS'6532'
p3242
(dp3243
S'81104 - PM2.5'
p3244
(dp3245
g32
(lp3246
g898
asg1218
g7
((lp3247
S'BETB011'
p3248
atRp3249
sssS'6928'
p3250
(dp3251
S'16111 - Black Carbon'
p3252
(dp3253
g32
(lp3254
g222
asg1218
g7
((lp3255
S'BETN085'
p3256
atRp3257
sssS'6530'
p3258
(dp3259
S'44201 - O3'
p3260
(dp3261
g32
(lp3262
g899
asg1218
g7
((lp3263
S'BETB011'
p3264
atRp3265
sssS'6531'
p3266
(dp3267
S'81102 - PM10'
p3268
(dp3269
g32
(lp3270
g900
asg1218
g7
((lp3271
S'BETB011'
p3272
atRp3273
sssS'6925'
p3274
(dp3275
S'44201 - O3'
p3276
(dp3277
g32
(lp3278
g923
asg1218
g7
((lp3279
S'BETN073'
p3280
atRp3281
sssS'6924'
p3282
(dp3283
S'42602 - NO2'
p3284
(dp3285
g32
(lp3286
g924
asg1218
g7
((lp3287
S'BETN073'
p3288
atRp3289
sssS'6927'
p3290
(dp3291
S'81104 - PM2.5'
p3292
(dp3293
g32
(lp3294
g925
asg1218
g7
((lp3295
S'BETN073'
p3296
atRp3297
sssS'6926'
p3298
(dp3299
S'81102 - PM10'
p3300
(dp3301
g32
(lp3302
g926
asg1218
g7
((lp3303
S'BETN073'
p3304
atRp3305
sssS'6921'
p3306
(dp3307
S'89101 - PM1'
p3308
(dp3309
g32
(lp3310
S'89101 - PM1_._6921'
p3311
asg1218
g7
((ltRp3312
sssS'6920'
p3313
(dp3314
S'81104 - PM2.5'
p3315
(dp3316
g32
(lp3317
g912
asg1218
g7
((lp3318
S'BETN070'
p3319
atRp3320
sssS'6923'
p3321
(dp3322
S'42601 - NO'
p3323
(dp3324
g32
(lp3325
g927
asg1218
g7
((lp3326
S'BETN073'
p3327
atRp3328
sssS'6284'
p3329
(dp3330
S'45202 - C6H5-CH3'
p3331
(dp3332
g32
(lp3333
S'45202 - C6H5-CH3_._6284'
p3334
asg1218
g7
((ltRp3335
sssS'6285'
p3336
(dp3337
S'45203 - C6H5-C2H5'
p3338
(dp3339
g32
(lp3340
S'45203 - C6H5-C2H5_._6285'
p3341
asg1218
g7
((ltRp3342
sssS'6286'
p3343
(dp3344
S'45204 - o-C6H4-(CH3)2'
p3345
(dp3346
g32
(lp3347
S'45204 - o-C6H4-(CH3)2_._6286'
p3348
asg1218
g7
((ltRp3349
sssS'6280'
p3350
(dp3351
S'42601 - NO'
p3352
(dp3353
g32
(lp3354
g889
asg1218
g7
((lp3355
S'BELLD02'
p3356
atRp3357
sssS'6281'
p3358
(dp3359
S'42602 - NO2'
p3360
(dp3361
g32
(lp3362
g890
asg1218
g7
((lp3363
S'BELLD02'
p3364
atRp3365
sssS'6282'
p3366
(dp3367
S'45109 - m,p-C6H4(CH3)2'
p3368
(dp3369
g32
(lp3370
S'45109 - m,p-C6H4(CH3)2_._6282'
p3371
asg1218
g7
((ltRp3372
sssS'6283'
p3373
(dp3374
S'45201 - C6H6'
p3375
(dp3376
g32
(lp3377
g891
asg1218
g7
((lp3378
S'BELLD02'
p3379
atRp3380
sssS'6368'
p3381
(dp3382
S'81102 - PM10'
p3383
(dp3384
g32
(lp3385
g1202
asg1218
g7
((lp3386
S'BELSZ02'
p3387
atRp3388
sssS'6361'
p3389
(dp3390
S'42602 - NO2'
p3391
(dp3392
g32
(lp3393
g1203
asg1218
g7
((lp3394
S'BELSZ02'
p3395
atRp3396
sssS'6360'
p3397
(dp3398
S'42601 - NO'
p3399
(dp3400
g32
(lp3401
g1204
asg1218
g7
((lp3402
S'BELSZ02'
p3403
atRp3404
sssS'7218'
p3405
(dp3406
S'42601 - NO'
p3407
(dp3408
g32
(lp3409
S'42601 - NO_._7218'
p3410
asg1218
g7
((ltRp3411
sssS'7219'
p3412
(dp3413
S'42602 - NO2'
p3414
(dp3415
g32
(lp3416
S'42602 - NO2_._7219'
p3417
asg1218
g7
((ltRp3418
sssS'6407'
p3419
(dp3420
S'42401 - SO2'
p3421
(dp3422
g32
(lp3423
g261
asg1218
g7
((lp3424
S'BETTS21'
p3425
atRp3426
sssS'7210'
p3427
(dp3428
S'42602 - NO2'
p3429
(dp3430
g32
(lp3431
g1029
asg1218
g7
((lp3432
S'BETE804'
p3433
atRp3434
sssS'7217'
p3435
(dp3436
S'42401 - SO2'
p3437
(dp3438
g32
(lp3439
S'42401 - SO2_._7217'
p3440
asg1218
g7
((ltRp3441
sssS'6217'
p3442
(dp3443
S'42602 - NO2'
p3444
(dp3445
g32
(lp3446
g715
asg1218
g7
((lp3447
S'BELHB23'
p3448
atRp3449
sssS'6216'
p3450
(dp3451
S'42601 - NO'
p3452
(dp3453
g32
(lp3454
g716
asg1218
g7
((lp3455
S'BELHB23'
p3456
atRp3457
sssS'6215'
p3458
(dp3459
S'42401 - SO2'
p3460
(dp3461
g32
(lp3462
g717
asg1218
g7
((lp3463
S'BELHB23'
p3464
atRp3465
sssS'6218'
p3466
(dp3467
S'81102 - PM10'
p3468
(dp3469
g32
(lp3470
g718
asg1218
g7
((lp3471
S'BELHB23'
p3472
atRp3473
sssS'6813'
p3474
(dp3475
S'42601 - NO'
p3476
(dp3477
g32
(lp3478
g1182
asg1218
g7
((lp3479
S'BETR821'
p3480
atRp3481
sssS'6812'
p3482
(dp3483
S'42401 - SO2'
p3484
(dp3485
g32
(lp3486
g1183
asg1218
g7
((lp3487
S'BETR821'
p3488
atRp3489
sssS'6815'
p3490
(dp3491
S'42401 - SO2'
p3492
(dp3493
g32
(lp3494
g1164
asg1218
g7
((lp3495
S'BETR822'
p3496
atRp3497
sssS'6814'
p3498
(dp3499
S'42602 - NO2'
p3500
(dp3501
g32
(lp3502
g1184
asg1218
g7
((lp3503
S'BETR821'
p3504
atRp3505
sssS'6817'
p3506
(dp3507
S'42602 - NO2'
p3508
(dp3509
g32
(lp3510
g1165
asg1218
g7
((lp3511
S'BETR822'
p3512
atRp3513
sssS'6816'
p3514
(dp3515
S'42601 - NO'
p3516
(dp3517
g32
(lp3518
g1166
asg1218
g7
((lp3519
S'BETR822'
p3520
atRp3521
sssS'6744'
p3522
(dp3523
S'44201 - O3'
p3524
(dp3525
g32
(lp3526
g826
asg1218
g7
((lp3527
S'BETN046'
p3528
atRp3529
sssS'6747'
p3530
(dp3531
S'42602 - NO2'
p3532
(dp3533
g32
(lp3534
g704
asg1218
g7
((lp3535
S'BETN054'
p3536
atRp3537
sssS'6746'
p3538
(dp3539
S'42601 - NO'
p3540
(dp3541
g32
(lp3542
g705
asg1218
g7
((lp3543
S'BETN054'
p3544
atRp3545
sssS'6740'
p3546
(dp3547
S'81104 - PM2.5'
p3548
(dp3549
g32
(lp3550
g815
asg1218
g7
((lp3551
S'BETN045'
p3552
atRp3553
sssS'6743'
p3554
(dp3555
S'42602 - NO2'
p3556
(dp3557
g32
(lp3558
g827
asg1218
g7
((lp3559
S'BETN046'
p3560
atRp3561
sssS'6742'
p3562
(dp3563
S'42601 - NO'
p3564
(dp3565
g32
(lp3566
g828
asg1218
g7
((lp3567
S'BETN046'
p3568
atRp3569
sssS'6626'
p3570
(dp3571
S'81102 - PM10'
p3572
(dp3573
g32
(lp3574
g370
asg1218
g7
((lp3575
S'BETR012'
p3576
atRp3577
sssS'6627'
p3578
(dp3579
S'81104 - PM2.5'
p3580
(dp3581
g32
(lp3582
g371
asg1218
g7
((lp3583
S'BETR012'
p3584
atRp3585
sssS'6625'
p3586
(dp3587
S'44201 - O3'
p3588
(dp3589
g32
(lp3590
g372
asg1218
g7
((lp3591
S'BETR012'
p3592
atRp3593
sssS'6749'
p3594
(dp3595
S'81102 - PM10'
p3596
(dp3597
g32
(lp3598
g706
asg1218
g7
((lp3599
S'BETN054'
p3600
atRp3601
sssS'6748'
p3602
(dp3603
S'44201 - O3'
p3604
(dp3605
g32
(lp3606
g707
asg1218
g7
((lp3607
S'BETN054'
p3608
atRp3609
sssS'6620'
p3610
(dp3611
S'42401 - SO2'
p3612
(dp3613
g32
(lp3614
g373
asg1218
g7
((lp3615
S'BETR012'
p3616
atRp3617
sssS'6621'
p3618
(dp3619
S'42601 - NO'
p3620
(dp3621
g32
(lp3622
g374
asg1218
g7
((lp3623
S'BETR012'
p3624
atRp3625
sssS'7120'
p3626
(dp3627
S'42401 - SO2'
p3628
(dp3629
g32
(lp3630
g58
asg1218
g7
((lp3631
S'BETR750'
p3632
atRp3633
sssS'7103'
p3634
(dp3635
S'42401 - SO2'
p3636
(dp3637
g32
(lp3638
g934
asg1218
g7
((lp3639
S'BETR731'
p3640
atRp3641
sssS'6868'
p3642
(dp3643
S'42401 - SO2'
p3644
(dp3645
g32
(lp3646
g595
asg1218
g7
((lp3647
S'BETR894'
p3648
atRp3649
sssS'6869'
p3650
(dp3651
S'42601 - NO'
p3652
(dp3653
g32
(lp3654
g596
asg1218
g7
((lp3655
S'BETR894'
p3656
atRp3657
sssS'7106'
p3658
(dp3659
S'81102 - PM10'
p3660
(dp3661
g32
(lp3662
g935
asg1218
g7
((lp3663
S'BETR731'
p3664
atRp3665
sssS'7107'
p3666
(dp3667
S'81104 - PM2.5'
p3668
(dp3669
g32
(lp3670
g936
asg1218
g7
((lp3671
S'BETR731'
p3672
atRp3673
sssS'6864'
p3674
(dp3675
S'42401 - SO2'
p3676
(dp3677
g32
(lp3678
g559
asg1218
g7
((lp3679
S'BETR893'
p3680
atRp3681
sssS'6865'
p3682
(dp3683
S'42601 - NO'
p3684
(dp3685
g32
(lp3686
g560
asg1218
g7
((lp3687
S'BETR893'
p3688
atRp3689
sssS'6866'
p3690
(dp3691
S'42602 - NO2'
p3692
(dp3693
g32
(lp3694
g561
asg1218
g7
((lp3695
S'BETR893'
p3696
atRp3697
sssS'6860'
p3698
(dp3699
S'42401 - SO2'
p3700
(dp3701
g32
(lp3702
g568
asg1218
g7
((lp3703
S'BETR892'
p3704
atRp3705
sssS'6861'
p3706
(dp3707
S'42601 - NO'
p3708
(dp3709
g32
(lp3710
g569
asg1218
g7
((lp3711
S'BETR892'
p3712
atRp3713
sssS'6862'
p3714
(dp3715
S'42602 - NO2'
p3716
(dp3717
g32
(lp3718
g570
asg1218
g7
((lp3719
S'BETR892'
p3720
atRp3721
sssS'7069'
p3722
(dp3723
S'81102 - PM10'
p3724
(dp3725
g32
(lp3726
g651
asg1218
g7
((lp3727
S'BETN052'
p3728
atRp3729
sssS'7068'
p3730
(dp3731
S'44201 - O3'
p3732
(dp3733
g32
(lp3734
g652
asg1218
g7
((lp3735
S'BETN052'
p3736
atRp3737
sssS'7067'
p3738
(dp3739
S'42602 - NO2'
p3740
(dp3741
g32
(lp3742
g653
asg1218
g7
((lp3743
S'BETN052'
p3744
atRp3745
sssS'7066'
p3746
(dp3747
S'42601 - NO'
p3748
(dp3749
g32
(lp3750
g654
asg1218
g7
((lp3751
S'BETN052'
p3752
atRp3753
sssS'7065'
p3754
(dp3755
S'42401 - SO2'
p3756
(dp3757
g32
(lp3758
g655
asg1218
g7
((lp3759
S'BETN052'
p3760
atRp3761
sssS'7064'
p3762
(dp3763
S'44201 - O3'
p3764
(dp3765
g32
(lp3766
g662
asg1218
g7
((lp3767
S'BETN051'
p3768
atRp3769
sssS'7063'
p3770
(dp3771
S'42602 - NO2'
p3772
(dp3773
g32
(lp3774
g663
asg1218
g7
((lp3775
S'BETN051'
p3776
atRp3777
sssS'7062'
p3778
(dp3779
S'42601 - NO'
p3780
(dp3781
g32
(lp3782
g664
asg1218
g7
((lp3783
S'BETN051'
p3784
atRp3785
sssS'6961'
p3786
(dp3787
S'42602 - NO2'
p3788
(dp3789
g32
(lp3790
g293
asg1218
g7
((lp3791
S'BETN121'
p3792
atRp3793
sssS'6960'
p3794
(dp3795
S'42601 - NO'
p3796
(dp3797
g32
(lp3798
g294
asg1218
g7
((lp3799
S'BETN121'
p3800
atRp3801
sssS'6963'
p3802
(dp3803
S'81102 - PM10'
p3804
(dp3805
g32
(lp3806
g295
asg1218
g7
((lp3807
S'BETN121'
p3808
atRp3809
sssS'6962'
p3810
(dp3811
S'44201 - O3'
p3812
(dp3813
g32
(lp3814
g296
asg1218
g7
((lp3815
S'BETN121'
p3816
atRp3817
sssS'6965'
p3818
(dp3819
S'42101 - CO'
p3820
(dp3821
g32
(lp3822
g414
asg1218
g7
((lp3823
S'BETN132'
p3824
atRp3825
sssS'6964'
p3826
(dp3827
S'81104 - PM2.5'
p3828
(dp3829
g32
(lp3830
g297
asg1218
g7
((lp3831
S'BETN121'
p3832
atRp3833
sssS'6967'
p3834
(dp3835
S'42601 - NO'
p3836
(dp3837
g32
(lp3838
g415
asg1218
g7
((lp3839
S'BETN132'
p3840
atRp3841
sssS'6966'
p3842
(dp3843
S'42401 - SO2'
p3844
(dp3845
g32
(lp3846
g416
asg1218
g7
((lp3847
S'BETN132'
p3848
atRp3849
sssS'6969'
p3850
(dp3851
S'44201 - O3'
p3852
(dp3853
g32
(lp3854
g417
asg1218
g7
((lp3855
S'BETN132'
p3856
atRp3857
sssS'6968'
p3858
(dp3859
S'42602 - NO2'
p3860
(dp3861
g32
(lp3862
g418
asg1218
g7
((lp3863
S'BETN132'
p3864
atRp3865
sssS'7193'
p3866
(dp3867
S'42401 - SO2'
p3868
(dp3869
g32
(lp3870
g244
asg1218
g7
((lp3871
S'BETE703'
p3872
atRp3873
sssS'7192'
p3874
(dp3875
S'42602 - NO2'
p3876
(dp3877
g32
(lp3878
g236
asg1218
g7
((lp3879
S'BETE702'
p3880
atRp3881
sssS'7191'
p3882
(dp3883
S'42601 - NO'
p3884
(dp3885
g32
(lp3886
g237
asg1218
g7
((lp3887
S'BETE702'
p3888
atRp3889
sssS'7195'
p3890
(dp3891
S'42602 - NO2'
p3892
(dp3893
g32
(lp3894
g245
asg1218
g7
((lp3895
S'BETE703'
p3896
atRp3897
sssS'7194'
p3898
(dp3899
S'42601 - NO'
p3900
(dp3901
g32
(lp3902
g246
asg1218
g7
((lp3903
S'BETE703'
p3904
atRp3905
sssS'99926'
p3906
(dp3907
S'62101 - TT'
p3908
(dp3909
g32
(lp3910
S'62101 - TT_._99926'
p3911
asg1218
g7
((ltRp3912
sssS'6914'
p3913
(dp3914
S'42101 - CO'
p3915
(dp3916
g32
(lp3917
g913
asg1218
g7
((lp3918
S'BETN070'
p3919
atRp3920
sssS'6915'
p3921
(dp3922
S'42401 - SO2'
p3923
(dp3924
g32
(lp3925
g914
asg1218
g7
((lp3926
S'BETN070'
p3927
atRp3928
sssS'10688'
p3929
(dp3930
S'42601 - NO'
p3931
(dp3932
g32
(lp3933
g1043
asg1218
g7
((lp3934
S'BELR833'
p3935
atRp3936
sssS'10689'
p3937
(dp3938
S'42602 - NO2'
p3939
(dp3940
g32
(lp3941
g1044
asg1218
g7
((lp3942
S'BELR833'
p3943
atRp3944
sssS'6910'
p3945
(dp3946
S'89101 - PM1'
p3947
(dp3948
g32
(lp3949
S'89101 - PM1_._6910'
p3950
asg1218
g7
((ltRp3951
sssS'6911'
p3952
(dp3953
S'81102 - PM10'
p3954
(dp3955
g32
(lp3956
g1097
asg1218
g7
((lp3957
S'BETN067'
p3958
atRp3959
sssS'6912'
p3960
(dp3961
S'81104 - PM2.5'
p3962
(dp3963
g32
(lp3964
g1098
asg1218
g7
((lp3965
S'BETN067'
p3966
atRp3967
sssS'6913'
p3968
(dp3969
S'89101 - PM1'
p3970
(dp3971
g32
(lp3972
g1099
asg1218
g7
((lp3973
S'BETN067'
p3974
atRp3975
sssS'6918'
p3976
(dp3977
S'44201 - O3'
p3978
(dp3979
g32
(lp3980
g915
asg1218
g7
((lp3981
S'BETN070'
p3982
atRp3983
sssS'6919'
p3984
(dp3985
S'81102 - PM10'
p3986
(dp3987
g32
(lp3988
g916
asg1218
g7
((lp3989
S'BETN070'
p3990
atRp3991
sssS'7221'
p3992
(dp3993
S'42601 - NO'
p3994
(dp3995
g32
(lp3996
S'42601 - NO_._7221'
p3997
asg1218
g7
((ltRp3998
sssS'6569'
p3999
(dp4000
S'16111 - Black Carbon'
p4001
(dp4002
g32
(lp4003
g540
asg1218
g7
((lp4004
S'BETR001'
p4005
atRp4006
sssS'99939'
p4007
(dp4008
S'61102 - DD'
p4009
(dp4010
g32
(lp4011
g375
asg1218
g7
((lp4012
S'BETR012'
p4013
atRp4014
sssS'7220'
p4015
(dp4016
S'42401 - SO2'
p4017
(dp4018
g32
(lp4019
S'42401 - SO2_._7220'
p4020
asg1218
g7
((ltRp4021
sssS'6564'
p4022
(dp4023
S'81104 - PM2.5'
p4024
(dp4025
g32
(lp4026
g799
asg1218
g7
((lp4027
S'BETN043'
p4028
atRp4029
sssS'99938'
p4030
(dp4031
S'62101 - TT'
p4032
(dp4033
g32
(lp4034
S'62101 - TT_._99938'
p4035
asg1218
g7
((ltRp4036
sssS'6561'
p4037
(dp4038
S'42602 - NO2'
p4039
(dp4040
g32
(lp4041
g800
asg1218
g7
((lp4042
S'BETN043'
p4043
atRp4044
sssS'6560'
p4045
(dp4046
S'42601 - NO'
p4047
(dp4048
g32
(lp4049
g801
asg1218
g7
((lp4050
S'BETN043'
p4051
atRp4052
sssS'6563'
p4053
(dp4054
S'81102 - PM10'
p4055
(dp4056
g32
(lp4057
g802
asg1218
g7
((lp4058
S'BETN043'
p4059
atRp4060
sssS'6562'
p4061
(dp4062
S'44201 - O3'
p4063
(dp4064
g32
(lp4065
g803
asg1218
g7
((lp4066
S'BETN043'
p4067
atRp4068
sssS'10611'
p4069
(dp4070
S'42602 - NO2'
p4071
(dp4072
g32
(lp4073
g948
asg1218
g7
((lp4074
S'BETR834'
p4075
atRp4076
sssS'10610'
p4077
(dp4078
S'81102 - PM10'
p4079
(dp4080
g32
(lp4081
g949
asg1218
g7
((lp4082
S'BETR834'
p4083
atRp4084
sssS'10613'
p4085
(dp4086
S'42601 - NO'
p4087
(dp4088
g32
(lp4089
g1129
asg1218
g7
((lp4090
S'BETB008'
p4091
atRp4092
sssS'10612'
p4093
(dp4094
S'42601 - NO'
p4095
(dp4096
g32
(lp4097
g950
asg1218
g7
((lp4098
S'BETR834'
p4099
atRp4100
sssS'10615'
p4101
(dp4102
S'42401 - SO2'
p4103
(dp4104
g32
(lp4105
g1130
asg1218
g7
((lp4106
S'BETB008'
p4107
atRp4108
sssS'10614'
p4109
(dp4110
S'42602 - NO2'
p4111
(dp4112
g32
(lp4113
g1131
asg1218
g7
((lp4114
S'BETB008'
p4115
atRp4116
sssS'10616'
p4117
(dp4118
S'42101 - CO'
p4119
(dp4120
g32
(lp4121
g1132
asg1218
g7
((lp4122
S'BETB008'
p4123
atRp4124
sssS'10750'
p4125
(dp4126
S'42601 - NO'
p4127
(dp4128
g32
(lp4129
g253
asg1218
g7
((lp4130
S'BETE704'
p4131
atRp4132
sssS'10751'
p4133
(dp4134
S'42602 - NO2'
p4135
(dp4136
g32
(lp4137
g254
asg1218
g7
((lp4138
S'BETE704'
p4139
atRp4140
sssS'99935'
p4141
(dp4142
S'62101 - TT'
p4143
(dp4144
g32
(lp4145
g1019
asg1218
g7
((lp4146
S'BETR223'
p4147
atRp4148
sssS'7115'
p4149
(dp4150
S'44201 - O3'
p4151
(dp4152
g32
(lp4153
g401
asg1218
g7
((lp4154
S'BETR740'
p4155
atRp4156
sssS'6709'
p4157
(dp4158
S'42601 - NO'
p4159
(dp4160
g32
(lp4161
g444
asg1218
g7
((lp4162
S'BETN027'
p4163
atRp4164
sssS'7229'
p4165
(dp4166
S'42401 - SO2'
p4167
(dp4168
g32
(lp4169
g1120
asg1218
g7
((lp4170
S'BETE811'
p4171
atRp4172
sssS'99931'
p4173
(dp4174
S'61110 - WSP-SCA'
p4175
(dp4176
g32
(lp4177
S'61110 - WSP-SCA_._99931'
p4178
asg1218
g7
((ltRp4179
sssS'7228'
p4180
(dp4181
S'42602 - NO2'
p4182
(dp4183
g32
(lp4184
S'42602 - NO2_._7228'
p4185
asg1218
g7
((ltRp4186
sssS'6701'
p4187
(dp4188
S'42601 - NO'
p4189
(dp4190
g32
(lp4191
g152
asg1218
g7
((lp4192
S'BETN016'
p4193
atRp4194
sssS'6700'
p4195
(dp4196
S'42401 - SO2'
p4197
(dp4198
g32
(lp4199
g153
asg1218
g7
((lp4200
S'BETN016'
p4201
atRp4202
sssS'6703'
p4203
(dp4204
S'44201 - O3'
p4205
(dp4206
g32
(lp4207
g154
asg1218
g7
((lp4208
S'BETN016'
p4209
atRp4210
sssS'6702'
p4211
(dp4212
S'42602 - NO2'
p4213
(dp4214
g32
(lp4215
g155
asg1218
g7
((lp4216
S'BETN016'
p4217
atRp4218
sssS'6704'
p4219
(dp4220
S'81102 - PM10'
p4221
(dp4222
g32
(lp4223
g156
asg1218
g7
((lp4224
S'BETN016'
p4225
atRp4226
sssS'6824'
p4227
(dp4228
S'42401 - SO2'
p4229
(dp4230
g32
(lp4231
g978
asg1218
g7
((lp4232
S'BETR830'
p4233
atRp4234
sssS'6825'
p4235
(dp4236
S'42601 - NO'
p4237
(dp4238
g32
(lp4239
g979
asg1218
g7
((lp4240
S'BETR830'
p4241
atRp4242
sssS'6826'
p4243
(dp4244
S'42602 - NO2'
p4245
(dp4246
g32
(lp4247
g980
asg1218
g7
((lp4248
S'BETR830'
p4249
atRp4250
sssS'6828'
p4251
(dp4252
S'42401 - SO2'
p4253
(dp4254
g32
(lp4255
g967
asg1218
g7
((lp4256
S'BETR831'
p4257
atRp4258
sssS'6829'
p4259
(dp4260
S'42601 - NO'
p4261
(dp4262
g32
(lp4263
g968
asg1218
g7
((lp4264
S'BETR831'
p4265
atRp4266
sssS'6675'
p4267
(dp4268
S'45204 - o-C6H4-(CH3)2'
p4269
(dp4270
g32
(lp4271
S'45204 - o-C6H4-(CH3)2_._6675'
p4272
asg1218
g7
((ltRp4273
sssS'6674'
p4274
(dp4275
S'45203 - C6H5-C2H5'
p4276
(dp4277
g32
(lp4278
S'45203 - C6H5-C2H5_._6674'
p4279
asg1218
g7
((ltRp4280
sssS'7021'
p4281
(dp4282
S'81102 - PM10'
p4283
(dp4284
g32
(lp4285
g692
asg1218
g7
((lp4286
S'BETR240'
p4287
atRp4288
sssS'7020'
p4289
(dp4290
S'44201 - O3'
p4291
(dp4292
g32
(lp4293
g693
asg1218
g7
((lp4294
S'BETR240'
p4295
atRp4296
sssS'6671'
p4297
(dp4298
S'45109 - m,p-C6H4(CH3)2'
p4299
(dp4300
g32
(lp4301
S'45109 - m,p-C6H4(CH3)2_._6671'
p4302
asg1218
g7
((ltRp4303
sssS'7026'
p4304
(dp4305
S'42602 - NO2'
p4306
(dp4307
g32
(lp4308
g451
asg1218
g7
((lp4309
S'BETM702'
p4310
atRp4311
sssS'6673'
p4312
(dp4313
S'45202 - C6H5-CH3'
p4314
(dp4315
g32
(lp4316
S'45202 - C6H5-CH3_._6673'
p4317
asg1218
g7
((ltRp4318
sssS'6672'
p4319
(dp4320
S'45201 - C6H6'
p4321
(dp4322
g32
(lp4323
S'45201 - C6H6_._6672'
p4324
asg1218
g7
((ltRp4325
sssS'7029'
p4326
(dp4327
S'16111 - Black Carbon'
p4328
(dp4329
g32
(lp4330
g730
asg1218
g7
((lp4331
S'BETM705'
p4332
atRp4333
sssS'7023'
p4334
(dp4335
S'89101 - PM1'
p4336
(dp4337
g32
(lp4338
S'89101 - PM1_._7023'
p4339
asg1218
g7
((ltRp4340
sssS'6778'
p4341
(dp4342
S'44201 - O3'
p4343
(dp4344
g32
(lp4345
g495
asg1218
g7
((lp4346
S'BETR801'
p4347
atRp4348
sssS'6779'
p4349
(dp4350
S'45109 - m,p-C6H4(CH3)2'
p4351
(dp4352
g32
(lp4353
S'45109 - m,p-C6H4(CH3)2_._6779'
p4354
asg1218
g7
((ltRp4355
sssS'7022'
p4356
(dp4357
S'81104 - PM2.5'
p4358
(dp4359
g32
(lp4360
g694
asg1218
g7
((lp4361
S'BETR240'
p4362
atRp4363
sssS'6774'
p4364
(dp4365
S'42401 - SO2'
p4366
(dp4367
g32
(lp4368
g496
asg1218
g7
((lp4369
S'BETR801'
p4370
atRp4371
sssS'6775'
p4372
(dp4373
S'42601 - NO'
p4374
(dp4375
g32
(lp4376
g497
asg1218
g7
((lp4377
S'BETR801'
p4378
atRp4379
sssS'6776'
p4380
(dp4381
S'42602 - NO2'
p4382
(dp4383
g32
(lp4384
g498
asg1218
g7
((lp4385
S'BETR801'
p4386
atRp4387
sssS'6771'
p4388
(dp4389
S'81102 - PM10'
p4390
(dp4391
g32
(lp4392
g867
asg1218
g7
((lp4393
S'BETR020'
p4394
atRp4395
sssS'6773'
p4396
(dp4397
S'42101 - CO'
p4398
(dp4399
g32
(lp4400
g499
asg1218
g7
((lp4401
S'BETR801'
p4402
atRp4403
sssS'7025'
p4404
(dp4405
S'42601 - NO'
p4406
(dp4407
g32
(lp4408
g452
asg1218
g7
((lp4409
S'BETM702'
p4410
atRp4411
sssS'7054'
p4412
(dp4413
S'81102 - PM10'
p4414
(dp4415
g32
(lp4416
g429
asg1218
g7
((lp4417
S'BETN029'
p4418
atRp4419
sssS'7055'
p4420
(dp4421
S'81104 - PM2.5'
p4422
(dp4423
g32
(lp4424
g430
asg1218
g7
((lp4425
S'BETN029'
p4426
atRp4427
sssS'7096'
p4428
(dp4429
S'42601 - NO'
p4430
(dp4431
g32
(lp4432
g195
asg1218
g7
((lp4433
S'BETR721'
p4434
atRp4435
sssS'7097'
p4436
(dp4437
S'42602 - NO2'
p4438
(dp4439
g32
(lp4440
g196
asg1218
g7
((lp4441
S'BETR721'
p4442
atRp4443
sssS'99900'
p4444
(dp4445
S'61102 - DD'
p4446
(dp4447
g32
(lp4448
g431
asg1218
g7
((lp4449
S'BETN029'
p4450
atRp4451
sssS'7095'
p4452
(dp4453
S'42401 - SO2'
p4454
(dp4455
g32
(lp4456
g197
asg1218
g7
((lp4457
S'BETR721'
p4458
atRp4459
sssS'7092'
p4460
(dp4461
S'81102 - PM10'
p4462
(dp4463
g32
(lp4464
g672
asg1218
g7
((lp4465
S'BETR710'
p4466
atRp4467
sssS'99907'
p4468
(dp4469
S'61110 - WSP-SCA'
p4470
(dp4471
g32
(lp4472
g464
asg1218
g7
((lp4473
S'BETR701'
p4474
atRp4475
sssS'7090'
p4476
(dp4477
S'42602 - NO2'
p4478
(dp4479
g32
(lp4480
g673
asg1218
g7
((lp4481
S'BETR710'
p4482
atRp4483
sssS'7091'
p4484
(dp4485
S'44201 - O3'
p4486
(dp4487
g32
(lp4488
g674
asg1218
g7
((lp4489
S'BETR710'
p4490
atRp4491
sssS'7157'
p4492
(dp4493
S'42101 - CO'
p4494
(dp4495
g32
(lp4496
g92
asg1218
g7
((lp4497
S'BETR512'
p4498
atRp4499
sssS'7155'
p4500
(dp4501
S'16111 - Black Carbon'
p4502
(dp4503
g32
(lp4504
g93
asg1218
g7
((lp4505
S'BETR512'
p4506
atRp4507
sssS'99909'
p4508
(dp4509
S'61102 - DD'
p4510
(dp4511
g32
(lp4512
g480
asg1218
g7
((lp4513
S'BETM802'
p4514
atRp4515
sssS'7153'
p4516
(dp4517
S'89101 - PM1'
p4518
(dp4519
g32
(lp4520
S'89101 - PM1_._7153'
p4521
asg1218
g7
((ltRp4522
sssS'7152'
p4523
(dp4524
S'81104 - PM2.5'
p4525
(dp4526
g32
(lp4527
g114
asg1218
g7
((lp4528
S'BETR511'
p4529
atRp4530
sssS'7151'
p4531
(dp4532
S'81102 - PM10'
p4533
(dp4534
g32
(lp4535
g115
asg1218
g7
((lp4536
S'BETR511'
p4537
atRp4538
sssS'6688'
p4539
(dp4540
S'42401 - SO2'
p4541
(dp4542
g32
(lp4543
g481
asg1218
g7
((lp4544
S'BETM802'
p4545
atRp4546
sssS'6689'
p4547
(dp4548
S'42601 - NO'
p4549
(dp4550
g32
(lp4551
g482
asg1218
g7
((lp4552
S'BETM802'
p4553
atRp4554
sssS'6687'
p4555
(dp4556
S'16111 - Black Carbon'
p4557
(dp4558
g32
(lp4559
g483
asg1218
g7
((lp4560
S'BETM802'
p4561
atRp4562
sssS'99905'
p4563
(dp4564
S'62101 - TT'
p4565
(dp4566
g32
(lp4567
g731
asg1218
g7
((lp4568
S'BETM705'
p4569
atRp4570
sssS'6509'
p4571
(dp4572
S'44201 - O3'
p4573
(dp4574
g32
(lp4575
g753
asg1218
g7
((lp4576
S'BETB004'
p4577
atRp4578
sssS'6521'
p4579
(dp4580
S'45203 - C6H5-C2H5'
p4581
(dp4582
g32
(lp4583
g1106
asg1218
g7
((lp4584
S'BETB006'
p4585
atRp4586
sssS'6520'
p4587
(dp4588
S'45202 - C6H5-CH3'
p4589
(dp4590
g32
(lp4591
g1107
asg1218
g7
((lp4592
S'BETB006'
p4593
atRp4594
sssS'6488'
p4595
(dp4596
S'45202 - C6H5-CH3'
p4597
(dp4598
g32
(lp4599
S'45202 - C6H5-CH3_._6488'
p4600
asg1218
g7
((ltRp4601
sssS'6522'
p4602
(dp4603
S'45204 - o-C6H4-(CH3)2'
p4604
(dp4605
g32
(lp4606
g1108
asg1218
g7
((lp4607
S'BETB006'
p4608
atRp4609
sssS'6527'
p4610
(dp4611
S'42601 - NO'
p4612
(dp4613
g32
(lp4614
g901
asg1218
g7
((lp4615
S'BETB011'
p4616
atRp4617
sssS'6950'
p4618
(dp4619
S'81102 - PM10'
p4620
(dp4621
g32
(lp4622
g604
asg1218
g7
((lp4623
S'BETN100'
p4624
atRp4625
sssS'6528'
p4626
(dp4627
S'42602 - NO2'
p4628
(dp4629
g32
(lp4630
g902
asg1218
g7
((lp4631
S'BETB011'
p4632
atRp4633
sssS'6952'
p4634
(dp4635
S'89101 - PM1'
p4636
(dp4637
g32
(lp4638
S'89101 - PM1_._6952'
p4639
asg1218
g7
((ltRp4640
sssS'6486'
p4641
(dp4642
S'45109 - m,p-C6H4(CH3)2'
p4643
(dp4644
g32
(lp4645
S'45109 - m,p-C6H4(CH3)2_._6486'
p4646
asg1218
g7
((ltRp4647
sssS'6487'
p4648
(dp4649
S'45201 - C6H6'
p4650
(dp4651
g32
(lp4652
g348
asg1218
g7
((lp4653
S'BELZL01'
p4654
atRp4655
sssS'6956'
p4656
(dp4657
S'44201 - O3'
p4658
(dp4659
g32
(lp4660
g764
asg1218
g7
((lp4661
S'BETN113'
p4662
atRp4663
sssS'6957'
p4664
(dp4665
S'81102 - PM10'
p4666
(dp4667
g32
(lp4668
g765
asg1218
g7
((lp4669
S'BETN113'
p4670
atRp4671
sssS'6356'
p4672
(dp4673
S'81104 - PM2.5'
p4674
(dp4675
g32
(lp4676
g1191
asg1218
g7
((lp4677
S'BELSZ01'
p4678
atRp4679
sssS'6196'
p4680
(dp4681
S'81102 - PM10'
p4682
(dp4683
g32
(lp4684
g229
asg1218
g7
((lp4685
S'BELGK06'
p4686
atRp4687
sssS'6198'
p4688
(dp4689
S'42401 - SO2'
p4690
(dp4691
g32
(lp4692
g206
asg1218
g7
((lp4693
S'BELGK09'
p4694
atRp4695
sssS'6199'
p4696
(dp4697
S'42601 - NO'
p4698
(dp4699
g32
(lp4700
g207
asg1218
g7
((lp4701
S'BELGK09'
p4702
atRp4703
sssS'7148'
p4704
(dp4705
S'81102 - PM10'
p4706
(dp4707
g32
(lp4708
g107
asg1218
g7
((lp4709
S'BETR510'
p4710
atRp4711
sssS'6951'
p4712
(dp4713
S'81104 - PM2.5'
p4714
(dp4715
g32
(lp4716
g605
asg1218
g7
((lp4717
S'BETN100'
p4718
atRp4719
sssS'7209'
p4720
(dp4721
S'42601 - NO'
p4722
(dp4723
g32
(lp4724
g1030
asg1218
g7
((lp4725
S'BETE804'
p4726
atRp4727
sssS'7208'
p4728
(dp4729
S'42401 - SO2'
p4730
(dp4731
g32
(lp4732
S'42401 - SO2_._7208'
p4733
asg1218
g7
((ltRp4734
sssS'6550'
p4735
(dp4736
S'42601 - NO'
p4737
(dp4738
g32
(lp4739
g773
asg1218
g7
((lp4740
S'BETMEU1'
p4741
atRp4742
sssS'6551'
p4743
(dp4744
S'42602 - NO2'
p4745
(dp4746
g32
(lp4747
g774
asg1218
g7
((lp4748
S'BETMEU1'
p4749
atRp4750
sssS'6552'
p4751
(dp4752
S'81102 - PM10'
p4753
(dp4754
g32
(lp4755
g775
asg1218
g7
((lp4756
S'BETMEU1'
p4757
atRp4758
sssS'6553'
p4759
(dp4760
S'81104 - PM2.5'
p4761
(dp4762
g32
(lp4763
g776
asg1218
g7
((lp4764
S'BETMEU1'
p4765
atRp4766
sssS'7203'
p4767
(dp4768
S'42601 - NO'
p4769
(dp4770
g32
(lp4771
g68
asg1218
g7
((lp4772
S'BETE715'
p4773
atRp4774
sssS'6622'
p4775
(dp4776
S'42602 - NO2'
p4777
(dp4778
g32
(lp4779
g376
asg1218
g7
((lp4780
S'BETR012'
p4781
atRp4782
sssS'7201'
p4783
(dp4784
S'42602 - NO2'
p4785
(dp4786
g32
(lp4787
g76
asg1218
g7
((lp4788
S'BETE714'
p4789
atRp4790
sssS'7200'
p4791
(dp4792
S'42601 - NO'
p4793
(dp4794
g32
(lp4795
g77
asg1218
g7
((lp4796
S'BETE714'
p4797
atRp4798
sssS'6558'
p4799
(dp4800
S'42101 - CO'
p4801
(dp4802
g32
(lp4803
g804
asg1218
g7
((lp4804
S'BETN043'
p4805
atRp4806
sssS'6559'
p4807
(dp4808
S'42401 - SO2'
p4809
(dp4810
g32
(lp4811
g805
asg1218
g7
((lp4812
S'BETN043'
p4813
atRp4814
sssS'7204'
p4815
(dp4816
S'42602 - NO2'
p4817
(dp4818
g32
(lp4819
g69
asg1218
g7
((lp4820
S'BETE715'
p4821
atRp4822
sssS'7119'
p4823
(dp4824
S'42101 - CO'
p4825
(dp4826
g32
(lp4827
g59
asg1218
g7
((lp4828
S'BETR750'
p4829
atRp4830
sssS'6639'
p4831
(dp4832
S'42602 - NO2'
p4833
(dp4834
g32
(lp4835
g278
asg1218
g7
((lp4836
S'BETWOL1'
p4837
atRp4838
sssS'6731'
p4839
(dp4840
S'44201 - O3'
p4841
(dp4842
g32
(lp4843
g816
asg1218
g7
((lp4844
S'BETN045'
p4845
atRp4846
sssS'6732'
p4847
(dp4848
S'45109 - m,p-C6H4(CH3)2'
p4849
(dp4850
g32
(lp4851
S'45109 - m,p-C6H4(CH3)2_._6732'
p4852
asg1218
g7
((ltRp4853
sssS'6733'
p4854
(dp4855
S'45201 - C6H6'
p4856
(dp4857
g32
(lp4858
g817
asg1218
g7
((lp4859
S'BETN045'
p4860
atRp4861
sssS'6734'
p4862
(dp4863
S'45202 - C6H5-CH3'
p4864
(dp4865
g32
(lp4866
S'45202 - C6H5-CH3_._6734'
p4867
asg1218
g7
((ltRp4868
sssS'6735'
p4869
(dp4870
S'45203 - C6H5-C2H5'
p4871
(dp4872
g32
(lp4873
S'45203 - C6H5-C2H5_._6735'
p4874
asg1218
g7
((ltRp4875
sssS'6736'
p4876
(dp4877
S'45204 - o-C6H4-(CH3)2'
p4878
(dp4879
g32
(lp4880
S'45204 - o-C6H4-(CH3)2_._6736'
p4881
asg1218
g7
((ltRp4882
sssS'6739'
p4883
(dp4884
S'81102 - PM10'
p4885
(dp4886
g32
(lp4887
g818
asg1218
g7
((lp4888
S'BETN045'
p4889
atRp4890
sssS'6633'
p4891
(dp4892
S'16111 - Black Carbon'
p4893
(dp4894
g32
(lp4895
g279
asg1218
g7
((lp4896
S'BETWOL1'
p4897
atRp4898
sssS'6635'
p4899
(dp4900
S'42101 - CO'
p4901
(dp4902
g32
(lp4903
g280
asg1218
g7
((lp4904
S'BETWOL1'
p4905
atRp4906
sssS'6637'
p4907
(dp4908
S'42401 - SO2'
p4909
(dp4910
g32
(lp4911
g281
asg1218
g7
((lp4912
S'BETWOL1'
p4913
atRp4914
sssS'6636'
p4915
(dp4916
S'42102 - CO2'
p4917
(dp4918
g32
(lp4919
g282
asg1218
g7
((lp4920
S'BETWOL1'
p4921
atRp4922
sssS'7111'
p4923
(dp4924
S'42602 - NO2'
p4925
(dp4926
g32
(lp4927
g402
asg1218
g7
((lp4928
S'BETR740'
p4929
atRp4930
sssS'7110'
p4931
(dp4932
S'42601 - NO'
p4933
(dp4934
g32
(lp4935
g403
asg1218
g7
((lp4936
S'BETR740'
p4937
atRp4938
sssS'7117'
p4939
(dp4940
S'81102 - PM10'
p4941
(dp4942
g32
(lp4943
g404
asg1218
g7
((lp4944
S'BETR740'
p4945
atRp4946
sssS'6879'
p4947
(dp4948
S'42401 - SO2'
p4949
(dp4950
g32
(lp4951
g184
asg1218
g7
((lp4952
S'BETH201'
p4953
atRp4954
sssS'6875'
p4955
(dp4956
S'42602 - NO2'
p4957
(dp4958
g32
(lp4959
g586
asg1218
g7
((lp4960
S'BETR897'
p4961
atRp4962
sssS'6874'
p4963
(dp4964
S'42601 - NO'
p4965
(dp4966
g32
(lp4967
g587
asg1218
g7
((lp4968
S'BETR897'
p4969
atRp4970
sssS'6873'
p4971
(dp4972
S'42401 - SO2'
p4973
(dp4974
g32
(lp4975
g588
asg1218
g7
((lp4976
S'BETR897'
p4977
atRp4978
sssS'6870'
p4979
(dp4980
S'42602 - NO2'
p4981
(dp4982
g32
(lp4983
g597
asg1218
g7
((lp4984
S'BETR894'
p4985
atRp4986
sssS'7052'
p4987
(dp4988
S'45203 - C6H5-C2H5'
p4989
(dp4990
g32
(lp4991
S'45203 - C6H5-C2H5_._7052'
p4992
asg1218
g7
((ltRp4993
sssS'7053'
p4994
(dp4995
S'45204 - o-C6H4-(CH3)2'
p4996
(dp4997
g32
(lp4998
S'45204 - o-C6H4-(CH3)2_._7053'
p4999
asg1218
g7
((ltRp5000
sssS'7050'
p5001
(dp5002
S'45201 - C6H6'
p5003
(dp5004
g32
(lp5005
g432
asg1218
g7
((lp5006
S'BETN029'
p5007
atRp5008
sssS'7051'
p5009
(dp5010
S'45202 - C6H5-CH3'
p5011
(dp5012
g32
(lp5013
S'45202 - C6H5-CH3_._7051'
p5014
asg1218
g7
((ltRp5015
sssS'6642'
p5016
(dp5017
S'44201 - O3'
p5018
(dp5019
g32
(lp5020
g283
asg1218
g7
((lp5021
S'BETWOL1'
p5022
atRp5023
sssS'6643'
p5024
(dp5025
S'81102 - PM10'
p5026
(dp5027
g32
(lp5028
g284
asg1218
g7
((lp5029
S'BETWOL1'
p5030
atRp5031
sssS'7125'
p5032
(dp5033
S'81102 - PM10'
p5034
(dp5035
g32
(lp5036
g60
asg1218
g7
((lp5037
S'BETR750'
p5038
atRp5039
sssS'6998'
p5040
(dp5041
S'42602 - NO2'
p5042
(dp5043
g32
(lp5044
g1003
asg1218
g7
((lp5045
S'BETR222'
p5046
atRp5047
sssS'6999'
p5048
(dp5049
S'44201 - O3'
p5050
(dp5051
g32
(lp5052
g1004
asg1218
g7
((lp5053
S'BETR222'
p5054
atRp5055
sssS'6994'
p5056
(dp5057
S'81104 - PM2.5'
p5058
(dp5059
g32
(lp5060
g991
asg1218
g7
((lp5061
S'BETR221'
p5062
atRp5063
sssS'6995'
p5064
(dp5065
S'42101 - CO'
p5066
(dp5067
g32
(lp5068
g1005
asg1218
g7
((lp5069
S'BETR222'
p5070
atRp5071
sssS'6996'
p5072
(dp5073
S'42401 - SO2'
p5074
(dp5075
g32
(lp5076
g1006
asg1218
g7
((lp5077
S'BETR222'
p5078
atRp5079
sssS'6997'
p5080
(dp5081
S'42601 - NO'
p5082
(dp5083
g32
(lp5084
g1007
asg1218
g7
((lp5085
S'BETR222'
p5086
atRp5087
sssS'6990'
p5088
(dp5089
S'42401 - SO2'
p5090
(dp5091
g32
(lp5092
g992
asg1218
g7
((lp5093
S'BETR221'
p5094
atRp5095
sssS'6993'
p5096
(dp5097
S'81102 - PM10'
p5098
(dp5099
g32
(lp5100
g993
asg1218
g7
((lp5101
S'BETR221'
p5102
atRp5103
sssS'6392'
p5104
(dp5105
S'45201 - C6H6'
p5106
(dp5107
g32
(lp5108
S'45201 - C6H6_._6392'
p5109
asg1218
g7
((ltRp5110
sssS'6393'
p5111
(dp5112
S'45202 - C6H5-CH3'
p5113
(dp5114
g32
(lp5115
S'45202 - C6H5-CH3_._6393'
p5116
asg1218
g7
((ltRp5117
sssS'6391'
p5118
(dp5119
S'45109 - m,p-C6H4(CH3)2'
p5120
(dp5121
g32
(lp5122
S'45109 - m,p-C6H4(CH3)2_._6391'
p5123
asg1218
g7
((ltRp5124
sssS'6394'
p5125
(dp5126
S'45203 - C6H5-C2H5'
p5127
(dp5128
g32
(lp5129
S'45203 - C6H5-C2H5_._6394'
p5130
asg1218
g7
((ltRp5131
sssS'6395'
p5132
(dp5133
S'45204 - o-C6H4-(CH3)2'
p5134
(dp5135
g32
(lp5136
S'45204 - o-C6H4-(CH3)2_._6395'
p5137
asg1218
g7
((ltRp5138
sssS'10739'
p5139
(dp5140
S'42101 - CO'
p5141
(dp5142
g32
(lp5143
g510
asg1218
g7
((lp5144
S'BETR802'
p5145
atRp5146
sssS'6907'
p5147
(dp5148
S'44201 - O3'
p5149
(dp5150
g32
(lp5151
g1087
asg1218
g7
((lp5152
S'BETN066'
p5153
atRp5154
sssS'6906'
p5155
(dp5156
S'42602 - NO2'
p5157
(dp5158
g32
(lp5159
g1088
asg1218
g7
((lp5160
S'BETN066'
p5161
atRp5162
sssS'6905'
p5163
(dp5164
S'42601 - NO'
p5165
(dp5166
g32
(lp5167
g1089
asg1218
g7
((lp5168
S'BETN066'
p5169
atRp5170
sssS'6904'
p5171
(dp5172
S'42401 - SO2'
p5173
(dp5174
g32
(lp5175
g1090
asg1218
g7
((lp5176
S'BETN066'
p5177
atRp5178
sssS'6902'
p5179
(dp5180
S'89101 - PM1'
p5181
(dp5182
g32
(lp5183
S'89101 - PM1_._6902'
p5184
asg1218
g7
((ltRp5185
sssS'6901'
p5186
(dp5187
S'81104 - PM2.5'
p5188
(dp5189
g32
(lp5190
g1064
asg1218
g7
((lp5191
S'BETN063'
p5192
atRp5193
sssS'6900'
p5194
(dp5195
S'81102 - PM10'
p5196
(dp5197
g32
(lp5198
g1065
asg1218
g7
((lp5199
S'BETN063'
p5200
atRp5201
sssS'6909'
p5202
(dp5203
S'81104 - PM2.5'
p5204
(dp5205
g32
(lp5206
S'81104 - PM2.5_._6909'
p5207
asg1218
g7
((ltRp5208
sssS'6908'
p5209
(dp5210
S'81102 - PM10'
p5211
(dp5212
g32
(lp5213
S'81102 - PM10_._6908'
p5214
asg1218
g7
((ltRp5215
sssS'6518'
p5216
(dp5217
S'45109 - m,p-C6H4(CH3)2'
p5218
(dp5219
g32
(lp5220
S'45109 - m,p-C6H4(CH3)2_._6518'
p5221
asg1218
g7
((ltRp5222
sssS'6519'
p5223
(dp5224
S'45201 - C6H6'
p5225
(dp5226
g32
(lp5227
g1109
asg1218
g7
((lp5228
S'BETB006'
p5229
atRp5230
sssS'6514'
p5231
(dp5232
S'42101 - CO'
p5233
(dp5234
g32
(lp5235
g1110
asg1218
g7
((lp5236
S'BETB006'
p5237
atRp5238
sssS'6515'
p5239
(dp5240
S'42601 - NO'
p5241
(dp5242
g32
(lp5243
g1111
asg1218
g7
((lp5244
S'BETB006'
p5245
atRp5246
sssS'6516'
p5247
(dp5248
S'42602 - NO2'
p5249
(dp5250
g32
(lp5251
g1112
asg1218
g7
((lp5252
S'BETB006'
p5253
atRp5254
sssS'6517'
p5255
(dp5256
S'44201 - O3'
p5257
(dp5258
g32
(lp5259
g1113
asg1218
g7
((lp5260
S'BETB006'
p5261
atRp5262
sssS'10602'
p5263
(dp5264
S'16111 - Black Carbon'
p5265
(dp5266
g32
(lp5267
g465
asg1218
g7
((lp5268
S'BETR701'
p5269
atRp5270
sssS'10603'
p5271
(dp5272
S'16111 - Black Carbon'
p5273
(dp5274
g32
(lp5275
g500
asg1218
g7
((lp5276
S'BETR801'
p5277
atRp5278
sssS'10600'
p5279
(dp5280
S'81102 - PM10'
p5281
(dp5282
g32
(lp5283
g969
asg1218
g7
((lp5284
S'BETR831'
p5285
atRp5286
sssS'10601'
p5287
(dp5288
S'42602 - NO2'
p5289
(dp5290
g32
(lp5291
g511
asg1218
g7
((lp5292
S'BETR802'
p5293
atRp5294
sssS'10606'
p5295
(dp5296
S'16111 - Black Carbon'
p5297
(dp5298
g32
(lp5299
g433
asg1218
g7
((lp5300
S'BETN029'
p5301
atRp5302
sssS'10607'
p5303
(dp5304
S'16111 - Black Carbon'
p5305
(dp5306
g32
(lp5307
g377
asg1218
g7
((lp5308
S'BETR012'
p5309
atRp5310
sssS'10604'
p5311
(dp5312
S'16111 - Black Carbon'
p5313
(dp5314
g32
(lp5315
g512
asg1218
g7
((lp5316
S'BETR802'
p5317
atRp5318
sssS'10605'
p5319
(dp5320
S'16111 - Black Carbon'
p5321
(dp5322
g32
(lp5323
g61
asg1218
g7
((lp5324
S'BETR750'
p5325
atRp5326
sssS'10608'
p5327
(dp5328
S'16111 - Black Carbon'
p5329
(dp5330
g32
(lp5331
g819
asg1218
g7
((lp5332
S'BETN045'
p5333
atRp5334
sssS'10609'
p5335
(dp5336
S'16111 - Black Carbon'
p5337
(dp5338
g32
(lp5339
g157
asg1218
g7
((lp5340
S'BETN016'
p5341
atRp5342
sssS'6301'
p5343
(dp5344
S'81102 - PM10'
p5345
(dp5346
g32
(lp5347
g268
asg1218
g7
((lp5348
S'BELMN01'
p5349
atRp5350
sssS'99902'
p5351
(dp5352
S'62101 - TT'
p5353
(dp5354
g32
(lp5355
g434
asg1218
g7
((lp5356
S'BETN029'
p5357
atRp5358
sssS'99903'
p5359
(dp5360
S'61102 - DD'
p5361
(dp5362
g32
(lp5363
g732
asg1218
g7
((lp5364
S'BETM705'
p5365
atRp5366
sssS'99901'
p5367
(dp5368
S'61110 - WSP-SCA'
p5369
(dp5370
g32
(lp5371
g435
asg1218
g7
((lp5372
S'BETN029'
p5373
atRp5374
sssS'99906'
p5375
(dp5376
S'61102 - DD'
p5377
(dp5378
g32
(lp5379
g466
asg1218
g7
((lp5380
S'BETR701'
p5381
atRp5382
sssS'7159'
p5383
(dp5384
S'42601 - NO'
p5385
(dp5386
g32
(lp5387
g94
asg1218
g7
((lp5388
S'BETR512'
p5389
atRp5390
sssS'7158'
p5391
(dp5392
S'42401 - SO2'
p5393
(dp5394
g32
(lp5395
g95
asg1218
g7
((lp5396
S'BETR512'
p5397
atRp5398
sssS'7104'
p5399
(dp5400
S'42601 - NO'
p5401
(dp5402
g32
(lp5403
g937
asg1218
g7
((lp5404
S'BETR731'
p5405
atRp5406
sssS'99908'
p5407
(dp5408
S'62101 - TT'
p5409
(dp5410
g32
(lp5411
g467
asg1218
g7
((lp5412
S'BETR701'
p5413
atRp5414
sssS'7105'
p5415
(dp5416
S'42602 - NO2'
p5417
(dp5418
g32
(lp5419
g938
asg1218
g7
((lp5420
S'BETR731'
p5421
atRp5422
sssS'6832'
p5423
(dp5424
S'44201 - O3'
p5425
(dp5426
g32
(lp5427
g970
asg1218
g7
((lp5428
S'BETR831'
p5429
atRp5430
sssS'6830'
p5431
(dp5432
S'42602 - NO2'
p5433
(dp5434
g32
(lp5435
g971
asg1218
g7
((lp5436
S'BETR831'
p5437
atRp5438
sssS'7109'
p5439
(dp5440
S'42401 - SO2'
p5441
(dp5442
g32
(lp5443
g405
asg1218
g7
((lp5444
S'BETR740'
p5445
atRp5446
sssS'7016'
p5447
(dp5448
S'42601 - NO'
p5449
(dp5450
g32
(lp5451
g695
asg1218
g7
((lp5452
S'BETR240'
p5453
atRp5454
sssS'6609'
p5455
(dp5456
S'16111 - Black Carbon'
p5457
(dp5458
g32
(lp5459
g552
asg1218
g7
((lp5460
S'BETR002'
p5461
atRp5462
sssS'7014'
p5463
(dp5464
S'42401 - SO2'
p5465
(dp5466
g32
(lp5467
g696
asg1218
g7
((lp5468
S'BETR240'
p5469
atRp5470
sssS'7010'
p5471
(dp5472
S'89101 - PM1'
p5473
(dp5474
g32
(lp5475
S'89101 - PM1_._7010'
p5476
asg1218
g7
((ltRp5477
sssS'6769'
p5478
(dp5479
S'42602 - NO2'
p5480
(dp5481
g32
(lp5482
g868
asg1218
g7
((lp5483
S'BETR020'
p5484
atRp5485
sssS'6768'
p5486
(dp5487
S'42601 - NO'
p5488
(dp5489
g32
(lp5490
g869
asg1218
g7
((lp5491
S'BETR020'
p5492
atRp5493
sssS'6767'
p5494
(dp5495
S'42401 - SO2'
p5496
(dp5497
g32
(lp5498
g870
asg1218
g7
((lp5499
S'BETR020'
p5500
atRp5501
sssS'6766'
p5502
(dp5503
S'42101 - CO'
p5504
(dp5505
g32
(lp5506
g871
asg1218
g7
((lp5507
S'BETR020'
p5508
atRp5509
sssS'7162'
p5510
(dp5511
S'81102 - PM10'
p5512
(dp5513
g32
(lp5514
g96
asg1218
g7
((lp5515
S'BETR512'
p5516
atRp5517
sssS'6887'
p5518
(dp5519
S'42101 - CO'
p5520
(dp5521
g32
(lp5522
g1076
asg1218
g7
((lp5523
S'BETN060'
p5524
atRp5525
sssS'6884'
p5526
(dp5527
S'81104 - PM2.5'
p5528
(dp5529
g32
(lp5530
g176
asg1218
g7
((lp5531
S'BETM204'
p5532
atRp5533
sssS'6885'
p5534
(dp5535
S'89101 - PM1'
p5536
(dp5537
g32
(lp5538
S'89101 - PM1_._6885'
p5539
asg1218
g7
((ltRp5540
sssS'6883'
p5541
(dp5542
S'81102 - PM10'
p5543
(dp5544
g32
(lp5545
g177
asg1218
g7
((lp5546
S'BETM204'
p5547
atRp5548
sssS'6880'
p5549
(dp5550
S'81102 - PM10'
p5551
(dp5552
g32
(lp5553
g185
asg1218
g7
((lp5554
S'BETH201'
p5555
atRp5556
sssS'6881'
p5557
(dp5558
S'81104 - PM2.5'
p5559
(dp5560
g32
(lp5561
g186
asg1218
g7
((lp5562
S'BETH201'
p5563
atRp5564
sssS'6888'
p5565
(dp5566
S'42401 - SO2'
p5567
(dp5568
g32
(lp5569
g1077
asg1218
g7
((lp5570
S'BETN060'
p5571
atRp5572
sssS'6889'
p5573
(dp5574
S'42601 - NO'
p5575
(dp5576
g32
(lp5577
g1078
asg1218
g7
((lp5578
S'BETN060'
p5579
atRp5580
sssS'7081'
p5581
(dp5582
S'45202 - C6H5-CH3'
p5583
(dp5584
g32
(lp5585
S'45202 - C6H5-CH3_._7081'
p5586
asg1218
g7
((ltRp5587
sssS'7080'
p5588
(dp5589
S'45201 - C6H6'
p5590
(dp5591
g32
(lp5592
g468
asg1218
g7
((lp5593
S'BETR701'
p5594
atRp5595
sssS'7083'
p5596
(dp5597
S'45204 - o-C6H4-(CH3)2'
p5598
(dp5599
g32
(lp5600
S'45204 - o-C6H4-(CH3)2_._7083'
p5601
asg1218
g7
((ltRp5602
sssS'7082'
p5603
(dp5604
S'45203 - C6H5-C2H5'
p5605
(dp5606
g32
(lp5607
S'45203 - C6H5-C2H5_._7082'
p5608
asg1218
g7
((ltRp5609
sssS'7087'
p5610
(dp5611
S'81104 - PM2.5'
p5612
(dp5613
g32
(lp5614
g469
asg1218
g7
((lp5615
S'BETR701'
p5616
atRp5617
sssS'7086'
p5618
(dp5619
S'81102 - PM10'
p5620
(dp5621
g32
(lp5622
g470
asg1218
g7
((lp5623
S'BETR701'
p5624
atRp5625
sssS'7089'
p5626
(dp5627
S'42601 - NO'
p5628
(dp5629
g32
(lp5630
g675
asg1218
g7
((lp5631
S'BETR710'
p5632
atRp5633
sssS'7163'
p5634
(dp5635
S'81104 - PM2.5'
p5636
(dp5637
g32
(lp5638
g97
asg1218
g7
((lp5639
S'BETR512'
p5640
atRp5641
sssS'7160'
p5642
(dp5643
S'42602 - NO2'
p5644
(dp5645
g32
(lp5646
g98
asg1218
g7
((lp5647
S'BETR512'
p5648
atRp5649
sssS'99934'
p5650
(dp5651
S'61110 - WSP-SCA'
p5652
(dp5653
g32
(lp5654
S'61110 - WSP-SCA_._99934'
p5655
asg1218
g7
((ltRp5656
sssS'99933'
p5657
(dp5658
S'61102 - DD'
p5659
(dp5660
g32
(lp5661
S'61102 - DD_._99933'
p5662
asg1218
g7
((ltRp5663
sssS'99932'
p5664
(dp5665
S'62101 - TT'
p5666
(dp5667
g32
(lp5668
g994
asg1218
g7
((lp5669
S'BETR221'
p5670
atRp5671
sssS'7164'
p5672
(dp5673
S'89101 - PM1'
p5674
(dp5675
g32
(lp5676
S'89101 - PM1_._7164'
p5677
asg1218
g7
((ltRp5678
sssS'99930'
p5679
(dp5680
S'61102 - DD'
p5681
(dp5682
g32
(lp5683
S'61102 - DD_._99930'
p5684
asg1218
g7
((ltRp5685
sssS'99914'
p5686
(dp5687
S'62101 - TT'
p5688
(dp5689
g32
(lp5690
g903
asg1218
g7
((lp5691
S'BETB011'
p5692
atRp5693
sssS'6693'
p5694
(dp5695
S'81102 - PM10'
p5696
(dp5697
g32
(lp5698
g484
asg1218
g7
((lp5699
S'BETM802'
p5700
atRp5701
sssS'7034'
p5702
(dp5703
S'81102 - PM10'
p5704
(dp5705
g32
(lp5706
g733
asg1218
g7
((lp5707
S'BETM705'
p5708
atRp5709
sssS'6690'
p5710
(dp5711
S'42602 - NO2'
p5712
(dp5713
g32
(lp5714
g485
asg1218
g7
((lp5715
S'BETM802'
p5716
atRp5717
sssS'6490'
p5718
(dp5719
S'45204 - o-C6H4-(CH3)2'
p5720
(dp5721
g32
(lp5722
S'45204 - o-C6H4-(CH3)2_._6490'
p5723
asg1218
g7
((ltRp5724
sssS'6949'
p5725
(dp5726
S'44201 - O3'
p5727
(dp5728
g32
(lp5729
g606
asg1218
g7
((lp5730
S'BETN100'
p5731
atRp5732
sssS'6948'
p5733
(dp5734
S'42602 - NO2'
p5735
(dp5736
g32
(lp5737
g607
asg1218
g7
((lp5738
S'BETN100'
p5739
atRp5740
sssS'7130'
p5741
(dp5742
S'42401 - SO2'
p5743
(dp5744
g32
(lp5745
g1145
asg1218
g7
((lp5746
S'BETR501'
p5747
atRp5748
sssS'6943'
p5749
(dp5750
S'81102 - PM10'
p5751
(dp5752
g32
(lp5753
g123
asg1218
g7
((lp5754
S'BETN093'
p5755
atRp5756
sssS'6942'
p5757
(dp5758
S'44201 - O3'
p5759
(dp5760
g32
(lp5761
g124
asg1218
g7
((lp5762
S'BETN093'
p5763
atRp5764
sssS'6941'
p5765
(dp5766
S'42602 - NO2'
p5767
(dp5768
g32
(lp5769
g125
asg1218
g7
((lp5770
S'BETN093'
p5771
atRp5772
sssS'6940'
p5773
(dp5774
S'42601 - NO'
p5775
(dp5776
g32
(lp5777
g126
asg1218
g7
((lp5778
S'BETN093'
p5779
atRp5780
sssS'6947'
p5781
(dp5782
S'42601 - NO'
p5783
(dp5784
g32
(lp5785
g608
asg1218
g7
((lp5786
S'BETN100'
p5787
atRp5788
sssS'6946'
p5789
(dp5790
S'42401 - SO2'
p5791
(dp5792
g32
(lp5793
g609
asg1218
g7
((lp5794
S'BETN100'
p5795
atRp5796
sssS'6945'
p5797
(dp5798
S'89101 - PM1'
p5799
(dp5800
g32
(lp5801
S'89101 - PM1_._6945'
p5802
asg1218
g7
((ltRp5803
sssS'6944'
p5804
(dp5805
S'81104 - PM2.5'
p5806
(dp5807
g32
(lp5808
g127
asg1218
g7
((lp5809
S'BETN093'
p5810
atRp5811
sssS'6343'
p5812
(dp5813
S'16111 - Black Carbon'
p5814
(dp5815
g32
(lp5816
g1192
asg1218
g7
((lp5817
S'BELSZ01'
p5818
atRp5819
sssS'7132'
p5820
(dp5821
S'42602 - NO2'
p5822
(dp5823
g32
(lp5824
g1146
asg1218
g7
((lp5825
S'BETR501'
p5826
atRp5827
sssS'6347'
p5828
(dp5829
S'42601 - NO'
p5830
(dp5831
g32
(lp5832
g1193
asg1218
g7
((lp5833
S'BELSZ01'
p5834
atRp5835
sssS'6348'
p5836
(dp5837
S'42602 - NO2'
p5838
(dp5839
g32
(lp5840
g1194
asg1218
g7
((lp5841
S'BELSZ01'
p5842
atRp5843
sssS'6337'
p5844
(dp5845
S'81104 - PM2.5'
p5846
(dp5847
g32
(lp5848
S'81104 - PM2.5_._6337'
p5849
asg1218
g7
((ltRp5850
sssS'7234'
p5851
(dp5852
S'42602 - NO2'
p5853
(dp5854
g32
(lp5855
g682
asg1218
g7
((lp5856
S'BETE812'
p5857
atRp5858
sssS'7232'
p5859
(dp5860
S'42401 - SO2'
p5861
(dp5862
g32
(lp5863
g683
asg1218
g7
((lp5864
S'BETE812'
p5865
atRp5866
sssS'7233'
p5867
(dp5868
S'42601 - NO'
p5869
(dp5870
g32
(lp5871
g684
asg1218
g7
((lp5872
S'BETE812'
p5873
atRp5874
sssS'7230'
p5875
(dp5876
S'42601 - NO'
p5877
(dp5878
g32
(lp5879
g1121
asg1218
g7
((lp5880
S'BETE811'
p5881
atRp5882
sssS'7231'
p5883
(dp5884
S'42602 - NO2'
p5885
(dp5886
g32
(lp5887
g1122
asg1218
g7
((lp5888
S'BETE811'
p5889
atRp5890
sssS'6958'
p5891
(dp5892
S'81104 - PM2.5'
p5893
(dp5894
g32
(lp5895
g766
asg1218
g7
((lp5896
S'BETN113'
p5897
atRp5898
sssS'7008'
p5899
(dp5900
S'81102 - PM10'
p5901
(dp5902
g32
(lp5903
g1020
asg1218
g7
((lp5904
S'BETR223'
p5905
atRp5906
sssS'6549'
p5907
(dp5908
S'42401 - SO2'
p5909
(dp5910
g32
(lp5911
g777
asg1218
g7
((lp5912
S'BETMEU1'
p5913
atRp5914
sssS'6548'
p5915
(dp5916
S'42242 - Hg'
p5917
(dp5918
g32
(lp5919
g778
asg1218
g7
((lp5920
S'BETMEU1'
p5921
atRp5922
sssS'6334'
p5923
(dp5924
S'81102 - PM10'
p5925
(dp5926
g32
(lp5927
g394
asg1218
g7
((lp5928
S'BELRL01'
p5929
atRp5930
sssS'6335'
p5931
(dp5932
S'16111 - Black Carbon'
p5933
(dp5934
g32
(lp5935
S'16111 - Black Carbon_._6335'
p5936
asg1218
g7
((ltRp5937
sssS'6489'
p5938
(dp5939
S'45203 - C6H5-C2H5'
p5940
(dp5941
g32
(lp5942
S'45203 - C6H5-C2H5_._6489'
p5943
asg1218
g7
((ltRp5944
ssssS'accesConstraints'
p5945
S'http://creativecommons.org/licenses/by-nc-nd/3.0/'
p5946
sb.