(isosRequests
SOS
p1
(dp2
S'accessConstraints'
p3
S''
sS'name'
p4
S'SOS of IRCEL - CELINE'
p5
sS'url'
p6
S'http://sos.irceline.be/sos?'
p7
sS'responseFormat'
p8
c__builtin__
set
p9
((lp10
S'application/zip'
p11
aS'http://www.opengis.net/om/2.0'
p12
atRp13
sS'organisation'
p14
S'IRCEL - CELINE'
p15
sS'costs'
p16
S'NONE'
p17
sS'version'
p18
g9
((lp19
S'1.0.0'
p20
aS'2.0.0'
p21
atRp22
sS'error'
p23
I00
sS'featureofinterest'
p24
(dp25
S'BETR841'
p26
(dp27
S'offerings'
p28
(lp29
S'81104 - PM2.5_._6855'
p30
aS'81102 - PM10_._6854'
p31
aS'42601 - NO_._6851'
p32
aS'44201 - O3_._6853'
p33
aS'42602 - NO2_._6852'
p34
asS'coords'
p35
(lp36
S'157059.0 188039.0'
p37
aS'http://www.opengis.net/def/crs/EPSG/0/31370'
p38
assS'BELSA04'
p39
(dp40
g28
(lp41
S'81102 - PM10_._10691'
p42
aS'16111 - Black Carbon_._10690'
p43
aS'81104 - PM2.5_._10692'
p44
asg35
(lp45
S'152448.0 222679.0'
p46
aS'http://www.opengis.net/def/crs/EPSG/0/31370'
p47
assS'BETR750'
p48
(dp49
g28
(lp50
S'81104 - PM2.5_._100012'
p51
aS'42602 - NO2_._7122'
p52
aS'42601 - NO_._7121'
p53
aS'42401 - SO2_._7120'
p54
aS'42101 - CO_._7119'
p55
aS'81102 - PM10_._7125'
p56
aS'16111 - Black Carbon_._10605'
p57
asg35
(lp58
S'111845.0 209705.0'
p59
aS'http://www.opengis.net/def/crs/EPSG/0/31370'
p60
assS'BETE715'
p61
(dp62
g28
(lp63
S'42601 - NO_._7203'
p64
aS'42602 - NO2_._7204'
p65
asg35
(lp66
S'66645.0 215775.0'
p67
aS'http://www.opengis.net/def/crs/EPSG/0/31370'
p68
assS'BETE714'
p69
(dp70
g28
(lp71
S'42602 - NO2_._7201'
p72
aS'42601 - NO_._7200'
p73
asg35
(lp74
S'71842.0 219377.0'
p75
aS'http://www.opengis.net/def/crs/EPSG/0/31370'
p76
assS'BETE716'
p77
(dp78
g28
(lp79
S'42602 - NO2_._7207'
p80
aS'42601 - NO_._7206'
p81
asg35
(lp82
S'101919.0 195427.0'
p83
aS'http://www.opengis.net/def/crs/EPSG/0/31370'
p84
assS'BETR512'
p85
(dp86
g28
(lp87
S'42101 - CO_._7157'
p88
aS'16111 - Black Carbon_._7155'
p89
aS'42601 - NO_._7159'
p90
aS'42401 - SO2_._7158'
p91
aS'81102 - PM10_._7162'
p92
aS'81104 - PM2.5_._7163'
p93
aS'42602 - NO2_._7160'
p94
asg35
(lp95
S'151930.0 121880.0'
p96
aS'http://www.opengis.net/def/crs/EPSG/0/31370'
p97
assS'BETR510'
p98
(dp99
g28
(lp100
S'81104 - PM2.5_._7149'
p101
aS'42401 - SO2_._7147'
p102
aS'81102 - PM10_._7148'
p103
asg35
(lp104
S'160830.0 122850.0'
p105
aS'http://www.opengis.net/def/crs/EPSG/0/31370'
p106
assS'BETR511'
p107
(dp108
g28
(lp109
S'81104 - PM2.5_._7152'
p110
aS'81102 - PM10_._7151'
p111
asg35
(lp112
S'153980.0 118520.0'
p113
aS'http://www.opengis.net/def/crs/EPSG/0/31370'
p114
assS'BETN093'
p115
(dp116
g28
(lp117
S'42401 - SO2_._6939'
p118
aS'81102 - PM10_._6943'
p119
aS'44201 - O3_._6942'
p120
aS'42602 - NO2_._6941'
p121
aS'42601 - NO_._6940'
p122
aS'81104 - PM2.5_._6944'
p123
asg35
(lp124
S'211760.0 107410.0'
p125
aS'http://www.opengis.net/def/crs/EPSG/0/31370'
p126
assS'BELAB02'
p127
(dp128
g28
(lp129
S'81102 - PM10_._6149'
p130
aS'81104 - PM2.5_._100003'
p131
asg35
(lp132
S'146729.0 225661.0'
p133
aS'http://www.opengis.net/def/crs/EPSG/0/31370'
p134
assS'BELAB01'
p135
(dp136
g28
(lp137
S'16111 - Black Carbon_._6147'
p138
aS'81102 - PM10_._6148'
p139
aS'81104 - PM2.5_._100002'
p140
asg35
(lp141
S'147285.0 219017.0'
p142
aS'http://www.opengis.net/def/crs/EPSG/0/31370'
p143
assS'BETN016'
p144
(dp145
g28
(lp146
S'81104 - PM2.5_._100018'
p147
aS'42601 - NO_._6701'
p148
aS'42401 - SO2_._6700'
p149
aS'44201 - O3_._6703'
p150
aS'42602 - NO2_._6702'
p151
aS'81102 - PM10_._6704'
p152
aS'16111 - Black Carbon_._10609'
p153
asg35
(lp154
S'205542.0 214045.0'
p155
aS'http://www.opengis.net/def/crs/EPSG/0/31370'
p156
assS'BETN012'
p157
(dp158
g28
(lp159
S'81104 - PM2.5_._99997'
p160
aS'44201 - O3_._7041'
p161
aS'42602 - NO2_._7040'
p162
aS'81102 - PM10_._7042'
p163
aS'42601 - NO_._7039'
p164
asg35
(lp165
S'79753.0 216550.0'
p166
aS'http://www.opengis.net/def/crs/EPSG/0/31370'
p167
assS'BETM204'
p168
(dp169
g28
(lp170
S'62101 - TT_._99929'
p171
aS'81104 - PM2.5_._6884'
p172
aS'81102 - PM10_._6883'
p173
asg35
(lp174
S'237930.0 145320.0'
p175
aS'http://www.opengis.net/def/crs/EPSG/0/31370'
p176
assS'BETH201'
p177
(dp178
g28
(lp179
S'42401 - SO2_._6879'
p180
aS'81102 - PM10_._6880'
p181
aS'81104 - PM2.5_._6881'
p182
asg35
(lp183
S'233400.0 146700.0'
p184
aS'http://www.opengis.net/def/crs/EPSG/0/31370'
p185
assS'BELTS07'
p186
(dp187
sS'BETR721'
p188
(dp189
g28
(lp190
S'42601 - NO_._7096'
p191
aS'42602 - NO2_._7097'
p192
aS'42401 - SO2_._7095'
p193
asg35
(lp194
S'104275.0 197850.0'
p195
aS'http://www.opengis.net/def/crs/EPSG/0/31370'
p196
assS'BELGK09'
p197
(dp198
g28
(lp199
S'42602 - NO2_._6200'
p200
aS'45201 - C6H6_._6202'
p201
aS'42401 - SO2_._6198'
p202
aS'42601 - NO_._6199'
p203
asg35
(lp204
S'229010.0 181080.0'
p205
aS'http://www.opengis.net/def/crs/EPSG/0/31370'
p206
assS'BETN085'
p207
(dp208
g28
(lp209
S'42401 - SO2_._6932'
p210
aS'42601 - NO_._6933'
p211
aS'42101 - CO_._6930'
p212
aS'42242 - Hg_._6931'
p213
aS'81102 - PM10_._6936'
p214
aS'81104 - PM2.5_._6937'
p215
aS'42602 - NO2_._6934'
p216
aS'44201 - O3_._6935'
p217
aS'16111 - Black Carbon_._6928'
p218
asg35
(lp219
S'266325.0 111525.0'
p220
aS'http://www.opengis.net/def/crs/EPSG/0/31370'
p221
assS'BELGK06'
p222
(dp223
g28
(lp224
S'81102 - PM10_._6196'
p225
asg35
(lp226
S'227463.0 180307.0'
p227
aS'http://www.opengis.net/def/crs/EPSG/0/31370'
p228
assS'BETE702'
p229
(dp230
g28
(lp231
S'42602 - NO2_._7192'
p232
aS'42601 - NO_._7191'
p233
asg35
(lp234
S'91013.0 167394.0'
p235
aS'http://www.opengis.net/def/crs/EPSG/0/31370'
p236
assS'BETE703'
p237
(dp238
g28
(lp239
S'42401 - SO2_._7193'
p240
aS'42602 - NO2_._7195'
p241
aS'42601 - NO_._7194'
p242
asg35
(lp243
S'102359.0 209144.0'
p244
aS'http://www.opengis.net/def/crs/EPSG/0/31370'
p245
assS'BETTS21'
p246
(dp247
g28
(lp248
S'42401 - SO2_._6407'
p249
asg35
(lp250
S'201786.0 195321.0'
p251
aS'http://www.opengis.net/def/crs/EPSG/0/31370'
p252
assS'BELMN01'
p253
(dp254
g28
(lp255
S'81102 - PM10_._6301'
p256
asg35
(lp257
S'61230.0 165530.0'
p258
aS'http://www.opengis.net/def/crs/EPSG/0/31370'
p259
assS'BELTS12'
p260
(dp261
sS'BETWOL1'
p262
(dp263
g28
(lp264
S'42601 - NO_._6638'
p265
aS'42602 - NO2_._6639'
p266
aS'16111 - Black Carbon_._6633'
p267
aS'42101 - CO_._6635'
p268
aS'42401 - SO2_._6637'
p269
aS'42102 - CO2_._6636'
p270
aS'44201 - O3_._6642'
p271
aS'81102 - PM10_._6643'
p272
asg35
(lp273
S'154010.0 171800.0'
p274
aS'http://www.opengis.net/def/crs/EPSG/0/31370'
p275
assS'BETWOL2'
p276
(dp277
sS'BETN121'
p278
(dp279
g28
(lp280
S'42602 - NO2_._6961'
p281
aS'42601 - NO_._6960'
p282
aS'81102 - PM10_._6963'
p283
aS'44201 - O3_._6962'
p284
aS'81104 - PM2.5_._6964'
p285
asg35
(lp286
S'209920.0 63190.0'
p287
aS'http://www.opengis.net/def/crs/EPSG/0/31370'
p288
assS'BELWZ01'
p289
(dp290
sS'BELWZ02'
p291
(dp292
g28
(lp293
S'42401 - SO2_._6430'
p294
asg35
(lp295
S'209614.0 209545.0'
p296
aS'http://www.opengis.net/def/crs/EPSG/0/31370'
p297
assS'BELBE06'
p298
(dp299
sS'BETN035'
p300
(dp301
g28
(lp302
S'81104 - PM2.5_._100014'
p303
aS'81102 - PM10_._6716'
p304
aS'42602 - NO2_._6714'
p305
aS'44201 - O3_._6715'
p306
aS'42401 - SO2_._6712'
p307
aS'42601 - NO_._6713'
p308
asg35
(lp309
S'182928.0 185359.0'
p310
aS'http://www.opengis.net/def/crs/EPSG/0/31370'
p311
assS'BETR811'
p312
(dp313
g28
(lp314
S'81102 - PM10_._6794'
p315
aS'42602 - NO2_._6792'
p316
aS'44201 - O3_._6793'
p317
aS'42601 - NO_._6791'
p318
aS'81104 - PM2.5_._100017'
p319
asg35
(lp320
S'158560.0 215807.0'
p321
aS'http://www.opengis.net/def/crs/EPSG/0/31370'
p322
assS'BELZL01'
p323
(dp324
g28
(lp325
S'45201 - C6H6_._6487'
p326
asg35
(lp327
S'110836.0 210500.0'
p328
aS'http://www.opengis.net/def/crs/EPSG/0/31370'
p329
assS'BETR815'
p330
(dp331
g28
(lp332
S'81104 - PM2.5_._99995'
p333
aS'81102 - PM10_._6804'
p334
aS'42601 - NO_._6802'
p335
aS'42602 - NO2_._6803'
p336
aS'16111 - Black Carbon_._6800'
p337
aS'42401 - SO2_._6801'
p338
asg35
(lp339
S'147446.0 211639.0'
p340
aS'http://www.opengis.net/def/crs/EPSG/0/31370'
p341
assS'BETR012'
p342
(dp343
g28
(lp344
S'42102 - CO2_._6619'
p345
aS'61110 - WSP-SCA_._99940'
p346
aS'62101 - TT_._99941'
p347
aS'81102 - PM10_._6626'
p348
aS'81104 - PM2.5_._6627'
p349
aS'44201 - O3_._6625'
p350
aS'42401 - SO2_._6620'
p351
aS'42601 - NO_._6621'
p352
aS'61102 - DD_._99939'
p353
aS'42602 - NO2_._6622'
p354
aS'16111 - Black Carbon_._10607'
p355
asg35
(lp356
S'149280.0 165130.0'
p357
aS'http://www.opengis.net/def/crs/EPSG/0/31370'
p358
assS'BETR010'
p359
(dp360
g28
(lp361
S'42601 - NO_._6752'
p362
aS'42602 - NO2_._6753'
p363
aS'42101 - CO_._6750'
p364
asg35
(lp365
S'154201.0 172749.0'
p366
aS'http://www.opengis.net/def/crs/EPSG/0/31370'
p367
assS'BELRL01'
p368
(dp369
g28
(lp370
S'81104 - PM2.5_._100005'
p371
aS'81102 - PM10_._6334'
p372
asg35
(lp373
S'62340.0 183280.0'
p374
aS'http://www.opengis.net/def/crs/EPSG/0/31370'
p375
assS'BETR740'
p376
(dp377
g28
(lp378
S'44201 - O3_._7115'
p379
aS'42602 - NO2_._7111'
p380
aS'42601 - NO_._7110'
p381
aS'81102 - PM10_._7117'
p382
aS'42401 - SO2_._7109'
p383
asg35
(lp384
S'110815.0 204603.0'
p385
aS'http://www.opengis.net/def/crs/EPSG/0/31370'
p386
assS'BETN132'
p387
(dp388
g28
(lp389
S'81102 - PM10_._6970'
p390
aS'81104 - PM2.5_._6971'
p391
aS'42101 - CO_._6965'
p392
aS'42601 - NO_._6967'
p393
aS'42401 - SO2_._6966'
p394
aS'44201 - O3_._6969'
p395
aS'42602 - NO2_._6968'
p396
asg35
(lp397
S'240980.0 46070.0'
p398
aS'http://www.opengis.net/def/crs/EPSG/0/31370'
p399
assS'BETN029'
p400
(dp401
g28
(lp402
S'42401 - SO2_._7045'
p403
aS'44201 - O3_._7048'
p404
aS'42602 - NO2_._7047'
p405
aS'42601 - NO_._7046'
p406
aS'81102 - PM10_._7054'
p407
aS'81104 - PM2.5_._7055'
p408
aS'61102 - DD_._99900'
p409
aS'45201 - C6H6_._7050'
p410
aS'16111 - Black Carbon_._10606'
p411
aS'62101 - TT_._99902'
p412
aS'61110 - WSP-SCA_._99901'
p413
asg35
(lp414
S'24655.0 191071.0'
p415
aS'http://www.opengis.net/def/crs/EPSG/0/31370'
p416
assS'BETN027'
p417
(dp418
g28
(lp419
S'42602 - NO2_._6710'
p420
aS'44201 - O3_._6711'
p421
aS'42601 - NO_._6709'
p422
asg35
(lp423
S'236644.0 203352.0'
p424
aS'http://www.opengis.net/def/crs/EPSG/0/31370'
p425
assS'BETM702'
p426
(dp427
g28
(lp428
S'42602 - NO2_._7026'
p429
aS'42601 - NO_._7025'
p430
asg35
(lp431
S'107569.0 206396.0'
p432
aS'http://www.opengis.net/def/crs/EPSG/0/31370'
p433
assS'BETR701'
p434
(dp435
g28
(lp436
S'44201 - O3_._7078'
p437
aS'42602 - NO2_._7074'
p438
aS'42101 - CO_._7071'
p439
aS'42401 - SO2_._7072'
p440
aS'42601 - NO_._7073'
p441
aS'61110 - WSP-SCA_._99907'
p442
aS'16111 - Black Carbon_._10602'
p443
aS'61102 - DD_._99906'
p444
aS'62101 - TT_._99908'
p445
aS'45201 - C6H6_._7080'
p446
aS'81104 - PM2.5_._7087'
p447
aS'81102 - PM10_._7086'
p448
asg35
(lp449
S'105169.0 194435.0'
p450
aS'http://www.opengis.net/def/crs/EPSG/0/31370'
p451
assS'BETM802'
p452
(dp453
g28
(lp454
S'81104 - PM2.5_._99994'
p455
aS'62101 - TT_._99911'
p456
aS'61110 - WSP-SCA_._99910'
p457
aS'61102 - DD_._99909'
p458
aS'42401 - SO2_._6688'
p459
aS'42601 - NO_._6689'
p460
aS'16111 - Black Carbon_._6687'
p461
aS'81102 - PM10_._6693'
p462
aS'42602 - NO2_._6690'
p463
asg35
(lp464
S'153884.0 216790.0'
p465
aS'http://www.opengis.net/def/crs/EPSG/0/31370'
p466
assS'BETR801'
p467
(dp468
g28
(lp469
S'45201 - C6H6_._6780'
p470
aS'81104 - PM2.5_._6787'
p471
aS'81102 - PM10_._6786'
p472
aS'44201 - O3_._6778'
p473
aS'42401 - SO2_._6774'
p474
aS'42601 - NO_._6775'
p475
aS'42602 - NO2_._6776'
p476
aS'42101 - CO_._6773'
p477
aS'16111 - Black Carbon_._10603'
p478
asg35
(lp479
S'154407.0 211080.0'
p480
aS'http://www.opengis.net/def/crs/EPSG/0/31370'
p481
assS'BETR802'
p482
(dp483
g28
(lp484
S'42601 - NO_._10696'
p485
aS'81104 - PM2.5_._6789'
p486
aS'81102 - PM10_._6788'
p487
aS'42101 - CO_._10739'
p488
aS'42602 - NO2_._10601'
p489
aS'16111 - Black Carbon_._10604'
p490
asg35
(lp491
S'154405.0 211064.0'
p492
aS'http://www.opengis.net/def/crs/EPSG/0/31370'
p493
assS'BETR001'
p494
(dp495
g28
(lp496
S'61110 - WSP-SCA_._99916'
p497
aS'61102 - DD_._99915'
p498
aS'42401 - SO2_._6572'
p499
aS'42601 - NO_._6573'
p500
aS'42101 - CO_._6571'
p501
aS'44201 - O3_._6577'
p502
aS'42602 - NO2_._6574'
p503
aS'81102 - PM10_._6578'
p504
aS'81104 - PM2.5_._6579'
p505
aS'62101 - TT_._99917'
p506
aS'16111 - Black Carbon_._6569'
p507
asg35
(lp508
S'147540.0 171030.0'
p509
aS'http://www.opengis.net/def/crs/EPSG/0/31370'
p510
assS'BETR002'
p511
(dp512
g28
(lp513
S'42401 - SO2_._6613'
p514
aS'42102 - CO2_._6612'
p515
aS'42101 - CO_._6611'
p516
aS'42602 - NO2_._6615'
p517
aS'42601 - NO_._6614'
p518
aS'16111 - Black Carbon_._6609'
p519
asg35
(lp520
S'151125.0 168300.0'
p521
aS'http://www.opengis.net/def/crs/EPSG/0/31370'
p522
assS'BETR893'
p523
(dp524
g28
(lp525
S'42401 - SO2_._6864'
p526
aS'42601 - NO_._6865'
p527
aS'42602 - NO2_._6866'
p528
asg35
(lp529
S'151187.0 219057.0'
p530
aS'http://www.opengis.net/def/crs/EPSG/0/31370'
p531
assS'BETR892'
p532
(dp533
g28
(lp534
S'42401 - SO2_._6860'
p535
aS'42601 - NO_._6861'
p536
aS'42602 - NO2_._6862'
p537
asg35
(lp538
S'143727.0 217020.0'
p539
aS'http://www.opengis.net/def/crs/EPSG/0/31370'
p540
assS'BETR891'
p541
(dp542
g28
(lp543
S'42601 - NO_._6857'
p544
aS'42401 - SO2_._6856'
p545
aS'42602 - NO2_._6858'
p546
asg35
(lp547
S'151159.0 216212.0'
p548
aS'http://www.opengis.net/def/crs/EPSG/0/31370'
p549
assS'BETR897'
p550
(dp551
g28
(lp552
S'42602 - NO2_._6875'
p553
aS'42601 - NO_._6874'
p554
aS'42401 - SO2_._6873'
p555
asg35
(lp556
S'148139.0 215578.0'
p557
aS'http://www.opengis.net/def/crs/EPSG/0/31370'
p558
assS'BETR894'
p559
(dp560
g28
(lp561
S'42401 - SO2_._6868'
p562
aS'42601 - NO_._6869'
p563
aS'42602 - NO2_._6870'
p564
asg35
(lp565
S'148656.0 219293.0'
p566
aS'http://www.opengis.net/def/crs/EPSG/0/31370'
p567
assS'BETN100'
p568
(dp569
g28
(lp570
S'81102 - PM10_._6950'
p571
aS'81104 - PM2.5_._6951'
p572
aS'44201 - O3_._6949'
p573
aS'42602 - NO2_._6948'
p574
aS'42601 - NO_._6947'
p575
aS'42401 - SO2_._6946'
p576
asg35
(lp577
S'166172.0 87187.0'
p578
aS'http://www.opengis.net/def/crs/EPSG/0/31370'
p579
assS'BELAL01'
p580
(dp581
g28
(lp582
S'16111 - Black Carbon_._6151'
p583
aS'81102 - PM10_._6152'
p584
aS'81104 - PM2.5_._100008'
p585
asg35
(lp586
S'151150.0 214030.0'
p587
aS'http://www.opengis.net/def/crs/EPSG/0/31370'
p588
assS'BETE808'
p589
(dp590
sS'BELAL03'
p591
(dp592
g28
(lp593
S'81104 - PM2.5_._6155'
p594
asg35
(lp595
S'138320.0 216020.0'
p596
aS'http://www.opengis.net/def/crs/EPSG/0/31370'
p597
assS'BELAL02'
p598
(dp599
g28
(lp600
S'81102 - PM10_._6153'
p601
asg35
(lp602
S'140660.0 221640.0'
p603
aS'http://www.opengis.net/def/crs/EPSG/0/31370'
p604
assS'BELAL05'
p605
(dp606
g28
(lp607
S'81102 - PM10_._6157'
p608
asg35
(lp609
S'143727.0 217029.0'
p610
aS'http://www.opengis.net/def/crs/EPSG/0/31370'
p611
assS'BELAL04'
p612
(dp613
sS'BETN052'
p614
(dp615
g28
(lp616
S'81104 - PM2.5_._100010'
p617
aS'81102 - PM10_._7069'
p618
aS'44201 - O3_._7068'
p619
aS'42602 - NO2_._7067'
p620
aS'42601 - NO_._7066'
p621
aS'42401 - SO2_._7065'
p622
asg35
(lp623
S'76269.0 167678.0'
p624
aS'http://www.opengis.net/def/crs/EPSG/0/31370'
p625
assS'BETN051'
p626
(dp627
g28
(lp628
S'44201 - O3_._7064'
p629
aS'42602 - NO2_._7063'
p630
aS'42601 - NO_._7062'
p631
asg35
(lp632
S'119090.0 165475.0'
p633
aS'http://www.opengis.net/def/crs/EPSG/0/31370'
p634
assS'BETR710'
p635
(dp636
g28
(lp637
S'81104 - PM2.5_._99998'
p638
aS'81102 - PM10_._7092'
p639
aS'42602 - NO2_._7090'
p640
aS'44201 - O3_._7091'
p641
aS'42601 - NO_._7089'
p642
asg35
(lp643
S'108394.0 194736.0'
p644
aS'http://www.opengis.net/def/crs/EPSG/0/31370'
p645
assS'BETE812'
p646
(dp647
g28
(lp648
S'42602 - NO2_._7234'
p649
aS'42401 - SO2_._7232'
p650
aS'42601 - NO_._7233'
p651
asg35
(lp652
S'232111.0 184838.0'
p653
aS'http://www.opengis.net/def/crs/EPSG/0/31370'
p654
assS'BETR240'
p655
(dp656
g28
(lp657
S'42602 - NO2_._7017'
p658
aS'81102 - PM10_._7021'
p659
aS'44201 - O3_._7020'
p660
aS'81104 - PM2.5_._7022'
p661
aS'42601 - NO_._7016'
p662
aS'42401 - SO2_._7014'
p663
asg35
(lp664
S'222850.0 141940.0'
p665
aS'http://www.opengis.net/def/crs/EPSG/0/31370'
p666
assS'BETN054'
p667
(dp668
g28
(lp669
S'81104 - PM2.5_._100013'
p670
aS'42602 - NO2_._6747'
p671
aS'42601 - NO_._6746'
p672
aS'81102 - PM10_._6749'
p673
aS'44201 - O3_._6748'
p674
asg35
(lp675
S'201869.0 155940.0'
p676
aS'http://www.opengis.net/def/crs/EPSG/0/31370'
p677
assS'BELHB23'
p678
(dp679
g28
(lp680
S'81104 - PM2.5_._99999'
p681
aS'42602 - NO2_._6217'
p682
aS'42601 - NO_._6216'
p683
aS'42401 - SO2_._6215'
p684
aS'81102 - PM10_._6218'
p685
asg35
(lp686
S'148059.0 206699.0'
p687
aS'http://www.opengis.net/def/crs/EPSG/0/31370'
p688
assS'BETM705'
p689
(dp690
g28
(lp691
S'61110 - WSP-SCA_._99904'
p692
aS'81104 - PM2.5_._99996'
p693
aS'42601 - NO_._7031'
p694
aS'42602 - NO2_._7032'
p695
aS'44201 - O3_._7033'
p696
aS'16111 - Black Carbon_._7029'
p697
aS'62101 - TT_._99905'
p698
aS'61102 - DD_._99903'
p699
aS'81102 - PM10_._7034'
p700
asg35
(lp701
S'64521.0 182374.0'
p702
aS'http://www.opengis.net/def/crs/EPSG/0/31370'
p703
assS'BELOB01'
p704
(dp705
g28
(lp706
S'81102 - PM10_._6324'
p707
aS'42602 - NO2_._6323'
p708
aS'42601 - NO_._6322'
p709
aS'81104 - PM2.5_._100006'
p710
asg35
(lp711
S'75367.0 179078.0'
p712
aS'http://www.opengis.net/def/crs/EPSG/0/31370'
p713
assS'BETB004'
p714
(dp715
g28
(lp716
S'42601 - NO_._6507'
p717
aS'42101 - CO_._6506'
p718
aS'42602 - NO2_._6508'
p719
aS'44201 - O3_._6509'
p720
asg35
(lp721
S'148580.0 171157.0'
p722
aS'http://www.opengis.net/def/crs/EPSG/0/31370'
p723
assS'BETE810'
p724
(dp725
sS'BETN113'
p726
(dp727
g28
(lp728
S'42601 - NO_._6954'
p729
aS'42602 - NO2_._6955'
p730
aS'44201 - O3_._6956'
p731
aS'81102 - PM10_._6957'
p732
aS'81104 - PM2.5_._6958'
p733
asg35
(lp734
S'237720.0 80250.0'
p735
aS'http://www.opengis.net/def/crs/EPSG/0/31370'
p736
assS'BETMEU1'
p737
(dp738
g28
(lp739
S'42601 - NO_._6550'
p740
aS'42602 - NO2_._6551'
p741
aS'81102 - PM10_._6552'
p742
aS'81104 - PM2.5_._6553'
p743
aS'42401 - SO2_._6549'
p744
aS'42242 - Hg_._6548'
p745
asg35
(lp746
S'151686.0 176084.0'
p747
aS'http://www.opengis.net/def/crs/EPSG/0/31370'
p748
assS'BETGK11'
p749
(dp750
sS'BETN040'
p751
(dp752
g28
(lp753
S'42602 - NO2_._6718'
p754
aS'44201 - O3_._6719'
p755
aS'42601 - NO_._6717'
p756
asg35
(lp757
S'139873.0 161970.0'
p758
aS'http://www.opengis.net/def/crs/EPSG/0/31370'
p759
assS'BETN041'
p760
(dp761
sS'BETN043'
p762
(dp763
g28
(lp764
S'16111 - Black Carbon_._10693'
p765
aS'81104 - PM2.5_._6564'
p766
aS'42602 - NO2_._6561'
p767
aS'42601 - NO_._6560'
p768
aS'81102 - PM10_._6563'
p769
aS'44201 - O3_._6562'
p770
aS'42101 - CO_._6558'
p771
aS'42401 - SO2_._6559'
p772
asg35
(lp773
S'151000.0 174800.0'
p774
aS'http://www.opengis.net/def/crs/EPSG/0/31370'
p775
assS'BETN045'
p776
(dp777
g28
(lp778
S'42602 - NO2_._6726'
p779
aS'42601 - NO_._6725'
p780
aS'42401 - SO2_._6724'
p781
aS'81104 - PM2.5_._6740'
p782
aS'44201 - O3_._6731'
p783
aS'45201 - C6H6_._6733'
p784
aS'81102 - PM10_._6739'
p785
aS'16111 - Black Carbon_._10608'
p786
asg35
(lp787
S'220258.0 181520.0'
p788
aS'http://www.opengis.net/def/crs/EPSG/0/31370'
p789
assS'BETN046'
p790
(dp791
g28
(lp792
S'44201 - O3_._6744'
p793
aS'42602 - NO2_._6743'
p794
aS'42601 - NO_._6742'
p795
asg35
(lp796
S'237970.0 175401.0'
p797
aS'http://www.opengis.net/def/crs/EPSG/0/31370'
p798
assS'BELR801'
p799
(dp800
g28
(lp801
S'90500 - PN1'
p802
asg35
(lp803
S'154407.0 211080.0'
p804
aS'http://www.opengis.net/def/crs/EPSG/0/31370'
p805
assS'BETE007'
p806
(dp807
g28
(lp808
S'42602 - NO2_._7177'
p809
aS'42601 - NO_._7176'
p810
asg35
(lp811
S'141813.0 164988.0'
p812
aS'http://www.opengis.net/def/crs/EPSG/0/31370'
p813
assS'BETE009'
p814
(dp815
g28
(lp816
S'42601 - NO_._7182'
p817
aS'42602 - NO2_._7183'
p818
asg35
(lp819
S'154684.0 182740.0'
p820
aS'http://www.opengis.net/def/crs/EPSG/0/31370'
p821
assS'BETE008'
p822
(dp823
g28
(lp824
S'42601 - NO_._7179'
p825
aS'42602 - NO2_._7180'
p826
asg35
(lp827
S'151910.0 179532.0'
p828
aS'http://www.opengis.net/def/crs/EPSG/0/31370'
p829
assS'BETR020'
p830
(dp831
g28
(lp832
S'81104 - PM2.5_._100016'
p833
aS'81102 - PM10_._6771'
p834
aS'42602 - NO2_._6769'
p835
aS'42601 - NO_._6768'
p836
aS'42401 - SO2_._6767'
p837
aS'42101 - CO_._6766'
p838
asg35
(lp839
S'154777.0 181235.0'
p840
aS'http://www.opengis.net/def/crs/EPSG/0/31370'
p841
assS'BETR502'
p842
(dp843
g28
(lp844
S'81104 - PM2.5_._7144'
p845
aS'42601 - NO_._7140'
p846
aS'42602 - NO2_._7141'
p847
aS'44201 - O3_._7142'
p848
aS'81102 - PM10_._7143'
p849
asg35
(lp850
S'156390.0 124240.0'
p851
aS'http://www.opengis.net/def/crs/EPSG/0/31370'
p852
assS'BELLD02'
p853
(dp854
g28
(lp855
S'42601 - NO_._6280'
p856
aS'42602 - NO2_._6281'
p857
aS'45201 - C6H6_._6283'
p858
asg35
(lp859
S'195705.0 201347.0'
p860
aS'http://www.opengis.net/def/crs/EPSG/0/31370'
p861
assS'BETB011'
p862
(dp863
g28
(lp864
S'81104 - PM2.5_._6532'
p865
aS'44201 - O3_._6530'
p866
aS'81102 - PM10_._6531'
p867
aS'42601 - NO_._6527'
p868
aS'42602 - NO2_._6528'
p869
aS'62101 - TT_._99914'
p870
asg35
(lp871
S'144338.0 171963.0'
p872
aS'http://www.opengis.net/def/crs/EPSG/0/31370'
p873
assS'BETN070'
p874
(dp875
g28
(lp876
S'81104 - PM2.5_._6920'
p877
aS'42101 - CO_._6914'
p878
aS'42401 - SO2_._6915'
p879
aS'42601 - NO_._6916'
p880
aS'42602 - NO2_._6917'
p881
aS'44201 - O3_._6918'
p882
aS'81102 - PM10_._6919'
p883
asg35
(lp884
S'119540.0 128350.0'
p885
aS'http://www.opengis.net/def/crs/EPSG/0/31370'
p886
assS'BETN073'
p887
(dp888
g28
(lp889
S'44201 - O3_._6925'
p890
aS'42602 - NO2_._6924'
p891
aS'81104 - PM2.5_._6927'
p892
aS'81102 - PM10_._6926'
p893
aS'42601 - NO_._6923'
p894
asg35
(lp895
S'193960.0 132620.0'
p896
aS'http://www.opengis.net/def/crs/EPSG/0/31370'
p897
assS'BETR731'
p898
(dp899
g28
(lp900
S'42401 - SO2_._7103'
p901
aS'81102 - PM10_._7106'
p902
aS'81104 - PM2.5_._7107'
p903
aS'42601 - NO_._7104'
p904
aS'42602 - NO2_._7105'
p905
asg35
(lp906
S'105947.0 201811.0'
p907
aS'http://www.opengis.net/def/crs/EPSG/0/31370'
p908
assS'BETE809'
p909
(dp910
sS'BETR834'
p911
(dp912
g28
(lp913
S'81104 - PM2.5_._100011'
p914
aS'42602 - NO2_._10611'
p915
aS'81102 - PM10_._10610'
p916
aS'42601 - NO_._10612'
p917
asg35
(lp918
S'150795.0 197988.0'
p919
aS'http://www.opengis.net/def/crs/EPSG/0/31370'
p920
assS'BELLD01'
p921
(dp922
g28
(lp923
S'42601 - NO_._6271'
p924
aS'42602 - NO2_._6272'
p925
aS'45201 - C6H6_._6274'
p926
asg35
(lp927
S'194547.0 200179.0'
p928
aS'http://www.opengis.net/def/crs/EPSG/0/31370'
p929
assS'BETR831'
p930
(dp931
g28
(lp932
S'81104 - PM2.5_._100015'
p933
aS'42401 - SO2_._6828'
p934
aS'42601 - NO_._6829'
p935
aS'81102 - PM10_._10600'
p936
aS'44201 - O3_._6832'
p937
aS'42602 - NO2_._6830'
p938
asg35
(lp939
S'147976.0 226558.0'
p940
aS'http://www.opengis.net/def/crs/EPSG/0/31370'
p941
assS'BETR830'
p942
(dp943
g28
(lp944
S'42401 - SO2_._6824'
p945
aS'42601 - NO_._6825'
p946
aS'42602 - NO2_._6826'
p947
asg35
(lp948
S'142601.0 223162.0'
p949
aS'http://www.opengis.net/def/crs/EPSG/0/31370'
p950
assS'BETR221'
p951
(dp952
g28
(lp953
S'16111 - Black Carbon_._6988'
p954
aS'44201 - O3_._10701'
p955
aS'42602 - NO2_._10700'
p956
aS'42601 - NO_._10699'
p957
aS'81104 - PM2.5_._6994'
p958
aS'42401 - SO2_._6990'
p959
aS'81102 - PM10_._6993'
p960
aS'62101 - TT_._99932'
p961
asg35
(lp962
S'239023.0 150514.0'
p963
aS'http://www.opengis.net/def/crs/EPSG/0/31370'
p964
assS'BETR222'
p965
(dp966
g28
(lp967
S'81104 - PM2.5_._7001'
p968
aS'81102 - PM10_._7000'
p969
aS'42602 - NO2_._6998'
p970
aS'44201 - O3_._6999'
p971
aS'42101 - CO_._6995'
p972
aS'42401 - SO2_._6996'
p973
aS'42601 - NO_._6997'
p974
asg35
(lp975
S'235031.0 145438.0'
p976
aS'http://www.opengis.net/def/crs/EPSG/0/31370'
p977
assS'BETR223'
p978
(dp979
g28
(lp980
S'42101 - CO_._7003'
p981
aS'81104 - PM2.5_._7009'
p982
aS'42601 - NO_._7005'
p983
aS'42401 - SO2_._7004'
p984
aS'42602 - NO2_._7006'
p985
aS'62101 - TT_._99935'
p986
aS'81102 - PM10_._7008'
p987
asg35
(lp988
S'231210.0 146185.0'
p989
aS'http://www.opengis.net/def/crs/EPSG/0/31370'
p990
assS'BETE805'
p991
(dp992
sS'BETE804'
p993
(dp994
g28
(lp995
S'42602 - NO2_._7210'
p996
aS'42601 - NO_._7209'
p997
asg35
(lp998
S'145702.0 219060.0'
p999
aS'http://www.opengis.net/def/crs/EPSG/0/31370'
p1000
assS'BETE807'
p1001
(dp1002
sS'BETE806'
p1003
(dp1004
sS'BELR833'
p1005
(dp1006
g28
(lp1007
S'45201 - C6H6_._6842'
p1008
aS'16111 - Black Carbon_._6840'
p1009
aS'42601 - NO_._10688'
p1010
aS'42602 - NO2_._10689'
p1011
asg35
(lp1012
S'149547.0 224206.0'
p1013
aS'http://www.opengis.net/def/crs/EPSG/0/31370'
p1014
assS'BETE013'
p1015
(dp1016
g28
(lp1017
S'42601 - NO_._7185'
p1018
aS'42602 - NO2_._7186'
p1019
asg35
(lp1020
S'147155.0 166807.0'
p1021
aS'http://www.opengis.net/def/crs/EPSG/0/31370'
p1022
assS'BETN063'
p1023
(dp1024
g28
(lp1025
S'42101 - CO_._6895'
p1026
aS'42601 - NO_._6897'
p1027
aS'42401 - SO2_._6896'
p1028
aS'44201 - O3_._6899'
p1029
aS'42602 - NO2_._6898'
p1030
aS'81104 - PM2.5_._6901'
p1031
aS'81102 - PM10_._6900'
p1032
asg35
(lp1033
S'171181.0 149467.0'
p1034
aS'http://www.opengis.net/def/crs/EPSG/0/31370'
p1035
assS'BETN060'
p1036
(dp1037
g28
(lp1038
S'44201 - O3_._6891'
p1039
aS'42602 - NO2_._6890'
p1040
aS'81104 - PM2.5_._6893'
p1041
aS'81102 - PM10_._6892'
p1042
aS'42101 - CO_._6887'
p1043
aS'42401 - SO2_._6888'
p1044
aS'42601 - NO_._6889'
p1045
asg35
(lp1046
S'85521.0 145512.0'
p1047
aS'http://www.opengis.net/def/crs/EPSG/0/31370'
p1048
assS'BETB003'
p1049
(dp1050
sS'BETN066'
p1051
(dp1052
g28
(lp1053
S'44201 - O3_._6907'
p1054
aS'42602 - NO2_._6906'
p1055
aS'42601 - NO_._6905'
p1056
aS'42401 - SO2_._6904'
p1057
asg35
(lp1058
S'265570.0 147740.0'
p1059
aS'http://www.opengis.net/def/crs/EPSG/0/31370'
p1060
assS'BETN067'
p1061
(dp1062
g28
(lp1063
S'81102 - PM10_._6911'
p1064
aS'81104 - PM2.5_._6912'
p1065
aS'89101 - PM1_._6913'
p1066
asg35
(lp1067
S'264933.0 145881.0'
p1068
aS'http://www.opengis.net/def/crs/EPSG/0/31370'
p1069
assS'BETB006'
p1070
(dp1071
g28
(lp1072
S'45203 - C6H5-C2H5_._6521'
p1073
aS'45202 - C6H5-CH3_._6520'
p1074
aS'45204 - o-C6H4-(CH3)2_._6522'
p1075
aS'45201 - C6H6_._6519'
p1076
aS'42101 - CO_._6514'
p1077
aS'42601 - NO_._6515'
p1078
aS'42602 - NO2_._6516'
p1079
aS'44201 - O3_._6517'
p1080
asg35
(lp1081
S'150397.0 169802.0'
p1082
aS'http://www.opengis.net/def/crs/EPSG/0/31370'
p1083
assS'BETE811'
p1084
(dp1085
g28
(lp1086
S'42401 - SO2_._7229'
p1087
aS'42601 - NO_._7230'
p1088
aS'42602 - NO2_._7231'
p1089
asg35
(lp1090
S'223827.0 176810.0'
p1091
aS'http://www.opengis.net/def/crs/EPSG/0/31370'
p1092
assS'BETB008'
p1093
(dp1094
g28
(lp1095
S'42601 - NO_._10613'
p1096
aS'42401 - SO2_._10615'
p1097
aS'42602 - NO2_._10614'
p1098
aS'42101 - CO_._10616'
p1099
asg35
(lp1100
S'150521.0 170042.0'
p1101
aS'http://www.opengis.net/def/crs/EPSG/0/31370'
p1102
assS'BELTS20'
p1103
(dp1104
sS'BETR501'
p1105
(dp1106
g28
(lp1107
S'42601 - NO_._7131'
p1108
aS'81102 - PM10_._7135'
p1109
aS'81104 - PM2.5_._7136'
p1110
aS'42101 - CO_._7129'
p1111
aS'42401 - SO2_._7130'
p1112
aS'42602 - NO2_._7132'
p1113
asg35
(lp1114
S'155930.0 122050.0'
p1115
aS'http://www.opengis.net/def/crs/EPSG/0/31370'
p1116
assS'BETR702'
p1117
(dp1118
g28
(lp1119
S'42602 - NO2_._10703'
p1120
aS'42601 - NO_._10702'
p1121
aS'16111 - Black Carbon_._10706'
p1122
aS'81104 - PM2.5_._10705'
p1123
aS'81102 - PM10_._10704'
p1124
asg35
(lp1125
S'105550.0 192469.0'
p1126
aS'http://www.opengis.net/def/crs/EPSG/0/31370'
p1127
assS'BETR822'
p1128
(dp1129
g28
(lp1130
S'42401 - SO2_._6815'
p1131
aS'42602 - NO2_._6817'
p1132
aS'42601 - NO_._6816'
p1133
asg35
(lp1134
S'148082.0 217156.0'
p1135
aS'http://www.opengis.net/def/crs/EPSG/0/31370'
p1136
assS'BETR820'
p1137
(dp1138
g28
(lp1139
S'42401 - SO2_._6809'
p1140
aS'42602 - NO2_._10698'
p1141
aS'42601 - NO_._10697'
p1142
asg35
(lp1143
S'155302.0 223403.0'
p1144
aS'http://www.opengis.net/def/crs/EPSG/0/31370'
p1145
assS'BETR821'
p1146
(dp1147
g28
(lp1148
S'42601 - NO_._6813'
p1149
aS'42401 - SO2_._6812'
p1150
aS'42602 - NO2_._6814'
p1151
asg35
(lp1152
S'141724.0 211734.0'
p1153
aS'http://www.opengis.net/def/crs/EPSG/0/31370'
p1154
assS'BELSZ01'
p1155
(dp1156
g28
(lp1157
S'81104 - PM2.5_._6356'
p1158
aS'16111 - Black Carbon_._6343'
p1159
aS'42601 - NO_._6347'
p1160
aS'42602 - NO2_._6348'
p1161
asg35
(lp1162
S'159524.0 178259.0'
p1163
aS'http://www.opengis.net/def/crs/EPSG/0/31370'
p1164
assS'BELSZ02'
p1165
(dp1166
g28
(lp1167
S'81104 - PM2.5_._100009'
p1168
aS'81102 - PM10_._6368'
p1169
aS'42602 - NO2_._6361'
p1170
aS'42601 - NO_._6360'
p1171
asg35
(lp1172
S'160087.0 178087.0'
p1173
aS'http://www.opengis.net/def/crs/EPSG/0/31370'
p1174
assS'BELML01'
p1175
(dp1176
ssS'procedure'
p1177
(dp1178
S'6723'
p1179
(dp1180
g28
(lp1181
S'42101 - CO_._6723'
p1182
asS'FOI'
p1183
g9
((ltRp1184
sS'obsProperty'
p1185
S'42101 - CO'
p1186
ssS'6722'
p1187
(dp1188
g28
(lp1189
S'44201 - O3_._6722'
p1190
asg1183
g9
((ltRp1191
sg1185
S'44201 - O3'
p1192
ssS'6726'
p1193
(dp1194
g28
(lp1195
g779
asg1183
g9
((lp1196
S'BETN045'
p1197
atRp1198
sg1185
S'42602 - NO2'
p1199
ssS'6725'
p1200
(dp1201
g28
(lp1202
g780
asg1183
g9
((lp1203
S'BETN045'
p1204
atRp1205
sg1185
S'42601 - NO'
p1206
ssS'6724'
p1207
(dp1208
g28
(lp1209
g781
asg1183
g9
((lp1210
S'BETN045'
p1211
atRp1212
sg1185
S'42401 - SO2'
p1213
ssS'6842'
p1214
(dp1215
g28
(lp1216
g1008
asg1183
g9
((lp1217
S'BELR833'
p1218
atRp1219
sg1185
S'45201 - C6H6'
p1220
ssS'7003'
p1221
(dp1222
g28
(lp1223
g981
asg1183
g9
((lp1224
S'BETR223'
p1225
atRp1226
sg1185
S'42101 - CO'
p1227
ssS'6954'
p1228
(dp1229
g28
(lp1230
g729
asg1183
g9
((lp1231
S'BETN113'
p1232
atRp1233
sg1185
S'42601 - NO'
p1234
ssS'6955'
p1235
(dp1236
g28
(lp1237
g730
asg1183
g9
((lp1238
S'BETN113'
p1239
atRp1240
sg1185
S'42602 - NO2'
p1241
ssS'99904'
p1242
(dp1243
g28
(lp1244
g692
asg1183
g9
((lp1245
S'BETM705'
p1246
atRp1247
sg1185
S'61110 - WSP-SCA'
p1248
ssS'7045'
p1249
(dp1250
g28
(lp1251
g403
asg1183
g9
((lp1252
S'BETN029'
p1253
atRp1254
sg1185
S'42401 - SO2'
p1255
ssS'6151'
p1256
(dp1257
g28
(lp1258
g583
asg1183
g9
((lp1259
S'BELAL01'
p1260
atRp1261
sg1185
S'16111 - Black Carbon'
p1262
ssS'6152'
p1263
(dp1264
g28
(lp1265
g584
asg1183
g9
((lp1266
S'BELAL01'
p1267
atRp1268
sg1185
S'81102 - PM10'
p1269
ssS'6153'
p1270
(dp1271
g28
(lp1272
g601
asg1183
g9
((lp1273
S'BELAL02'
p1274
atRp1275
sg1185
S'81102 - PM10'
p1276
ssS'6154'
p1277
(dp1278
g28
(lp1279
S'81104 - PM2.5_._6154'
p1280
asg1183
g9
((ltRp1281
sg1185
S'81104 - PM2.5'
p1282
ssS'6155'
p1283
(dp1284
g28
(lp1285
g594
asg1183
g9
((lp1286
S'BELAL03'
p1287
atRp1288
sg1185
S'81104 - PM2.5'
p1289
ssS'6156'
p1290
(dp1291
g28
(lp1292
S'81104 - PM2.5_._6156'
p1293
asg1183
g9
((ltRp1294
sg1185
S'81104 - PM2.5'
p1295
ssS'6157'
p1296
(dp1297
g28
(lp1298
g608
asg1183
g9
((lp1299
S'BELAL05'
p1300
atRp1301
sg1185
S'81102 - PM10'
p1302
ssS'6158'
p1303
(dp1304
g28
(lp1305
S'81104 - PM2.5_._6158'
p1306
asg1183
g9
((ltRp1307
sg1185
S'81104 - PM2.5'
p1308
ssS'6843'
p1309
(dp1310
g28
(lp1311
S'45202 - C6H5-CH3_._6843'
p1312
asg1183
g9
((ltRp1313
sg1185
S'45202 - C6H5-CH3'
p1314
ssS'6840'
p1315
(dp1316
g28
(lp1317
g1009
asg1183
g9
((lp1318
S'BELR833'
p1319
atRp1320
sg1185
S'16111 - Black Carbon'
p1321
ssS'6841'
p1322
(dp1323
g28
(lp1324
S'45109 - m,p-C6H4(CH3)2_._6841'
p1325
asg1183
g9
((ltRp1326
sg1185
S'45109 - m,p-C6H4(CH3)2'
p1327
ssS'7049'
p1328
(dp1329
g28
(lp1330
S'45109 - m,p-C6H4(CH3)2_._7049'
p1331
asg1183
g9
((ltRp1332
sg1185
S'45109 - m,p-C6H4(CH3)2'
p1333
ssS'7048'
p1334
(dp1335
g28
(lp1336
g404
asg1183
g9
((lp1337
S'BETN029'
p1338
atRp1339
sg1185
S'44201 - O3'
p1340
ssS'6844'
p1341
(dp1342
g28
(lp1343
S'45203 - C6H5-C2H5_._6844'
p1344
asg1183
g9
((ltRp1345
sg1185
S'45203 - C6H5-C2H5'
p1346
ssS'6845'
p1347
(dp1348
g28
(lp1349
S'45204 - o-C6H4-(CH3)2_._6845'
p1350
asg1183
g9
((ltRp1351
sg1185
S'45204 - o-C6H4-(CH3)2'
p1352
ssS'6794'
p1353
(dp1354
g28
(lp1355
g315
asg1183
g9
((lp1356
S'BETR811'
p1357
atRp1358
sg1185
S'81102 - PM10'
p1359
ssS'6792'
p1360
(dp1361
g28
(lp1362
g316
asg1183
g9
((lp1363
S'BETR811'
p1364
atRp1365
sg1185
S'42602 - NO2'
p1366
ssS'6793'
p1367
(dp1368
g28
(lp1369
g317
asg1183
g9
((lp1370
S'BETR811'
p1371
atRp1372
sg1185
S'44201 - O3'
p1373
ssS'6791'
p1374
(dp1375
g28
(lp1376
g318
asg1183
g9
((lp1377
S'BETR811'
p1378
atRp1379
sg1185
S'42601 - NO'
p1380
ssS'99999'
p1381
(dp1382
g28
(lp1383
g681
asg1183
g9
((lp1384
S'BELHB23'
p1385
atRp1386
sg1185
S'81104 - PM2.5'
p1387
ssS'99998'
p1388
(dp1389
g28
(lp1390
g638
asg1183
g9
((lp1391
S'BETR710'
p1392
atRp1393
sg1185
S'81104 - PM2.5'
p1394
ssS'6988'
p1395
(dp1396
g28
(lp1397
g954
asg1183
g9
((lp1398
S'BETR221'
p1399
atRp1400
sg1185
S'16111 - Black Carbon'
p1401
ssS'99993'
p1402
(dp1403
g28
(lp1404
g802
asg1183
g9
((lp1405
S'BELR801'
p1406
atRp1407
sg1185
S'90500 - PN1'
p1408
ssS'99995'
p1409
(dp1410
g28
(lp1411
g333
asg1183
g9
((lp1412
S'BETR815'
p1413
atRp1414
sg1185
S'81104 - PM2.5'
p1415
ssS'99994'
p1416
(dp1417
g28
(lp1418
g455
asg1183
g9
((lp1419
S'BETM802'
p1420
atRp1421
sg1185
S'81104 - PM2.5'
p1422
ssS'99997'
p1423
(dp1424
g28
(lp1425
g160
asg1183
g9
((lp1426
S'BETN012'
p1427
atRp1428
sg1185
S'81104 - PM2.5'
p1429
ssS'99996'
p1430
(dp1431
g28
(lp1432
g693
asg1183
g9
((lp1433
S'BETM705'
p1434
atRp1435
sg1185
S'81104 - PM2.5'
p1436
ssS'6386'
p1437
(dp1438
g28
(lp1439
S'42242 - Hg_._6386'
p1440
asg1183
g9
((ltRp1441
sg1185
S'42242 - Hg'
p1442
ssS'100016'
p1443
(dp1444
g28
(lp1445
g833
asg1183
g9
((lp1446
S'BETR020'
p1447
atRp1448
sg1185
S'81104 - PM2.5'
p1449
ssS'100017'
p1450
(dp1451
g28
(lp1452
g319
asg1183
g9
((lp1453
S'BETR811'
p1454
atRp1455
sg1185
S'81104 - PM2.5'
p1456
ssS'100014'
p1457
(dp1458
g28
(lp1459
g303
asg1183
g9
((lp1460
S'BETN035'
p1461
atRp1462
sg1185
S'81104 - PM2.5'
p1463
ssS'100015'
p1464
(dp1465
g28
(lp1466
g933
asg1183
g9
((lp1467
S'BETR831'
p1468
atRp1469
sg1185
S'81104 - PM2.5'
p1470
ssS'100012'
p1471
(dp1472
g28
(lp1473
g51
asg1183
g9
((lp1474
S'BETR750'
p1475
atRp1476
sg1185
S'81104 - PM2.5'
p1477
ssS'100013'
p1478
(dp1479
g28
(lp1480
g670
asg1183
g9
((lp1481
S'BETN054'
p1482
atRp1483
sg1185
S'81104 - PM2.5'
p1484
ssS'100010'
p1485
(dp1486
g28
(lp1487
g617
asg1183
g9
((lp1488
S'BETN052'
p1489
atRp1490
sg1185
S'81104 - PM2.5'
p1491
ssS'100011'
p1492
(dp1493
g28
(lp1494
g914
asg1183
g9
((lp1495
S'BETR834'
p1496
atRp1497
sg1185
S'81104 - PM2.5'
p1498
ssS'100018'
p1499
(dp1500
g28
(lp1501
g147
asg1183
g9
((lp1502
S'BETN016'
p1503
atRp1504
sg1185
S'81104 - PM2.5'
p1505
ssS'10703'
p1506
(dp1507
g28
(lp1508
g1120
asg1183
g9
((lp1509
S'BETR702'
p1510
atRp1511
sg1185
S'42602 - NO2'
p1512
ssS'10702'
p1513
(dp1514
g28
(lp1515
g1121
asg1183
g9
((lp1516
S'BETR702'
p1517
atRp1518
sg1185
S'42601 - NO'
p1519
ssS'10701'
p1520
(dp1521
g28
(lp1522
g955
asg1183
g9
((lp1523
S'BETR221'
p1524
atRp1525
sg1185
S'44201 - O3'
p1526
ssS'10700'
p1527
(dp1528
g28
(lp1529
g956
asg1183
g9
((lp1530
S'BETR221'
p1531
atRp1532
sg1185
S'42602 - NO2'
p1533
ssS'10706'
p1534
(dp1535
g28
(lp1536
g1122
asg1183
g9
((lp1537
S'BETR702'
p1538
atRp1539
sg1185
S'16111 - Black Carbon'
p1540
ssS'10705'
p1541
(dp1542
g28
(lp1543
g1123
asg1183
g9
((lp1544
S'BETR702'
p1545
atRp1546
sg1185
S'81104 - PM2.5'
p1547
ssS'10704'
p1548
(dp1549
g28
(lp1550
g1124
asg1183
g9
((lp1551
S'BETR702'
p1552
atRp1553
sg1185
S'81102 - PM10'
p1554
ssS'6932'
p1555
(dp1556
g28
(lp1557
g210
asg1183
g9
((lp1558
S'BETN085'
p1559
atRp1560
sg1185
S'42401 - SO2'
p1561
ssS'6933'
p1562
(dp1563
g28
(lp1564
g211
asg1183
g9
((lp1565
S'BETN085'
p1566
atRp1567
sg1185
S'42601 - NO'
p1568
ssS'6930'
p1569
(dp1570
g28
(lp1571
g212
asg1183
g9
((lp1572
S'BETN085'
p1573
atRp1574
sg1185
S'42101 - CO'
p1575
ssS'6931'
p1576
(dp1577
g28
(lp1578
g213
asg1183
g9
((lp1579
S'BETN085'
p1580
atRp1581
sg1185
S'42242 - Hg'
p1582
ssS'6936'
p1583
(dp1584
g28
(lp1585
g214
asg1183
g9
((lp1586
S'BETN085'
p1587
atRp1588
sg1185
S'81102 - PM10'
p1589
ssS'6937'
p1590
(dp1591
g28
(lp1592
g215
asg1183
g9
((lp1593
S'BETN085'
p1594
atRp1595
sg1185
S'81104 - PM2.5'
p1596
ssS'6934'
p1597
(dp1598
g28
(lp1599
g216
asg1183
g9
((lp1600
S'BETN085'
p1601
atRp1602
sg1185
S'42602 - NO2'
p1603
ssS'6935'
p1604
(dp1605
g28
(lp1606
g217
asg1183
g9
((lp1607
S'BETN085'
p1608
atRp1609
sg1185
S'44201 - O3'
p1610
ssS'6938'
p1611
(dp1612
g28
(lp1613
S'89101 - PM1_._6938'
p1614
asg1183
g9
((ltRp1615
sg1185
S'89101 - PM1'
p1616
ssS'6939'
p1617
(dp1618
g28
(lp1619
g118
asg1183
g9
((lp1620
S'BETN093'
p1621
atRp1622
sg1185
S'42401 - SO2'
p1623
ssS'6271'
p1624
(dp1625
g28
(lp1626
g924
asg1183
g9
((lp1627
S'BELLD01'
p1628
atRp1629
sg1185
S'42601 - NO'
p1630
ssS'6273'
p1631
(dp1632
g28
(lp1633
S'45109 - m,p-C6H4(CH3)2_._6273'
p1634
asg1183
g9
((ltRp1635
sg1185
S'45109 - m,p-C6H4(CH3)2'
p1636
ssS'6272'
p1637
(dp1638
g28
(lp1639
g925
asg1183
g9
((lp1640
S'BELLD01'
p1641
atRp1642
sg1185
S'42602 - NO2'
p1643
ssS'6275'
p1644
(dp1645
g28
(lp1646
S'45202 - C6H5-CH3_._6275'
p1647
asg1183
g9
((ltRp1648
sg1185
S'45202 - C6H5-CH3'
p1649
ssS'6274'
p1650
(dp1651
g28
(lp1652
g926
asg1183
g9
((lp1653
S'BELLD01'
p1654
atRp1655
sg1185
S'45201 - C6H6'
p1656
ssS'6277'
p1657
(dp1658
g28
(lp1659
S'45204 - o-C6H4-(CH3)2_._6277'
p1660
asg1183
g9
((ltRp1661
sg1185
S'45204 - o-C6H4-(CH3)2'
p1662
ssS'6276'
p1663
(dp1664
g28
(lp1665
S'45203 - C6H5-C2H5_._6276'
p1666
asg1183
g9
((ltRp1667
sg1185
S'45203 - C6H5-C2H5'
p1668
ssS'6503'
p1669
(dp1670
g28
(lp1671
S'42601 - NO_._6503'
p1672
asg1183
g9
((ltRp1673
sg1185
S'42601 - NO'
p1674
ssS'6502'
p1675
(dp1676
g28
(lp1677
S'42401 - SO2_._6502'
p1678
asg1183
g9
((ltRp1679
sg1185
S'42401 - SO2'
p1680
ssS'6501'
p1681
(dp1682
g28
(lp1683
S'42102 - CO2_._6501'
p1684
asg1183
g9
((ltRp1685
sg1185
S'42102 - CO2'
p1686
ssS'6500'
p1687
(dp1688
g28
(lp1689
S'42101 - CO_._6500'
p1690
asg1183
g9
((ltRp1691
sg1185
S'42101 - CO'
p1692
ssS'6507'
p1693
(dp1694
g28
(lp1695
g717
asg1183
g9
((lp1696
S'BETB004'
p1697
atRp1698
sg1185
S'42601 - NO'
p1699
ssS'6506'
p1700
(dp1701
g28
(lp1702
g718
asg1183
g9
((lp1703
S'BETB004'
p1704
atRp1705
sg1185
S'42101 - CO'
p1706
ssS'6504'
p1707
(dp1708
g28
(lp1709
S'42602 - NO2_._6504'
p1710
asg1183
g9
((ltRp1711
sg1185
S'42602 - NO2'
p1712
ssS'7009'
p1713
(dp1714
g28
(lp1715
g982
asg1183
g9
((lp1716
S'BETR223'
p1717
atRp1718
sg1185
S'81104 - PM2.5'
p1719
ssS'99925'
p1720
(dp1721
g28
(lp1722
S'61110 - WSP-SCA_._99925'
p1723
asg1183
g9
((ltRp1724
sg1185
S'61110 - WSP-SCA'
p1725
ssS'99937'
p1726
(dp1727
g28
(lp1728
S'61110 - WSP-SCA_._99937'
p1729
asg1183
g9
((ltRp1730
sg1185
S'61110 - WSP-SCA'
p1731
ssS'6430'
p1732
(dp1733
g28
(lp1734
g294
asg1183
g9
((lp1735
S'BELWZ02'
p1736
atRp1737
sg1185
S'42401 - SO2'
p1738
ssS'6204'
p1739
(dp1740
g28
(lp1741
S'45203 - C6H5-C2H5_._6204'
p1742
asg1183
g9
((ltRp1743
sg1185
S'45203 - C6H5-C2H5'
p1744
ssS'6205'
p1745
(dp1746
g28
(lp1747
S'45204 - o-C6H4-(CH3)2_._6205'
p1748
asg1183
g9
((ltRp1749
sg1185
S'45204 - o-C6H4-(CH3)2'
p1750
ssS'6206'
p1751
(dp1752
g28
(lp1753
S'81102 - PM10_._6206'
p1754
asg1183
g9
((ltRp1755
sg1185
S'81102 - PM10'
p1756
ssS'6207'
p1757
(dp1758
g28
(lp1759
S'42242 - Hg_._6207'
p1760
asg1183
g9
((ltRp1761
sg1185
S'42242 - Hg'
p1762
ssS'6200'
p1763
(dp1764
g28
(lp1765
g200
asg1183
g9
((lp1766
S'BELGK09'
p1767
atRp1768
sg1185
S'42602 - NO2'
p1769
ssS'6201'
p1770
(dp1771
g28
(lp1772
S'45109 - m,p-C6H4(CH3)2_._6201'
p1773
asg1183
g9
((ltRp1774
sg1185
S'45109 - m,p-C6H4(CH3)2'
p1775
ssS'6202'
p1776
(dp1777
g28
(lp1778
g201
asg1183
g9
((lp1779
S'BELGK09'
p1780
atRp1781
sg1185
S'45201 - C6H6'
p1782
ssS'6203'
p1783
(dp1784
g28
(lp1785
S'45202 - C6H5-CH3_._6203'
p1786
asg1183
g9
((ltRp1787
sg1185
S'45202 - C6H5-CH3'
p1788
ssS'6809'
p1789
(dp1790
g28
(lp1791
g1140
asg1183
g9
((lp1792
S'BETR820'
p1793
atRp1794
sg1185
S'42401 - SO2'
p1795
ssS'6804'
p1796
(dp1797
g28
(lp1798
g334
asg1183
g9
((lp1799
S'BETR815'
p1800
atRp1801
sg1185
S'81102 - PM10'
p1802
ssS'6802'
p1803
(dp1804
g28
(lp1805
g335
asg1183
g9
((lp1806
S'BETR815'
p1807
atRp1808
sg1185
S'42601 - NO'
p1809
ssS'6803'
p1810
(dp1811
g28
(lp1812
g336
asg1183
g9
((lp1813
S'BETR815'
p1814
atRp1815
sg1185
S'42602 - NO2'
p1816
ssS'6800'
p1817
(dp1818
g28
(lp1819
g337
asg1183
g9
((lp1820
S'BETR815'
p1821
atRp1822
sg1185
S'16111 - Black Carbon'
p1823
ssS'6801'
p1824
(dp1825
g28
(lp1826
g338
asg1183
g9
((lp1827
S'BETR815'
p1828
atRp1829
sg1185
S'42401 - SO2'
p1830
ssS'6613'
p1831
(dp1832
g28
(lp1833
g514
asg1183
g9
((lp1834
S'BETR002'
p1835
atRp1836
sg1185
S'42401 - SO2'
p1837
ssS'6612'
p1838
(dp1839
g28
(lp1840
g515
asg1183
g9
((lp1841
S'BETR002'
p1842
atRp1843
sg1185
S'42102 - CO2'
p1844
ssS'6611'
p1845
(dp1846
g28
(lp1847
g516
asg1183
g9
((lp1848
S'BETR002'
p1849
atRp1850
sg1185
S'42101 - CO'
p1851
ssS'99927'
p1852
(dp1853
g28
(lp1854
S'61102 - DD_._99927'
p1855
asg1183
g9
((ltRp1856
sg1185
S'61102 - DD'
p1857
ssS'6615'
p1858
(dp1859
g28
(lp1860
g517
asg1183
g9
((lp1861
S'BETR002'
p1862
atRp1863
sg1185
S'42602 - NO2'
p1864
ssS'6614'
p1865
(dp1866
g28
(lp1867
g518
asg1183
g9
((lp1868
S'BETR002'
p1869
atRp1870
sg1185
S'42601 - NO'
p1871
ssS'7001'
p1872
(dp1873
g28
(lp1874
g968
asg1183
g9
((lp1875
S'BETR222'
p1876
atRp1877
sg1185
S'81104 - PM2.5'
p1878
ssS'7000'
p1879
(dp1880
g28
(lp1881
g969
asg1183
g9
((lp1882
S'BETR222'
p1883
atRp1884
sg1185
S'81102 - PM10'
p1885
ssS'6619'
p1886
(dp1887
g28
(lp1888
g345
asg1183
g9
((lp1889
S'BETR012'
p1890
atRp1891
sg1185
S'42102 - CO2'
p1892
ssS'7005'
p1893
(dp1894
g28
(lp1895
g983
asg1183
g9
((lp1896
S'BETR223'
p1897
atRp1898
sg1185
S'42601 - NO'
p1899
ssS'7004'
p1900
(dp1901
g28
(lp1902
g984
asg1183
g9
((lp1903
S'BETR223'
p1904
atRp1905
sg1185
S'42401 - SO2'
p1906
ssS'7006'
p1907
(dp1908
g28
(lp1909
g985
asg1183
g9
((lp1910
S'BETR223'
p1911
atRp1912
sg1185
S'42602 - NO2'
p1913
ssS'6752'
p1914
(dp1915
g28
(lp1916
g362
asg1183
g9
((lp1917
S'BETR010'
p1918
atRp1919
sg1185
S'42601 - NO'
p1920
ssS'6753'
p1921
(dp1922
g28
(lp1923
g363
asg1183
g9
((lp1924
S'BETR010'
p1925
atRp1926
sg1185
S'42602 - NO2'
p1927
ssS'6750'
p1928
(dp1929
g28
(lp1930
g364
asg1183
g9
((lp1931
S'BETR010'
p1932
atRp1933
sg1185
S'42101 - CO'
p1934
ssS'99916'
p1935
(dp1936
g28
(lp1937
g497
asg1183
g9
((lp1938
S'BETR001'
p1939
atRp1940
sg1185
S'61110 - WSP-SCA'
p1941
ssS'7177'
p1942
(dp1943
g28
(lp1944
g809
asg1183
g9
((lp1945
S'BETE007'
p1946
atRp1947
sg1185
S'42602 - NO2'
p1948
ssS'99919'
p1949
(dp1950
g28
(lp1951
S'61110 - WSP-SCA_._99919'
p1952
asg1183
g9
((ltRp1953
sg1185
S'61110 - WSP-SCA'
p1954
ssS'7176'
p1955
(dp1956
g28
(lp1957
g810
asg1183
g9
((lp1958
S'BETE007'
p1959
atRp1960
sg1185
S'42601 - NO'
p1961
ssS'99940'
p1962
(dp1963
g28
(lp1964
g346
asg1183
g9
((lp1965
S'BETR012'
p1966
atRp1967
sg1185
S'61110 - WSP-SCA'
p1968
ssS'99918'
p1969
(dp1970
g28
(lp1971
S'61102 - DD_._99918'
p1972
asg1183
g9
((ltRp1973
sg1185
S'61102 - DD'
p1974
ssS'99941'
p1975
(dp1976
g28
(lp1977
g347
asg1183
g9
((lp1978
S'BETR012'
p1979
atRp1980
sg1185
S'62101 - TT'
p1981
ssS'99915'
p1982
(dp1983
g28
(lp1984
g498
asg1183
g9
((lp1985
S'BETR001'
p1986
atRp1987
sg1185
S'61102 - DD'
p1988
ssS'6891'
p1989
(dp1990
g28
(lp1991
g1039
asg1183
g9
((lp1992
S'BETN060'
p1993
atRp1994
sg1185
S'44201 - O3'
p1995
ssS'6890'
p1996
(dp1997
g28
(lp1998
g1040
asg1183
g9
((lp1999
S'BETN060'
p2000
atRp2001
sg1185
S'42602 - NO2'
p2002
ssS'6893'
p2003
(dp2004
g28
(lp2005
g1041
asg1183
g9
((lp2006
S'BETN060'
p2007
atRp2008
sg1185
S'81104 - PM2.5'
p2009
ssS'6892'
p2010
(dp2011
g28
(lp2012
g1042
asg1183
g9
((lp2013
S'BETN060'
p2014
atRp2015
sg1185
S'81102 - PM10'
p2016
ssS'6895'
p2017
(dp2018
g28
(lp2019
g1026
asg1183
g9
((lp2020
S'BETN063'
p2021
atRp2022
sg1185
S'42101 - CO'
p2023
ssS'6894'
p2024
(dp2025
g28
(lp2026
S'89101 - PM1_._6894'
p2027
asg1183
g9
((ltRp2028
sg1185
S'89101 - PM1'
p2029
ssS'6897'
p2030
(dp2031
g28
(lp2032
g1027
asg1183
g9
((lp2033
S'BETN063'
p2034
atRp2035
sg1185
S'42601 - NO'
p2036
ssS'6896'
p2037
(dp2038
g28
(lp2039
g1028
asg1183
g9
((lp2040
S'BETN063'
p2041
atRp2042
sg1185
S'42401 - SO2'
p2043
ssS'6899'
p2044
(dp2045
g28
(lp2046
g1029
asg1183
g9
((lp2047
S'BETN063'
p2048
atRp2049
sg1185
S'44201 - O3'
p2050
ssS'6898'
p2051
(dp2052
g28
(lp2053
g1030
asg1183
g9
((lp2054
S'BETN063'
p2055
atRp2056
sg1185
S'42602 - NO2'
p2057
ssS'7179'
p2058
(dp2059
g28
(lp2060
g825
asg1183
g9
((lp2061
S'BETE008'
p2062
atRp2063
sg1185
S'42601 - NO'
p2064
ssS'99928'
p2065
(dp2066
g28
(lp2067
S'61110 - WSP-SCA_._99928'
p2068
asg1183
g9
((ltRp2069
sg1185
S'61110 - WSP-SCA'
p2070
ssS'99929'
p2071
(dp2072
g28
(lp2073
g171
asg1183
g9
((lp2074
S'BETM204'
p2075
atRp2076
sg1185
S'62101 - TT'
p2077
ssS'7078'
p2078
(dp2079
g28
(lp2080
g437
asg1183
g9
((lp2081
S'BETR701'
p2082
atRp2083
sg1185
S'44201 - O3'
p2084
ssS'7079'
p2085
(dp2086
g28
(lp2087
S'45109 - m,p-C6H4(CH3)2_._7079'
p2088
asg1183
g9
((ltRp2089
sg1185
S'45109 - m,p-C6H4(CH3)2'
p2090
ssS'7074'
p2091
(dp2092
g28
(lp2093
g438
asg1183
g9
((lp2094
S'BETR701'
p2095
atRp2096
sg1185
S'42602 - NO2'
p2097
ssS'99921'
p2098
(dp2099
g28
(lp2100
S'61102 - DD_._99921'
p2101
asg1183
g9
((ltRp2102
sg1185
S'61102 - DD'
p2103
ssS'99922'
p2104
(dp2105
g28
(lp2106
S'61110 - WSP-SCA_._99922'
p2107
asg1183
g9
((ltRp2108
sg1185
S'61110 - WSP-SCA'
p2109
ssS'99923'
p2110
(dp2111
g28
(lp2112
S'62101 - TT_._99923'
p2113
asg1183
g9
((ltRp2114
sg1185
S'62101 - TT'
p2115
ssS'99924'
p2116
(dp2117
g28
(lp2118
S'61102 - DD_._99924'
p2119
asg1183
g9
((ltRp2120
sg1185
S'61102 - DD'
p2121
ssS'7071'
p2122
(dp2123
g28
(lp2124
g439
asg1183
g9
((lp2125
S'BETR701'
p2126
atRp2127
sg1185
S'42101 - CO'
p2128
ssS'7072'
p2129
(dp2130
g28
(lp2131
g440
asg1183
g9
((lp2132
S'BETR701'
p2133
atRp2134
sg1185
S'42401 - SO2'
p2135
ssS'7073'
p2136
(dp2137
g28
(lp2138
g441
asg1183
g9
((lp2139
S'BETR701'
p2140
atRp2141
sg1185
S'42601 - NO'
p2142
ssS'6972'
p2143
(dp2144
g28
(lp2145
S'89101 - PM1_._6972'
p2146
asg1183
g9
((ltRp2147
sg1185
S'89101 - PM1'
p2148
ssS'6970'
p2149
(dp2150
g28
(lp2151
g390
asg1183
g9
((lp2152
S'BETN132'
p2153
atRp2154
sg1185
S'81102 - PM10'
p2155
ssS'6971'
p2156
(dp2157
g28
(lp2158
g391
asg1183
g9
((lp2159
S'BETN132'
p2160
atRp2161
sg1185
S'81104 - PM2.5'
p2162
ssS'6508'
p2163
(dp2164
g28
(lp2165
g719
asg1183
g9
((lp2166
S'BETB004'
p2167
atRp2168
sg1185
S'42602 - NO2'
p2169
ssS'10688'
p2170
(dp2171
g28
(lp2172
g1010
asg1183
g9
((lp2173
S'BELR833'
p2174
atRp2175
sg1185
S'42601 - NO'
p2176
ssS'99920'
p2177
(dp2178
g28
(lp2179
S'62101 - TT_._99920'
p2180
asg1183
g9
((ltRp2181
sg1185
S'62101 - TT'
p2182
ssS'10689'
p2183
(dp2184
g28
(lp2185
g1011
asg1183
g9
((lp2186
S'BELR833'
p2187
atRp2188
sg1185
S'42602 - NO2'
p2189
ssS'7180'
p2190
(dp2191
g28
(lp2192
g826
asg1183
g9
((lp2193
S'BETE008'
p2194
atRp2195
sg1185
S'42602 - NO2'
p2196
ssS'7041'
p2197
(dp2198
g28
(lp2199
g161
asg1183
g9
((lp2200
S'BETN012'
p2201
atRp2202
sg1185
S'44201 - O3'
p2203
ssS'7182'
p2204
(dp2205
g28
(lp2206
g817
asg1183
g9
((lp2207
S'BETE009'
p2208
atRp2209
sg1185
S'42601 - NO'
p2210
ssS'7183'
p2211
(dp2212
g28
(lp2213
g818
asg1183
g9
((lp2214
S'BETE009'
p2215
atRp2216
sg1185
S'42602 - NO2'
p2217
ssS'7185'
p2218
(dp2219
g28
(lp2220
g1018
asg1183
g9
((lp2221
S'BETE013'
p2222
atRp2223
sg1185
S'42601 - NO'
p2224
ssS'7186'
p2225
(dp2226
g28
(lp2227
g1019
asg1183
g9
((lp2228
S'BETE013'
p2229
atRp2230
sg1185
S'42602 - NO2'
p2231
ssS'7040'
p2232
(dp2233
g28
(lp2234
g162
asg1183
g9
((lp2235
S'BETN012'
p2236
atRp2237
sg1185
S'42602 - NO2'
p2238
ssS'7207'
p2239
(dp2240
g28
(lp2241
g80
asg1183
g9
((lp2242
S'BETE716'
p2243
atRp2244
sg1185
S'42602 - NO2'
p2245
ssS'7042'
p2246
(dp2247
g28
(lp2248
g163
asg1183
g9
((lp2249
S'BETN012'
p2250
atRp2251
sg1185
S'81102 - PM10'
p2252
ssS'7206'
p2253
(dp2254
g28
(lp2255
g81
asg1183
g9
((lp2256
S'BETE716'
p2257
atRp2258
sg1185
S'42601 - NO'
p2259
ssS'10699'
p2260
(dp2261
g28
(lp2262
g957
asg1183
g9
((lp2263
S'BETR221'
p2264
atRp2265
sg1185
S'42601 - NO'
p2266
ssS'10698'
p2267
(dp2268
g28
(lp2269
g1141
asg1183
g9
((lp2270
S'BETR820'
p2271
atRp2272
sg1185
S'42602 - NO2'
p2273
ssS'7223'
p2274
(dp2275
g28
(lp2276
S'42401 - SO2_._7223'
p2277
asg1183
g9
((ltRp2278
sg1185
S'42401 - SO2'
p2279
ssS'7222'
p2280
(dp2281
g28
(lp2282
S'42602 - NO2_._7222'
p2283
asg1183
g9
((ltRp2284
sg1185
S'42602 - NO2'
p2285
ssS'7225'
p2286
(dp2287
g28
(lp2288
S'42602 - NO2_._7225'
p2289
asg1183
g9
((ltRp2290
sg1185
S'42602 - NO2'
p2291
ssS'7224'
p2292
(dp2293
g28
(lp2294
S'42601 - NO_._7224'
p2295
asg1183
g9
((ltRp2296
sg1185
S'42601 - NO'
p2297
ssS'7227'
p2298
(dp2299
g28
(lp2300
S'42601 - NO_._7227'
p2301
asg1183
g9
((ltRp2302
sg1185
S'42601 - NO'
p2303
ssS'7226'
p2304
(dp2305
g28
(lp2306
S'42401 - SO2_._7226'
p2307
asg1183
g9
((ltRp2308
sg1185
S'42401 - SO2'
p2309
ssS'10691'
p2310
(dp2311
g28
(lp2312
g42
asg1183
g9
((lp2313
S'BELSA04'
p2314
atRp2315
sg1185
S'81102 - PM10'
p2316
ssS'10690'
p2317
(dp2318
g28
(lp2319
g43
asg1183
g9
((lp2320
S'BELSA04'
p2321
atRp2322
sg1185
S'16111 - Black Carbon'
p2323
ssS'10693'
p2324
(dp2325
g28
(lp2326
g765
asg1183
g9
((lp2327
S'BETN043'
p2328
atRp2329
sg1185
S'16111 - Black Carbon'
p2330
ssS'10692'
p2331
(dp2332
g28
(lp2333
g44
asg1183
g9
((lp2334
S'BELSA04'
p2335
atRp2336
sg1185
S'81104 - PM2.5'
p2337
ssS'10697'
p2338
(dp2339
g28
(lp2340
g1142
asg1183
g9
((lp2341
S'BETR820'
p2342
atRp2343
sg1185
S'42601 - NO'
p2344
ssS'10696'
p2345
(dp2346
g28
(lp2347
g485
asg1183
g9
((lp2348
S'BETR802'
p2349
atRp2350
sg1185
S'42601 - NO'
p2351
ssS'6572'
p2352
(dp2353
g28
(lp2354
g499
asg1183
g9
((lp2355
S'BETR001'
p2356
atRp2357
sg1185
S'42401 - SO2'
p2358
ssS'6573'
p2359
(dp2360
g28
(lp2361
g500
asg1183
g9
((lp2362
S'BETR001'
p2363
atRp2364
sg1185
S'42601 - NO'
p2365
ssS'6571'
p2366
(dp2367
g28
(lp2368
g501
asg1183
g9
((lp2369
S'BETR001'
p2370
atRp2371
sg1185
S'42101 - CO'
p2372
ssS'6577'
p2373
(dp2374
g28
(lp2375
g502
asg1183
g9
((lp2376
S'BETR001'
p2377
atRp2378
sg1185
S'44201 - O3'
p2379
ssS'6574'
p2380
(dp2381
g28
(lp2382
g503
asg1183
g9
((lp2383
S'BETR001'
p2384
atRp2385
sg1185
S'42602 - NO2'
p2386
ssS'7122'
p2387
(dp2388
g28
(lp2389
g52
asg1183
g9
((lp2390
S'BETR750'
p2391
atRp2392
sg1185
S'42602 - NO2'
p2393
ssS'6578'
p2394
(dp2395
g28
(lp2396
g504
asg1183
g9
((lp2397
S'BETR001'
p2398
atRp2399
sg1185
S'81102 - PM10'
p2400
ssS'6579'
p2401
(dp2402
g28
(lp2403
g505
asg1183
g9
((lp2404
S'BETR001'
p2405
atRp2406
sg1185
S'81104 - PM2.5'
p2407
ssS'6324'
p2408
(dp2409
g28
(lp2410
g707
asg1183
g9
((lp2411
S'BELOB01'
p2412
atRp2413
sg1185
S'81102 - PM10'
p2414
ssS'6323'
p2415
(dp2416
g28
(lp2417
g708
asg1183
g9
((lp2418
S'BELOB01'
p2419
atRp2420
sg1185
S'42602 - NO2'
p2421
ssS'6322'
p2422
(dp2423
g28
(lp2424
g709
asg1183
g9
((lp2425
S'BELOB01'
p2426
atRp2427
sg1185
S'42601 - NO'
p2428
ssS'7121'
p2429
(dp2430
g28
(lp2431
g53
asg1183
g9
((lp2432
S'BETR750'
p2433
atRp2434
sg1185
S'42601 - NO'
p2435
ssS'6718'
p2436
(dp2437
g28
(lp2438
g754
asg1183
g9
((lp2439
S'BETN040'
p2440
atRp2441
sg1185
S'42602 - NO2'
p2442
ssS'6719'
p2443
(dp2444
g28
(lp2445
g755
asg1183
g9
((lp2446
S'BETN040'
p2447
atRp2448
sg1185
S'44201 - O3'
p2449
ssS'6716'
p2450
(dp2451
g28
(lp2452
g304
asg1183
g9
((lp2453
S'BETN035'
p2454
atRp2455
sg1185
S'81102 - PM10'
p2456
ssS'6717'
p2457
(dp2458
g28
(lp2459
g756
asg1183
g9
((lp2460
S'BETN040'
p2461
atRp2462
sg1185
S'42601 - NO'
p2463
ssS'6714'
p2464
(dp2465
g28
(lp2466
g305
asg1183
g9
((lp2467
S'BETN035'
p2468
atRp2469
sg1185
S'42602 - NO2'
p2470
ssS'6715'
p2471
(dp2472
g28
(lp2473
g306
asg1183
g9
((lp2474
S'BETN035'
p2475
atRp2476
sg1185
S'44201 - O3'
p2477
ssS'6712'
p2478
(dp2479
g28
(lp2480
g307
asg1183
g9
((lp2481
S'BETN035'
p2482
atRp2483
sg1185
S'42401 - SO2'
p2484
ssS'6713'
p2485
(dp2486
g28
(lp2487
g308
asg1183
g9
((lp2488
S'BETN035'
p2489
atRp2490
sg1185
S'42601 - NO'
p2491
ssS'6710'
p2492
(dp2493
g28
(lp2494
g420
asg1183
g9
((lp2495
S'BETN027'
p2496
atRp2497
sg1185
S'42602 - NO2'
p2498
ssS'6711'
p2499
(dp2500
g28
(lp2501
g421
asg1183
g9
((lp2502
S'BETN027'
p2503
atRp2504
sg1185
S'44201 - O3'
p2505
ssS'6855'
p2506
(dp2507
g28
(lp2508
g30
asg1183
g9
((lp2509
S'BETR841'
p2510
atRp2511
sg1185
S'81104 - PM2.5'
p2512
ssS'6854'
p2513
(dp2514
g28
(lp2515
g31
asg1183
g9
((lp2516
S'BETR841'
p2517
atRp2518
sg1185
S'81102 - PM10'
p2519
ssS'6857'
p2520
(dp2521
g28
(lp2522
g544
asg1183
g9
((lp2523
S'BETR891'
p2524
atRp2525
sg1185
S'42601 - NO'
p2526
ssS'6856'
p2527
(dp2528
g28
(lp2529
g545
asg1183
g9
((lp2530
S'BETR891'
p2531
atRp2532
sg1185
S'42401 - SO2'
p2533
ssS'6851'
p2534
(dp2535
g28
(lp2536
g32
asg1183
g9
((lp2537
S'BETR841'
p2538
atRp2539
sg1185
S'42601 - NO'
p2540
ssS'6853'
p2541
(dp2542
g28
(lp2543
g33
asg1183
g9
((lp2544
S'BETR841'
p2545
atRp2546
sg1185
S'44201 - O3'
p2547
ssS'6852'
p2548
(dp2549
g28
(lp2550
g34
asg1183
g9
((lp2551
S'BETR841'
p2552
atRp2553
sg1185
S'42602 - NO2'
p2554
ssS'6858'
p2555
(dp2556
g28
(lp2557
g546
asg1183
g9
((lp2558
S'BETR891'
p2559
atRp2560
sg1185
S'42602 - NO2'
p2561
ssS'7031'
p2562
(dp2563
g28
(lp2564
g694
asg1183
g9
((lp2565
S'BETM705'
p2566
atRp2567
sg1185
S'42601 - NO'
p2568
ssS'7032'
p2569
(dp2570
g28
(lp2571
g695
asg1183
g9
((lp2572
S'BETM705'
p2573
atRp2574
sg1185
S'42602 - NO2'
p2575
ssS'7033'
p2576
(dp2577
g28
(lp2578
g696
asg1183
g9
((lp2579
S'BETM705'
p2580
atRp2581
sg1185
S'44201 - O3'
p2582
ssS'6147'
p2583
(dp2584
g28
(lp2585
g138
asg1183
g9
((lp2586
S'BELAB01'
p2587
atRp2588
sg1185
S'16111 - Black Carbon'
p2589
ssS'7017'
p2590
(dp2591
g28
(lp2592
g658
asg1183
g9
((lp2593
S'BETR240'
p2594
atRp2595
sg1185
S'42602 - NO2'
p2596
ssS'7131'
p2597
(dp2598
g28
(lp2599
g1108
asg1183
g9
((lp2600
S'BETR501'
p2601
atRp2602
sg1185
S'42601 - NO'
p2603
ssS'7039'
p2604
(dp2605
g28
(lp2606
g164
asg1183
g9
((lp2607
S'BETN012'
p2608
atRp2609
sg1185
S'42601 - NO'
p2610
ssS'6149'
p2611
(dp2612
g28
(lp2613
g130
asg1183
g9
((lp2614
S'BELAB02'
p2615
atRp2616
sg1185
S'81102 - PM10'
p2617
ssS'6148'
p2618
(dp2619
g28
(lp2620
g139
asg1183
g9
((lp2621
S'BELAB01'
p2622
atRp2623
sg1185
S'81102 - PM10'
p2624
ssS'7135'
p2625
(dp2626
g28
(lp2627
g1109
asg1183
g9
((lp2628
S'BETR501'
p2629
atRp2630
sg1185
S'81102 - PM10'
p2631
ssS'7137'
p2632
(dp2633
g28
(lp2634
S'89101 - PM1_._7137'
p2635
asg1183
g9
((ltRp2636
sg1185
S'89101 - PM1'
p2637
ssS'7136'
p2638
(dp2639
g28
(lp2640
g1110
asg1183
g9
((lp2641
S'BETR501'
p2642
atRp2643
sg1185
S'81104 - PM2.5'
p2644
ssS'6781'
p2645
(dp2646
g28
(lp2647
S'45202 - C6H5-CH3_._6781'
p2648
asg1183
g9
((ltRp2649
sg1185
S'45202 - C6H5-CH3'
p2650
ssS'6780'
p2651
(dp2652
g28
(lp2653
g470
asg1183
g9
((lp2654
S'BETR801'
p2655
atRp2656
sg1185
S'45201 - C6H6'
p2657
ssS'6783'
p2658
(dp2659
g28
(lp2660
S'45204 - o-C6H4-(CH3)2_._6783'
p2661
asg1183
g9
((ltRp2662
sg1185
S'45204 - o-C6H4-(CH3)2'
p2663
ssS'6782'
p2664
(dp2665
g28
(lp2666
S'45203 - C6H5-C2H5_._6782'
p2667
asg1183
g9
((ltRp2668
sg1185
S'45203 - C6H5-C2H5'
p2669
ssS'6787'
p2670
(dp2671
g28
(lp2672
g471
asg1183
g9
((lp2673
S'BETR801'
p2674
atRp2675
sg1185
S'81104 - PM2.5'
p2676
ssS'6786'
p2677
(dp2678
g28
(lp2679
g472
asg1183
g9
((lp2680
S'BETR801'
p2681
atRp2682
sg1185
S'81102 - PM10'
p2683
ssS'6789'
p2684
(dp2685
g28
(lp2686
g486
asg1183
g9
((lp2687
S'BETR802'
p2688
atRp2689
sg1185
S'81104 - PM2.5'
p2690
ssS'6788'
p2691
(dp2692
g28
(lp2693
g487
asg1183
g9
((lp2694
S'BETR802'
p2695
atRp2696
sg1185
S'81102 - PM10'
p2697
ssS'7044'
p2698
(dp2699
g28
(lp2700
S'42242 - Hg_._7044'
p2701
asg1183
g9
((ltRp2702
sg1185
S'42242 - Hg'
p2703
ssS'99911'
p2704
(dp2705
g28
(lp2706
g456
asg1183
g9
((lp2707
S'BETM802'
p2708
atRp2709
sg1185
S'62101 - TT'
p2710
ssS'99910'
p2711
(dp2712
g28
(lp2713
g457
asg1183
g9
((lp2714
S'BETM802'
p2715
atRp2716
sg1185
S'61110 - WSP-SCA'
p2717
ssS'99913'
p2718
(dp2719
g28
(lp2720
S'61110 - WSP-SCA_._99913'
p2721
asg1183
g9
((ltRp2722
sg1185
S'61110 - WSP-SCA'
p2723
ssS'99912'
p2724
(dp2725
g28
(lp2726
S'61102 - DD_._99912'
p2727
asg1183
g9
((ltRp2728
sg1185
S'61102 - DD'
p2729
ssS'7047'
p2730
(dp2731
g28
(lp2732
g405
asg1183
g9
((lp2733
S'BETN029'
p2734
atRp2735
sg1185
S'42602 - NO2'
p2736
ssS'7149'
p2737
(dp2738
g28
(lp2739
g101
asg1183
g9
((lp2740
S'BETR510'
p2741
atRp2742
sg1185
S'81104 - PM2.5'
p2743
ssS'99917'
p2744
(dp2745
g28
(lp2746
g506
asg1183
g9
((lp2747
S'BETR001'
p2748
atRp2749
sg1185
S'62101 - TT'
p2750
ssS'6638'
p2751
(dp2752
g28
(lp2753
g265
asg1183
g9
((lp2754
S'BETWOL1'
p2755
atRp2756
sg1185
S'42601 - NO'
p2757
ssS'7144'
p2758
(dp2759
g28
(lp2760
g845
asg1183
g9
((lp2761
S'BETR502'
p2762
atRp2763
sg1185
S'81104 - PM2.5'
p2764
ssS'7145'
p2765
(dp2766
g28
(lp2767
S'89101 - PM1_._7145'
p2768
asg1183
g9
((ltRp2769
sg1185
S'89101 - PM1'
p2770
ssS'7147'
p2771
(dp2772
g28
(lp2773
g102
asg1183
g9
((lp2774
S'BETR510'
p2775
atRp2776
sg1185
S'42401 - SO2'
p2777
ssS'7140'
p2778
(dp2779
g28
(lp2780
g846
asg1183
g9
((lp2781
S'BETR502'
p2782
atRp2783
sg1185
S'42601 - NO'
p2784
ssS'7141'
p2785
(dp2786
g28
(lp2787
g847
asg1183
g9
((lp2788
S'BETR502'
p2789
atRp2790
sg1185
S'42602 - NO2'
p2791
ssS'7142'
p2792
(dp2793
g28
(lp2794
g848
asg1183
g9
((lp2795
S'BETR502'
p2796
atRp2797
sg1185
S'44201 - O3'
p2798
ssS'7143'
p2799
(dp2800
g28
(lp2801
g849
asg1183
g9
((lp2802
S'BETR502'
p2803
atRp2804
sg1185
S'81102 - PM10'
p2805
ssS'100005'
p2806
(dp2807
g28
(lp2808
g371
asg1183
g9
((lp2809
S'BELRL01'
p2810
atRp2811
sg1185
S'81104 - PM2.5'
p2812
ssS'100004'
p2813
(dp2814
g28
(lp2815
S'81104 - PM2.5_._100004'
p2816
asg1183
g9
((ltRp2817
sg1185
S'81104 - PM2.5'
p2818
ssS'100006'
p2819
(dp2820
g28
(lp2821
g710
asg1183
g9
((lp2822
S'BELOB01'
p2823
atRp2824
sg1185
S'81104 - PM2.5'
p2825
ssS'100001'
p2826
(dp2827
g28
(lp2828
S'81104 - PM2.5_._100001'
p2829
asg1183
g9
((ltRp2830
sg1185
S'81104 - PM2.5'
p2831
ssS'100003'
p2832
(dp2833
g28
(lp2834
g131
asg1183
g9
((lp2835
S'BELAB02'
p2836
atRp2837
sg1185
S'81104 - PM2.5'
p2838
ssS'100002'
p2839
(dp2840
g28
(lp2841
g140
asg1183
g9
((lp2842
S'BELAB01'
p2843
atRp2844
sg1185
S'81104 - PM2.5'
p2845
ssS'7129'
p2846
(dp2847
g28
(lp2848
g1111
asg1183
g9
((lp2849
S'BETR501'
p2850
atRp2851
sg1185
S'42101 - CO'
p2852
ssS'100009'
p2853
(dp2854
g28
(lp2855
g1168
asg1183
g9
((lp2856
S'BELSZ02'
p2857
atRp2858
sg1185
S'81104 - PM2.5'
p2859
ssS'100008'
p2860
(dp2861
g28
(lp2862
g585
asg1183
g9
((lp2863
S'BELAL01'
p2864
atRp2865
sg1185
S'81104 - PM2.5'
p2866
ssS'7046'
p2867
(dp2868
g28
(lp2869
g406
asg1183
g9
((lp2870
S'BETN029'
p2871
atRp2872
sg1185
S'42601 - NO'
p2873
ssS'99936'
p2874
(dp2875
g28
(lp2876
S'61102 - DD_._99936'
p2877
asg1183
g9
((ltRp2878
sg1185
S'61102 - DD'
p2879
ssS'6532'
p2880
(dp2881
g28
(lp2882
g865
asg1183
g9
((lp2883
S'BETB011'
p2884
atRp2885
sg1185
S'81104 - PM2.5'
p2886
ssS'6928'
p2887
(dp2888
g28
(lp2889
g218
asg1183
g9
((lp2890
S'BETN085'
p2891
atRp2892
sg1185
S'16111 - Black Carbon'
p2893
ssS'6530'
p2894
(dp2895
g28
(lp2896
g866
asg1183
g9
((lp2897
S'BETB011'
p2898
atRp2899
sg1185
S'44201 - O3'
p2900
ssS'6531'
p2901
(dp2902
g28
(lp2903
g867
asg1183
g9
((lp2904
S'BETB011'
p2905
atRp2906
sg1185
S'81102 - PM10'
p2907
ssS'6925'
p2908
(dp2909
g28
(lp2910
g890
asg1183
g9
((lp2911
S'BETN073'
p2912
atRp2913
sg1185
S'44201 - O3'
p2914
ssS'6924'
p2915
(dp2916
g28
(lp2917
g891
asg1183
g9
((lp2918
S'BETN073'
p2919
atRp2920
sg1185
S'42602 - NO2'
p2921
ssS'6927'
p2922
(dp2923
g28
(lp2924
g892
asg1183
g9
((lp2925
S'BETN073'
p2926
atRp2927
sg1185
S'81104 - PM2.5'
p2928
ssS'6926'
p2929
(dp2930
g28
(lp2931
g893
asg1183
g9
((lp2932
S'BETN073'
p2933
atRp2934
sg1185
S'81102 - PM10'
p2935
ssS'6921'
p2936
(dp2937
g28
(lp2938
S'89101 - PM1_._6921'
p2939
asg1183
g9
((ltRp2940
sg1185
S'89101 - PM1'
p2941
ssS'6920'
p2942
(dp2943
g28
(lp2944
g877
asg1183
g9
((lp2945
S'BETN070'
p2946
atRp2947
sg1185
S'81104 - PM2.5'
p2948
ssS'6923'
p2949
(dp2950
g28
(lp2951
g894
asg1183
g9
((lp2952
S'BETN073'
p2953
atRp2954
sg1185
S'42601 - NO'
p2955
ssS'6284'
p2956
(dp2957
g28
(lp2958
S'45202 - C6H5-CH3_._6284'
p2959
asg1183
g9
((ltRp2960
sg1185
S'45202 - C6H5-CH3'
p2961
ssS'6285'
p2962
(dp2963
g28
(lp2964
S'45203 - C6H5-C2H5_._6285'
p2965
asg1183
g9
((ltRp2966
sg1185
S'45203 - C6H5-C2H5'
p2967
ssS'6286'
p2968
(dp2969
g28
(lp2970
S'45204 - o-C6H4-(CH3)2_._6286'
p2971
asg1183
g9
((ltRp2972
sg1185
S'45204 - o-C6H4-(CH3)2'
p2973
ssS'6280'
p2974
(dp2975
g28
(lp2976
g856
asg1183
g9
((lp2977
S'BELLD02'
p2978
atRp2979
sg1185
S'42601 - NO'
p2980
ssS'6281'
p2981
(dp2982
g28
(lp2983
g857
asg1183
g9
((lp2984
S'BELLD02'
p2985
atRp2986
sg1185
S'42602 - NO2'
p2987
ssS'6282'
p2988
(dp2989
g28
(lp2990
S'45109 - m,p-C6H4(CH3)2_._6282'
p2991
asg1183
g9
((ltRp2992
sg1185
S'45109 - m,p-C6H4(CH3)2'
p2993
ssS'6283'
p2994
(dp2995
g28
(lp2996
g858
asg1183
g9
((lp2997
S'BELLD02'
p2998
atRp2999
sg1185
S'45201 - C6H6'
p3000
ssS'6368'
p3001
(dp3002
g28
(lp3003
g1169
asg1183
g9
((lp3004
S'BELSZ02'
p3005
atRp3006
sg1185
S'81102 - PM10'
p3007
ssS'6361'
p3008
(dp3009
g28
(lp3010
g1170
asg1183
g9
((lp3011
S'BELSZ02'
p3012
atRp3013
sg1185
S'42602 - NO2'
p3014
ssS'6360'
p3015
(dp3016
g28
(lp3017
g1171
asg1183
g9
((lp3018
S'BELSZ02'
p3019
atRp3020
sg1185
S'42601 - NO'
p3021
ssS'7218'
p3022
(dp3023
g28
(lp3024
S'42601 - NO_._7218'
p3025
asg1183
g9
((ltRp3026
sg1185
S'42601 - NO'
p3027
ssS'7219'
p3028
(dp3029
g28
(lp3030
S'42602 - NO2_._7219'
p3031
asg1183
g9
((ltRp3032
sg1185
S'42602 - NO2'
p3033
ssS'6407'
p3034
(dp3035
g28
(lp3036
g249
asg1183
g9
((lp3037
S'BETTS21'
p3038
atRp3039
sg1185
S'42401 - SO2'
p3040
ssS'7210'
p3041
(dp3042
g28
(lp3043
g996
asg1183
g9
((lp3044
S'BETE804'
p3045
atRp3046
sg1185
S'42602 - NO2'
p3047
ssS'7217'
p3048
(dp3049
g28
(lp3050
S'42401 - SO2_._7217'
p3051
asg1183
g9
((ltRp3052
sg1185
S'42401 - SO2'
p3053
ssS'6217'
p3054
(dp3055
g28
(lp3056
g682
asg1183
g9
((lp3057
S'BELHB23'
p3058
atRp3059
sg1185
S'42602 - NO2'
p3060
ssS'6216'
p3061
(dp3062
g28
(lp3063
g683
asg1183
g9
((lp3064
S'BELHB23'
p3065
atRp3066
sg1185
S'42601 - NO'
p3067
ssS'6215'
p3068
(dp3069
g28
(lp3070
g684
asg1183
g9
((lp3071
S'BELHB23'
p3072
atRp3073
sg1185
S'42401 - SO2'
p3074
ssS'6218'
p3075
(dp3076
g28
(lp3077
g685
asg1183
g9
((lp3078
S'BELHB23'
p3079
atRp3080
sg1185
S'81102 - PM10'
p3081
ssS'6813'
p3082
(dp3083
g28
(lp3084
g1149
asg1183
g9
((lp3085
S'BETR821'
p3086
atRp3087
sg1185
S'42601 - NO'
p3088
ssS'6812'
p3089
(dp3090
g28
(lp3091
g1150
asg1183
g9
((lp3092
S'BETR821'
p3093
atRp3094
sg1185
S'42401 - SO2'
p3095
ssS'6815'
p3096
(dp3097
g28
(lp3098
g1131
asg1183
g9
((lp3099
S'BETR822'
p3100
atRp3101
sg1185
S'42401 - SO2'
p3102
ssS'6814'
p3103
(dp3104
g28
(lp3105
g1151
asg1183
g9
((lp3106
S'BETR821'
p3107
atRp3108
sg1185
S'42602 - NO2'
p3109
ssS'6817'
p3110
(dp3111
g28
(lp3112
g1132
asg1183
g9
((lp3113
S'BETR822'
p3114
atRp3115
sg1185
S'42602 - NO2'
p3116
ssS'6816'
p3117
(dp3118
g28
(lp3119
g1133
asg1183
g9
((lp3120
S'BETR822'
p3121
atRp3122
sg1185
S'42601 - NO'
p3123
ssS'6744'
p3124
(dp3125
g28
(lp3126
g793
asg1183
g9
((lp3127
S'BETN046'
p3128
atRp3129
sg1185
S'44201 - O3'
p3130
ssS'6747'
p3131
(dp3132
g28
(lp3133
g671
asg1183
g9
((lp3134
S'BETN054'
p3135
atRp3136
sg1185
S'42602 - NO2'
p3137
ssS'6746'
p3138
(dp3139
g28
(lp3140
g672
asg1183
g9
((lp3141
S'BETN054'
p3142
atRp3143
sg1185
S'42601 - NO'
p3144
ssS'6740'
p3145
(dp3146
g28
(lp3147
g782
asg1183
g9
((lp3148
S'BETN045'
p3149
atRp3150
sg1185
S'81104 - PM2.5'
p3151
ssS'6743'
p3152
(dp3153
g28
(lp3154
g794
asg1183
g9
((lp3155
S'BETN046'
p3156
atRp3157
sg1185
S'42602 - NO2'
p3158
ssS'6742'
p3159
(dp3160
g28
(lp3161
g795
asg1183
g9
((lp3162
S'BETN046'
p3163
atRp3164
sg1185
S'42601 - NO'
p3165
ssS'6626'
p3166
(dp3167
g28
(lp3168
g348
asg1183
g9
((lp3169
S'BETR012'
p3170
atRp3171
sg1185
S'81102 - PM10'
p3172
ssS'6627'
p3173
(dp3174
g28
(lp3175
g349
asg1183
g9
((lp3176
S'BETR012'
p3177
atRp3178
sg1185
S'81104 - PM2.5'
p3179
ssS'6625'
p3180
(dp3181
g28
(lp3182
g350
asg1183
g9
((lp3183
S'BETR012'
p3184
atRp3185
sg1185
S'44201 - O3'
p3186
ssS'6749'
p3187
(dp3188
g28
(lp3189
g673
asg1183
g9
((lp3190
S'BETN054'
p3191
atRp3192
sg1185
S'81102 - PM10'
p3193
ssS'6748'
p3194
(dp3195
g28
(lp3196
g674
asg1183
g9
((lp3197
S'BETN054'
p3198
atRp3199
sg1185
S'44201 - O3'
p3200
ssS'6620'
p3201
(dp3202
g28
(lp3203
g351
asg1183
g9
((lp3204
S'BETR012'
p3205
atRp3206
sg1185
S'42401 - SO2'
p3207
ssS'6621'
p3208
(dp3209
g28
(lp3210
g352
asg1183
g9
((lp3211
S'BETR012'
p3212
atRp3213
sg1185
S'42601 - NO'
p3214
ssS'7120'
p3215
(dp3216
g28
(lp3217
g54
asg1183
g9
((lp3218
S'BETR750'
p3219
atRp3220
sg1185
S'42401 - SO2'
p3221
ssS'7103'
p3222
(dp3223
g28
(lp3224
g901
asg1183
g9
((lp3225
S'BETR731'
p3226
atRp3227
sg1185
S'42401 - SO2'
p3228
ssS'6868'
p3229
(dp3230
g28
(lp3231
g562
asg1183
g9
((lp3232
S'BETR894'
p3233
atRp3234
sg1185
S'42401 - SO2'
p3235
ssS'6869'
p3236
(dp3237
g28
(lp3238
g563
asg1183
g9
((lp3239
S'BETR894'
p3240
atRp3241
sg1185
S'42601 - NO'
p3242
ssS'7106'
p3243
(dp3244
g28
(lp3245
g902
asg1183
g9
((lp3246
S'BETR731'
p3247
atRp3248
sg1185
S'81102 - PM10'
p3249
ssS'7107'
p3250
(dp3251
g28
(lp3252
g903
asg1183
g9
((lp3253
S'BETR731'
p3254
atRp3255
sg1185
S'81104 - PM2.5'
p3256
ssS'6864'
p3257
(dp3258
g28
(lp3259
g526
asg1183
g9
((lp3260
S'BETR893'
p3261
atRp3262
sg1185
S'42401 - SO2'
p3263
ssS'6865'
p3264
(dp3265
g28
(lp3266
g527
asg1183
g9
((lp3267
S'BETR893'
p3268
atRp3269
sg1185
S'42601 - NO'
p3270
ssS'6866'
p3271
(dp3272
g28
(lp3273
g528
asg1183
g9
((lp3274
S'BETR893'
p3275
atRp3276
sg1185
S'42602 - NO2'
p3277
ssS'6860'
p3278
(dp3279
g28
(lp3280
g535
asg1183
g9
((lp3281
S'BETR892'
p3282
atRp3283
sg1185
S'42401 - SO2'
p3284
ssS'6861'
p3285
(dp3286
g28
(lp3287
g536
asg1183
g9
((lp3288
S'BETR892'
p3289
atRp3290
sg1185
S'42601 - NO'
p3291
ssS'6862'
p3292
(dp3293
g28
(lp3294
g537
asg1183
g9
((lp3295
S'BETR892'
p3296
atRp3297
sg1185
S'42602 - NO2'
p3298
ssS'7069'
p3299
(dp3300
g28
(lp3301
g618
asg1183
g9
((lp3302
S'BETN052'
p3303
atRp3304
sg1185
S'81102 - PM10'
p3305
ssS'7068'
p3306
(dp3307
g28
(lp3308
g619
asg1183
g9
((lp3309
S'BETN052'
p3310
atRp3311
sg1185
S'44201 - O3'
p3312
ssS'7067'
p3313
(dp3314
g28
(lp3315
g620
asg1183
g9
((lp3316
S'BETN052'
p3317
atRp3318
sg1185
S'42602 - NO2'
p3319
ssS'7066'
p3320
(dp3321
g28
(lp3322
g621
asg1183
g9
((lp3323
S'BETN052'
p3324
atRp3325
sg1185
S'42601 - NO'
p3326
ssS'7065'
p3327
(dp3328
g28
(lp3329
g622
asg1183
g9
((lp3330
S'BETN052'
p3331
atRp3332
sg1185
S'42401 - SO2'
p3333
ssS'7064'
p3334
(dp3335
g28
(lp3336
g629
asg1183
g9
((lp3337
S'BETN051'
p3338
atRp3339
sg1185
S'44201 - O3'
p3340
ssS'7063'
p3341
(dp3342
g28
(lp3343
g630
asg1183
g9
((lp3344
S'BETN051'
p3345
atRp3346
sg1185
S'42602 - NO2'
p3347
ssS'7062'
p3348
(dp3349
g28
(lp3350
g631
asg1183
g9
((lp3351
S'BETN051'
p3352
atRp3353
sg1185
S'42601 - NO'
p3354
ssS'6961'
p3355
(dp3356
g28
(lp3357
g281
asg1183
g9
((lp3358
S'BETN121'
p3359
atRp3360
sg1185
S'42602 - NO2'
p3361
ssS'6960'
p3362
(dp3363
g28
(lp3364
g282
asg1183
g9
((lp3365
S'BETN121'
p3366
atRp3367
sg1185
S'42601 - NO'
p3368
ssS'6963'
p3369
(dp3370
g28
(lp3371
g283
asg1183
g9
((lp3372
S'BETN121'
p3373
atRp3374
sg1185
S'81102 - PM10'
p3375
ssS'6962'
p3376
(dp3377
g28
(lp3378
g284
asg1183
g9
((lp3379
S'BETN121'
p3380
atRp3381
sg1185
S'44201 - O3'
p3382
ssS'6965'
p3383
(dp3384
g28
(lp3385
g392
asg1183
g9
((lp3386
S'BETN132'
p3387
atRp3388
sg1185
S'42101 - CO'
p3389
ssS'6964'
p3390
(dp3391
g28
(lp3392
g285
asg1183
g9
((lp3393
S'BETN121'
p3394
atRp3395
sg1185
S'81104 - PM2.5'
p3396
ssS'6967'
p3397
(dp3398
g28
(lp3399
g393
asg1183
g9
((lp3400
S'BETN132'
p3401
atRp3402
sg1185
S'42601 - NO'
p3403
ssS'6966'
p3404
(dp3405
g28
(lp3406
g394
asg1183
g9
((lp3407
S'BETN132'
p3408
atRp3409
sg1185
S'42401 - SO2'
p3410
ssS'6969'
p3411
(dp3412
g28
(lp3413
g395
asg1183
g9
((lp3414
S'BETN132'
p3415
atRp3416
sg1185
S'44201 - O3'
p3417
ssS'6968'
p3418
(dp3419
g28
(lp3420
g396
asg1183
g9
((lp3421
S'BETN132'
p3422
atRp3423
sg1185
S'42602 - NO2'
p3424
ssS'7193'
p3425
(dp3426
g28
(lp3427
g240
asg1183
g9
((lp3428
S'BETE703'
p3429
atRp3430
sg1185
S'42401 - SO2'
p3431
ssS'7192'
p3432
(dp3433
g28
(lp3434
g232
asg1183
g9
((lp3435
S'BETE702'
p3436
atRp3437
sg1185
S'42602 - NO2'
p3438
ssS'7191'
p3439
(dp3440
g28
(lp3441
g233
asg1183
g9
((lp3442
S'BETE702'
p3443
atRp3444
sg1185
S'42601 - NO'
p3445
ssS'7195'
p3446
(dp3447
g28
(lp3448
g241
asg1183
g9
((lp3449
S'BETE703'
p3450
atRp3451
sg1185
S'42602 - NO2'
p3452
ssS'7194'
p3453
(dp3454
g28
(lp3455
g242
asg1183
g9
((lp3456
S'BETE703'
p3457
atRp3458
sg1185
S'42601 - NO'
p3459
ssS'99926'
p3460
(dp3461
g28
(lp3462
S'62101 - TT_._99926'
p3463
asg1183
g9
((ltRp3464
sg1185
S'62101 - TT'
p3465
ssS'6914'
p3466
(dp3467
g28
(lp3468
g878
asg1183
g9
((lp3469
S'BETN070'
p3470
atRp3471
sg1185
S'42101 - CO'
p3472
ssS'6915'
p3473
(dp3474
g28
(lp3475
g879
asg1183
g9
((lp3476
S'BETN070'
p3477
atRp3478
sg1185
S'42401 - SO2'
p3479
ssS'6916'
p3480
(dp3481
g28
(lp3482
g880
asg1183
g9
((lp3483
S'BETN070'
p3484
atRp3485
sg1185
S'42601 - NO'
p3486
ssS'6917'
p3487
(dp3488
g28
(lp3489
g881
asg1183
g9
((lp3490
S'BETN070'
p3491
atRp3492
sg1185
S'42602 - NO2'
p3493
ssS'6910'
p3494
(dp3495
g28
(lp3496
S'89101 - PM1_._6910'
p3497
asg1183
g9
((ltRp3498
sg1185
S'89101 - PM1'
p3499
ssS'6911'
p3500
(dp3501
g28
(lp3502
g1064
asg1183
g9
((lp3503
S'BETN067'
p3504
atRp3505
sg1185
S'81102 - PM10'
p3506
ssS'6912'
p3507
(dp3508
g28
(lp3509
g1065
asg1183
g9
((lp3510
S'BETN067'
p3511
atRp3512
sg1185
S'81104 - PM2.5'
p3513
ssS'6913'
p3514
(dp3515
g28
(lp3516
g1066
asg1183
g9
((lp3517
S'BETN067'
p3518
atRp3519
sg1185
S'89101 - PM1'
p3520
ssS'6918'
p3521
(dp3522
g28
(lp3523
g882
asg1183
g9
((lp3524
S'BETN070'
p3525
atRp3526
sg1185
S'44201 - O3'
p3527
ssS'6919'
p3528
(dp3529
g28
(lp3530
g883
asg1183
g9
((lp3531
S'BETN070'
p3532
atRp3533
sg1185
S'81102 - PM10'
p3534
ssS'7221'
p3535
(dp3536
g28
(lp3537
S'42601 - NO_._7221'
p3538
asg1183
g9
((ltRp3539
sg1185
S'42601 - NO'
p3540
ssS'6569'
p3541
(dp3542
g28
(lp3543
g507
asg1183
g9
((lp3544
S'BETR001'
p3545
atRp3546
sg1185
S'16111 - Black Carbon'
p3547
ssS'99939'
p3548
(dp3549
g28
(lp3550
g353
asg1183
g9
((lp3551
S'BETR012'
p3552
atRp3553
sg1185
S'61102 - DD'
p3554
ssS'7220'
p3555
(dp3556
g28
(lp3557
S'42401 - SO2_._7220'
p3558
asg1183
g9
((ltRp3559
sg1185
S'42401 - SO2'
p3560
ssS'6564'
p3561
(dp3562
g28
(lp3563
g766
asg1183
g9
((lp3564
S'BETN043'
p3565
atRp3566
sg1185
S'81104 - PM2.5'
p3567
ssS'99938'
p3568
(dp3569
g28
(lp3570
S'62101 - TT_._99938'
p3571
asg1183
g9
((ltRp3572
sg1185
S'62101 - TT'
p3573
ssS'6561'
p3574
(dp3575
g28
(lp3576
g767
asg1183
g9
((lp3577
S'BETN043'
p3578
atRp3579
sg1185
S'42602 - NO2'
p3580
ssS'6560'
p3581
(dp3582
g28
(lp3583
g768
asg1183
g9
((lp3584
S'BETN043'
p3585
atRp3586
sg1185
S'42601 - NO'
p3587
ssS'6563'
p3588
(dp3589
g28
(lp3590
g769
asg1183
g9
((lp3591
S'BETN043'
p3592
atRp3593
sg1185
S'81102 - PM10'
p3594
ssS'6562'
p3595
(dp3596
g28
(lp3597
g770
asg1183
g9
((lp3598
S'BETN043'
p3599
atRp3600
sg1185
S'44201 - O3'
p3601
ssS'10611'
p3602
(dp3603
g28
(lp3604
g915
asg1183
g9
((lp3605
S'BETR834'
p3606
atRp3607
sg1185
S'42602 - NO2'
p3608
ssS'10610'
p3609
(dp3610
g28
(lp3611
g916
asg1183
g9
((lp3612
S'BETR834'
p3613
atRp3614
sg1185
S'81102 - PM10'
p3615
ssS'10613'
p3616
(dp3617
g28
(lp3618
g1096
asg1183
g9
((lp3619
S'BETB008'
p3620
atRp3621
sg1185
S'42601 - NO'
p3622
ssS'10612'
p3623
(dp3624
g28
(lp3625
g917
asg1183
g9
((lp3626
S'BETR834'
p3627
atRp3628
sg1185
S'42601 - NO'
p3629
ssS'10615'
p3630
(dp3631
g28
(lp3632
g1097
asg1183
g9
((lp3633
S'BETB008'
p3634
atRp3635
sg1185
S'42401 - SO2'
p3636
ssS'10614'
p3637
(dp3638
g28
(lp3639
g1098
asg1183
g9
((lp3640
S'BETB008'
p3641
atRp3642
sg1185
S'42602 - NO2'
p3643
ssS'10616'
p3644
(dp3645
g28
(lp3646
g1099
asg1183
g9
((lp3647
S'BETB008'
p3648
atRp3649
sg1185
S'42101 - CO'
p3650
ssS'99935'
p3651
(dp3652
g28
(lp3653
g986
asg1183
g9
((lp3654
S'BETR223'
p3655
atRp3656
sg1185
S'62101 - TT'
p3657
ssS'7115'
p3658
(dp3659
g28
(lp3660
g379
asg1183
g9
((lp3661
S'BETR740'
p3662
atRp3663
sg1185
S'44201 - O3'
p3664
ssS'6709'
p3665
(dp3666
g28
(lp3667
g422
asg1183
g9
((lp3668
S'BETN027'
p3669
atRp3670
sg1185
S'42601 - NO'
p3671
ssS'7229'
p3672
(dp3673
g28
(lp3674
g1087
asg1183
g9
((lp3675
S'BETE811'
p3676
atRp3677
sg1185
S'42401 - SO2'
p3678
ssS'99931'
p3679
(dp3680
g28
(lp3681
S'61110 - WSP-SCA_._99931'
p3682
asg1183
g9
((ltRp3683
sg1185
S'61110 - WSP-SCA'
p3684
ssS'7228'
p3685
(dp3686
g28
(lp3687
S'42602 - NO2_._7228'
p3688
asg1183
g9
((ltRp3689
sg1185
S'42602 - NO2'
p3690
ssS'6701'
p3691
(dp3692
g28
(lp3693
g148
asg1183
g9
((lp3694
S'BETN016'
p3695
atRp3696
sg1185
S'42601 - NO'
p3697
ssS'6700'
p3698
(dp3699
g28
(lp3700
g149
asg1183
g9
((lp3701
S'BETN016'
p3702
atRp3703
sg1185
S'42401 - SO2'
p3704
ssS'6703'
p3705
(dp3706
g28
(lp3707
g150
asg1183
g9
((lp3708
S'BETN016'
p3709
atRp3710
sg1185
S'44201 - O3'
p3711
ssS'6702'
p3712
(dp3713
g28
(lp3714
g151
asg1183
g9
((lp3715
S'BETN016'
p3716
atRp3717
sg1185
S'42602 - NO2'
p3718
ssS'6704'
p3719
(dp3720
g28
(lp3721
g152
asg1183
g9
((lp3722
S'BETN016'
p3723
atRp3724
sg1185
S'81102 - PM10'
p3725
ssS'6824'
p3726
(dp3727
g28
(lp3728
g945
asg1183
g9
((lp3729
S'BETR830'
p3730
atRp3731
sg1185
S'42401 - SO2'
p3732
ssS'6825'
p3733
(dp3734
g28
(lp3735
g946
asg1183
g9
((lp3736
S'BETR830'
p3737
atRp3738
sg1185
S'42601 - NO'
p3739
ssS'6826'
p3740
(dp3741
g28
(lp3742
g947
asg1183
g9
((lp3743
S'BETR830'
p3744
atRp3745
sg1185
S'42602 - NO2'
p3746
ssS'6828'
p3747
(dp3748
g28
(lp3749
g934
asg1183
g9
((lp3750
S'BETR831'
p3751
atRp3752
sg1185
S'42401 - SO2'
p3753
ssS'6829'
p3754
(dp3755
g28
(lp3756
g935
asg1183
g9
((lp3757
S'BETR831'
p3758
atRp3759
sg1185
S'42601 - NO'
p3760
ssS'6675'
p3761
(dp3762
g28
(lp3763
S'45204 - o-C6H4-(CH3)2_._6675'
p3764
asg1183
g9
((ltRp3765
sg1185
S'45204 - o-C6H4-(CH3)2'
p3766
ssS'6674'
p3767
(dp3768
g28
(lp3769
S'45203 - C6H5-C2H5_._6674'
p3770
asg1183
g9
((ltRp3771
sg1185
S'45203 - C6H5-C2H5'
p3772
ssS'7021'
p3773
(dp3774
g28
(lp3775
g659
asg1183
g9
((lp3776
S'BETR240'
p3777
atRp3778
sg1185
S'81102 - PM10'
p3779
ssS'7020'
p3780
(dp3781
g28
(lp3782
g660
asg1183
g9
((lp3783
S'BETR240'
p3784
atRp3785
sg1185
S'44201 - O3'
p3786
ssS'6671'
p3787
(dp3788
g28
(lp3789
S'45109 - m,p-C6H4(CH3)2_._6671'
p3790
asg1183
g9
((ltRp3791
sg1185
S'45109 - m,p-C6H4(CH3)2'
p3792
ssS'7026'
p3793
(dp3794
g28
(lp3795
g429
asg1183
g9
((lp3796
S'BETM702'
p3797
atRp3798
sg1185
S'42602 - NO2'
p3799
ssS'6673'
p3800
(dp3801
g28
(lp3802
S'45202 - C6H5-CH3_._6673'
p3803
asg1183
g9
((ltRp3804
sg1185
S'45202 - C6H5-CH3'
p3805
ssS'6672'
p3806
(dp3807
g28
(lp3808
S'45201 - C6H6_._6672'
p3809
asg1183
g9
((ltRp3810
sg1185
S'45201 - C6H6'
p3811
ssS'7029'
p3812
(dp3813
g28
(lp3814
g697
asg1183
g9
((lp3815
S'BETM705'
p3816
atRp3817
sg1185
S'16111 - Black Carbon'
p3818
ssS'7023'
p3819
(dp3820
g28
(lp3821
S'89101 - PM1_._7023'
p3822
asg1183
g9
((ltRp3823
sg1185
S'89101 - PM1'
p3824
ssS'6778'
p3825
(dp3826
g28
(lp3827
g473
asg1183
g9
((lp3828
S'BETR801'
p3829
atRp3830
sg1185
S'44201 - O3'
p3831
ssS'6779'
p3832
(dp3833
g28
(lp3834
S'45109 - m,p-C6H4(CH3)2_._6779'
p3835
asg1183
g9
((ltRp3836
sg1185
S'45109 - m,p-C6H4(CH3)2'
p3837
ssS'7022'
p3838
(dp3839
g28
(lp3840
g661
asg1183
g9
((lp3841
S'BETR240'
p3842
atRp3843
sg1185
S'81104 - PM2.5'
p3844
ssS'6774'
p3845
(dp3846
g28
(lp3847
g474
asg1183
g9
((lp3848
S'BETR801'
p3849
atRp3850
sg1185
S'42401 - SO2'
p3851
ssS'6775'
p3852
(dp3853
g28
(lp3854
g475
asg1183
g9
((lp3855
S'BETR801'
p3856
atRp3857
sg1185
S'42601 - NO'
p3858
ssS'6776'
p3859
(dp3860
g28
(lp3861
g476
asg1183
g9
((lp3862
S'BETR801'
p3863
atRp3864
sg1185
S'42602 - NO2'
p3865
ssS'6771'
p3866
(dp3867
g28
(lp3868
g834
asg1183
g9
((lp3869
S'BETR020'
p3870
atRp3871
sg1185
S'81102 - PM10'
p3872
ssS'6773'
p3873
(dp3874
g28
(lp3875
g477
asg1183
g9
((lp3876
S'BETR801'
p3877
atRp3878
sg1185
S'42101 - CO'
p3879
ssS'7025'
p3880
(dp3881
g28
(lp3882
g430
asg1183
g9
((lp3883
S'BETM702'
p3884
atRp3885
sg1185
S'42601 - NO'
p3886
ssS'7054'
p3887
(dp3888
g28
(lp3889
g407
asg1183
g9
((lp3890
S'BETN029'
p3891
atRp3892
sg1185
S'81102 - PM10'
p3893
ssS'7055'
p3894
(dp3895
g28
(lp3896
g408
asg1183
g9
((lp3897
S'BETN029'
p3898
atRp3899
sg1185
S'81104 - PM2.5'
p3900
ssS'7096'
p3901
(dp3902
g28
(lp3903
g191
asg1183
g9
((lp3904
S'BETR721'
p3905
atRp3906
sg1185
S'42601 - NO'
p3907
ssS'7097'
p3908
(dp3909
g28
(lp3910
g192
asg1183
g9
((lp3911
S'BETR721'
p3912
atRp3913
sg1185
S'42602 - NO2'
p3914
ssS'99900'
p3915
(dp3916
g28
(lp3917
g409
asg1183
g9
((lp3918
S'BETN029'
p3919
atRp3920
sg1185
S'61102 - DD'
p3921
ssS'7095'
p3922
(dp3923
g28
(lp3924
g193
asg1183
g9
((lp3925
S'BETR721'
p3926
atRp3927
sg1185
S'42401 - SO2'
p3928
ssS'7092'
p3929
(dp3930
g28
(lp3931
g639
asg1183
g9
((lp3932
S'BETR710'
p3933
atRp3934
sg1185
S'81102 - PM10'
p3935
ssS'99907'
p3936
(dp3937
g28
(lp3938
g442
asg1183
g9
((lp3939
S'BETR701'
p3940
atRp3941
sg1185
S'61110 - WSP-SCA'
p3942
ssS'7090'
p3943
(dp3944
g28
(lp3945
g640
asg1183
g9
((lp3946
S'BETR710'
p3947
atRp3948
sg1185
S'42602 - NO2'
p3949
ssS'7091'
p3950
(dp3951
g28
(lp3952
g641
asg1183
g9
((lp3953
S'BETR710'
p3954
atRp3955
sg1185
S'44201 - O3'
p3956
ssS'7157'
p3957
(dp3958
g28
(lp3959
g88
asg1183
g9
((lp3960
S'BETR512'
p3961
atRp3962
sg1185
S'42101 - CO'
p3963
ssS'7155'
p3964
(dp3965
g28
(lp3966
g89
asg1183
g9
((lp3967
S'BETR512'
p3968
atRp3969
sg1185
S'16111 - Black Carbon'
p3970
ssS'99909'
p3971
(dp3972
g28
(lp3973
g458
asg1183
g9
((lp3974
S'BETM802'
p3975
atRp3976
sg1185
S'61102 - DD'
p3977
ssS'7153'
p3978
(dp3979
g28
(lp3980
S'89101 - PM1_._7153'
p3981
asg1183
g9
((ltRp3982
sg1185
S'89101 - PM1'
p3983
ssS'7152'
p3984
(dp3985
g28
(lp3986
g110
asg1183
g9
((lp3987
S'BETR511'
p3988
atRp3989
sg1185
S'81104 - PM2.5'
p3990
ssS'7151'
p3991
(dp3992
g28
(lp3993
g111
asg1183
g9
((lp3994
S'BETR511'
p3995
atRp3996
sg1185
S'81102 - PM10'
p3997
ssS'6688'
p3998
(dp3999
g28
(lp4000
g459
asg1183
g9
((lp4001
S'BETM802'
p4002
atRp4003
sg1185
S'42401 - SO2'
p4004
ssS'6689'
p4005
(dp4006
g28
(lp4007
g460
asg1183
g9
((lp4008
S'BETM802'
p4009
atRp4010
sg1185
S'42601 - NO'
p4011
ssS'6687'
p4012
(dp4013
g28
(lp4014
g461
asg1183
g9
((lp4015
S'BETM802'
p4016
atRp4017
sg1185
S'16111 - Black Carbon'
p4018
ssS'99905'
p4019
(dp4020
g28
(lp4021
g698
asg1183
g9
((lp4022
S'BETM705'
p4023
atRp4024
sg1185
S'62101 - TT'
p4025
ssS'6509'
p4026
(dp4027
g28
(lp4028
g720
asg1183
g9
((lp4029
S'BETB004'
p4030
atRp4031
sg1185
S'44201 - O3'
p4032
ssS'6521'
p4033
(dp4034
g28
(lp4035
g1073
asg1183
g9
((lp4036
S'BETB006'
p4037
atRp4038
sg1185
S'45203 - C6H5-C2H5'
p4039
ssS'6520'
p4040
(dp4041
g28
(lp4042
g1074
asg1183
g9
((lp4043
S'BETB006'
p4044
atRp4045
sg1185
S'45202 - C6H5-CH3'
p4046
ssS'6488'
p4047
(dp4048
g28
(lp4049
S'45202 - C6H5-CH3_._6488'
p4050
asg1183
g9
((ltRp4051
sg1185
S'45202 - C6H5-CH3'
p4052
ssS'6522'
p4053
(dp4054
g28
(lp4055
g1075
asg1183
g9
((lp4056
S'BETB006'
p4057
atRp4058
sg1185
S'45204 - o-C6H4-(CH3)2'
p4059
ssS'6527'
p4060
(dp4061
g28
(lp4062
g868
asg1183
g9
((lp4063
S'BETB011'
p4064
atRp4065
sg1185
S'42601 - NO'
p4066
ssS'6950'
p4067
(dp4068
g28
(lp4069
g571
asg1183
g9
((lp4070
S'BETN100'
p4071
atRp4072
sg1185
S'81102 - PM10'
p4073
ssS'6528'
p4074
(dp4075
g28
(lp4076
g869
asg1183
g9
((lp4077
S'BETB011'
p4078
atRp4079
sg1185
S'42602 - NO2'
p4080
ssS'6952'
p4081
(dp4082
g28
(lp4083
S'89101 - PM1_._6952'
p4084
asg1183
g9
((ltRp4085
sg1185
S'89101 - PM1'
p4086
ssS'6486'
p4087
(dp4088
g28
(lp4089
S'45109 - m,p-C6H4(CH3)2_._6486'
p4090
asg1183
g9
((ltRp4091
sg1185
S'45109 - m,p-C6H4(CH3)2'
p4092
ssS'6487'
p4093
(dp4094
g28
(lp4095
g326
asg1183
g9
((lp4096
S'BELZL01'
p4097
atRp4098
sg1185
S'45201 - C6H6'
p4099
ssS'6956'
p4100
(dp4101
g28
(lp4102
g731
asg1183
g9
((lp4103
S'BETN113'
p4104
atRp4105
sg1185
S'44201 - O3'
p4106
ssS'6957'
p4107
(dp4108
g28
(lp4109
g732
asg1183
g9
((lp4110
S'BETN113'
p4111
atRp4112
sg1185
S'81102 - PM10'
p4113
ssS'6356'
p4114
(dp4115
g28
(lp4116
g1158
asg1183
g9
((lp4117
S'BELSZ01'
p4118
atRp4119
sg1185
S'81104 - PM2.5'
p4120
ssS'6196'
p4121
(dp4122
g28
(lp4123
g225
asg1183
g9
((lp4124
S'BELGK06'
p4125
atRp4126
sg1185
S'81102 - PM10'
p4127
ssS'6198'
p4128
(dp4129
g28
(lp4130
g202
asg1183
g9
((lp4131
S'BELGK09'
p4132
atRp4133
sg1185
S'42401 - SO2'
p4134
ssS'6199'
p4135
(dp4136
g28
(lp4137
g203
asg1183
g9
((lp4138
S'BELGK09'
p4139
atRp4140
sg1185
S'42601 - NO'
p4141
ssS'7148'
p4142
(dp4143
g28
(lp4144
g103
asg1183
g9
((lp4145
S'BETR510'
p4146
atRp4147
sg1185
S'81102 - PM10'
p4148
ssS'6951'
p4149
(dp4150
g28
(lp4151
g572
asg1183
g9
((lp4152
S'BETN100'
p4153
atRp4154
sg1185
S'81104 - PM2.5'
p4155
ssS'7209'
p4156
(dp4157
g28
(lp4158
g997
asg1183
g9
((lp4159
S'BETE804'
p4160
atRp4161
sg1185
S'42601 - NO'
p4162
ssS'7208'
p4163
(dp4164
g28
(lp4165
S'42401 - SO2_._7208'
p4166
asg1183
g9
((ltRp4167
sg1185
S'42401 - SO2'
p4168
ssS'6550'
p4169
(dp4170
g28
(lp4171
g740
asg1183
g9
((lp4172
S'BETMEU1'
p4173
atRp4174
sg1185
S'42601 - NO'
p4175
ssS'6551'
p4176
(dp4177
g28
(lp4178
g741
asg1183
g9
((lp4179
S'BETMEU1'
p4180
atRp4181
sg1185
S'42602 - NO2'
p4182
ssS'6552'
p4183
(dp4184
g28
(lp4185
g742
asg1183
g9
((lp4186
S'BETMEU1'
p4187
atRp4188
sg1185
S'81102 - PM10'
p4189
ssS'6553'
p4190
(dp4191
g28
(lp4192
g743
asg1183
g9
((lp4193
S'BETMEU1'
p4194
atRp4195
sg1185
S'81104 - PM2.5'
p4196
ssS'7203'
p4197
(dp4198
g28
(lp4199
g64
asg1183
g9
((lp4200
S'BETE715'
p4201
atRp4202
sg1185
S'42601 - NO'
p4203
ssS'6622'
p4204
(dp4205
g28
(lp4206
g354
asg1183
g9
((lp4207
S'BETR012'
p4208
atRp4209
sg1185
S'42602 - NO2'
p4210
ssS'7201'
p4211
(dp4212
g28
(lp4213
g72
asg1183
g9
((lp4214
S'BETE714'
p4215
atRp4216
sg1185
S'42602 - NO2'
p4217
ssS'7200'
p4218
(dp4219
g28
(lp4220
g73
asg1183
g9
((lp4221
S'BETE714'
p4222
atRp4223
sg1185
S'42601 - NO'
p4224
ssS'6558'
p4225
(dp4226
g28
(lp4227
g771
asg1183
g9
((lp4228
S'BETN043'
p4229
atRp4230
sg1185
S'42101 - CO'
p4231
ssS'6559'
p4232
(dp4233
g28
(lp4234
g772
asg1183
g9
((lp4235
S'BETN043'
p4236
atRp4237
sg1185
S'42401 - SO2'
p4238
ssS'7204'
p4239
(dp4240
g28
(lp4241
g65
asg1183
g9
((lp4242
S'BETE715'
p4243
atRp4244
sg1185
S'42602 - NO2'
p4245
ssS'7119'
p4246
(dp4247
g28
(lp4248
g55
asg1183
g9
((lp4249
S'BETR750'
p4250
atRp4251
sg1185
S'42101 - CO'
p4252
ssS'6639'
p4253
(dp4254
g28
(lp4255
g266
asg1183
g9
((lp4256
S'BETWOL1'
p4257
atRp4258
sg1185
S'42602 - NO2'
p4259
ssS'6731'
p4260
(dp4261
g28
(lp4262
g783
asg1183
g9
((lp4263
S'BETN045'
p4264
atRp4265
sg1185
S'44201 - O3'
p4266
ssS'6732'
p4267
(dp4268
g28
(lp4269
S'45109 - m,p-C6H4(CH3)2_._6732'
p4270
asg1183
g9
((ltRp4271
sg1185
S'45109 - m,p-C6H4(CH3)2'
p4272
ssS'6733'
p4273
(dp4274
g28
(lp4275
g784
asg1183
g9
((lp4276
S'BETN045'
p4277
atRp4278
sg1185
S'45201 - C6H6'
p4279
ssS'6734'
p4280
(dp4281
g28
(lp4282
S'45202 - C6H5-CH3_._6734'
p4283
asg1183
g9
((ltRp4284
sg1185
S'45202 - C6H5-CH3'
p4285
ssS'6735'
p4286
(dp4287
g28
(lp4288
S'45203 - C6H5-C2H5_._6735'
p4289
asg1183
g9
((ltRp4290
sg1185
S'45203 - C6H5-C2H5'
p4291
ssS'6736'
p4292
(dp4293
g28
(lp4294
S'45204 - o-C6H4-(CH3)2_._6736'
p4295
asg1183
g9
((ltRp4296
sg1185
S'45204 - o-C6H4-(CH3)2'
p4297
ssS'6739'
p4298
(dp4299
g28
(lp4300
g785
asg1183
g9
((lp4301
S'BETN045'
p4302
atRp4303
sg1185
S'81102 - PM10'
p4304
ssS'6633'
p4305
(dp4306
g28
(lp4307
g267
asg1183
g9
((lp4308
S'BETWOL1'
p4309
atRp4310
sg1185
S'16111 - Black Carbon'
p4311
ssS'6635'
p4312
(dp4313
g28
(lp4314
g268
asg1183
g9
((lp4315
S'BETWOL1'
p4316
atRp4317
sg1185
S'42101 - CO'
p4318
ssS'6637'
p4319
(dp4320
g28
(lp4321
g269
asg1183
g9
((lp4322
S'BETWOL1'
p4323
atRp4324
sg1185
S'42401 - SO2'
p4325
ssS'6636'
p4326
(dp4327
g28
(lp4328
g270
asg1183
g9
((lp4329
S'BETWOL1'
p4330
atRp4331
sg1185
S'42102 - CO2'
p4332
ssS'7111'
p4333
(dp4334
g28
(lp4335
g380
asg1183
g9
((lp4336
S'BETR740'
p4337
atRp4338
sg1185
S'42602 - NO2'
p4339
ssS'7110'
p4340
(dp4341
g28
(lp4342
g381
asg1183
g9
((lp4343
S'BETR740'
p4344
atRp4345
sg1185
S'42601 - NO'
p4346
ssS'7117'
p4347
(dp4348
g28
(lp4349
g382
asg1183
g9
((lp4350
S'BETR740'
p4351
atRp4352
sg1185
S'81102 - PM10'
p4353
ssS'6879'
p4354
(dp4355
g28
(lp4356
g180
asg1183
g9
((lp4357
S'BETH201'
p4358
atRp4359
sg1185
S'42401 - SO2'
p4360
ssS'6875'
p4361
(dp4362
g28
(lp4363
g553
asg1183
g9
((lp4364
S'BETR897'
p4365
atRp4366
sg1185
S'42602 - NO2'
p4367
ssS'6874'
p4368
(dp4369
g28
(lp4370
g554
asg1183
g9
((lp4371
S'BETR897'
p4372
atRp4373
sg1185
S'42601 - NO'
p4374
ssS'6873'
p4375
(dp4376
g28
(lp4377
g555
asg1183
g9
((lp4378
S'BETR897'
p4379
atRp4380
sg1185
S'42401 - SO2'
p4381
ssS'6870'
p4382
(dp4383
g28
(lp4384
g564
asg1183
g9
((lp4385
S'BETR894'
p4386
atRp4387
sg1185
S'42602 - NO2'
p4388
ssS'7052'
p4389
(dp4390
g28
(lp4391
S'45203 - C6H5-C2H5_._7052'
p4392
asg1183
g9
((ltRp4393
sg1185
S'45203 - C6H5-C2H5'
p4394
ssS'7053'
p4395
(dp4396
g28
(lp4397
S'45204 - o-C6H4-(CH3)2_._7053'
p4398
asg1183
g9
((ltRp4399
sg1185
S'45204 - o-C6H4-(CH3)2'
p4400
ssS'7050'
p4401
(dp4402
g28
(lp4403
g410
asg1183
g9
((lp4404
S'BETN029'
p4405
atRp4406
sg1185
S'45201 - C6H6'
p4407
ssS'7051'
p4408
(dp4409
g28
(lp4410
S'45202 - C6H5-CH3_._7051'
p4411
asg1183
g9
((ltRp4412
sg1185
S'45202 - C6H5-CH3'
p4413
ssS'6642'
p4414
(dp4415
g28
(lp4416
g271
asg1183
g9
((lp4417
S'BETWOL1'
p4418
atRp4419
sg1185
S'44201 - O3'
p4420
ssS'6643'
p4421
(dp4422
g28
(lp4423
g272
asg1183
g9
((lp4424
S'BETWOL1'
p4425
atRp4426
sg1185
S'81102 - PM10'
p4427
ssS'7125'
p4428
(dp4429
g28
(lp4430
g56
asg1183
g9
((lp4431
S'BETR750'
p4432
atRp4433
sg1185
S'81102 - PM10'
p4434
ssS'6998'
p4435
(dp4436
g28
(lp4437
g970
asg1183
g9
((lp4438
S'BETR222'
p4439
atRp4440
sg1185
S'42602 - NO2'
p4441
ssS'6999'
p4442
(dp4443
g28
(lp4444
g971
asg1183
g9
((lp4445
S'BETR222'
p4446
atRp4447
sg1185
S'44201 - O3'
p4448
ssS'6994'
p4449
(dp4450
g28
(lp4451
g958
asg1183
g9
((lp4452
S'BETR221'
p4453
atRp4454
sg1185
S'81104 - PM2.5'
p4455
ssS'6995'
p4456
(dp4457
g28
(lp4458
g972
asg1183
g9
((lp4459
S'BETR222'
p4460
atRp4461
sg1185
S'42101 - CO'
p4462
ssS'6996'
p4463
(dp4464
g28
(lp4465
g973
asg1183
g9
((lp4466
S'BETR222'
p4467
atRp4468
sg1185
S'42401 - SO2'
p4469
ssS'6997'
p4470
(dp4471
g28
(lp4472
g974
asg1183
g9
((lp4473
S'BETR222'
p4474
atRp4475
sg1185
S'42601 - NO'
p4476
ssS'6990'
p4477
(dp4478
g28
(lp4479
g959
asg1183
g9
((lp4480
S'BETR221'
p4481
atRp4482
sg1185
S'42401 - SO2'
p4483
ssS'6993'
p4484
(dp4485
g28
(lp4486
g960
asg1183
g9
((lp4487
S'BETR221'
p4488
atRp4489
sg1185
S'81102 - PM10'
p4490
ssS'6392'
p4491
(dp4492
g28
(lp4493
S'45201 - C6H6_._6392'
p4494
asg1183
g9
((ltRp4495
sg1185
S'45201 - C6H6'
p4496
ssS'6393'
p4497
(dp4498
g28
(lp4499
S'45202 - C6H5-CH3_._6393'
p4500
asg1183
g9
((ltRp4501
sg1185
S'45202 - C6H5-CH3'
p4502
ssS'6391'
p4503
(dp4504
g28
(lp4505
S'45109 - m,p-C6H4(CH3)2_._6391'
p4506
asg1183
g9
((ltRp4507
sg1185
S'45109 - m,p-C6H4(CH3)2'
p4508
ssS'6394'
p4509
(dp4510
g28
(lp4511
S'45203 - C6H5-C2H5_._6394'
p4512
asg1183
g9
((ltRp4513
sg1185
S'45203 - C6H5-C2H5'
p4514
ssS'6395'
p4515
(dp4516
g28
(lp4517
S'45204 - o-C6H4-(CH3)2_._6395'
p4518
asg1183
g9
((ltRp4519
sg1185
S'45204 - o-C6H4-(CH3)2'
p4520
ssS'10739'
p4521
(dp4522
g28
(lp4523
g488
asg1183
g9
((lp4524
S'BETR802'
p4525
atRp4526
sg1185
S'42101 - CO'
p4527
ssS'6907'
p4528
(dp4529
g28
(lp4530
g1054
asg1183
g9
((lp4531
S'BETN066'
p4532
atRp4533
sg1185
S'44201 - O3'
p4534
ssS'6906'
p4535
(dp4536
g28
(lp4537
g1055
asg1183
g9
((lp4538
S'BETN066'
p4539
atRp4540
sg1185
S'42602 - NO2'
p4541
ssS'6905'
p4542
(dp4543
g28
(lp4544
g1056
asg1183
g9
((lp4545
S'BETN066'
p4546
atRp4547
sg1185
S'42601 - NO'
p4548
ssS'6904'
p4549
(dp4550
g28
(lp4551
g1057
asg1183
g9
((lp4552
S'BETN066'
p4553
atRp4554
sg1185
S'42401 - SO2'
p4555
ssS'6902'
p4556
(dp4557
g28
(lp4558
S'89101 - PM1_._6902'
p4559
asg1183
g9
((ltRp4560
sg1185
S'89101 - PM1'
p4561
ssS'6901'
p4562
(dp4563
g28
(lp4564
g1031
asg1183
g9
((lp4565
S'BETN063'
p4566
atRp4567
sg1185
S'81104 - PM2.5'
p4568
ssS'6900'
p4569
(dp4570
g28
(lp4571
g1032
asg1183
g9
((lp4572
S'BETN063'
p4573
atRp4574
sg1185
S'81102 - PM10'
p4575
ssS'6909'
p4576
(dp4577
g28
(lp4578
S'81104 - PM2.5_._6909'
p4579
asg1183
g9
((ltRp4580
sg1185
S'81104 - PM2.5'
p4581
ssS'6908'
p4582
(dp4583
g28
(lp4584
S'81102 - PM10_._6908'
p4585
asg1183
g9
((ltRp4586
sg1185
S'81102 - PM10'
p4587
ssS'6518'
p4588
(dp4589
g28
(lp4590
S'45109 - m,p-C6H4(CH3)2_._6518'
p4591
asg1183
g9
((ltRp4592
sg1185
S'45109 - m,p-C6H4(CH3)2'
p4593
ssS'6519'
p4594
(dp4595
g28
(lp4596
g1076
asg1183
g9
((lp4597
S'BETB006'
p4598
atRp4599
sg1185
S'45201 - C6H6'
p4600
ssS'6514'
p4601
(dp4602
g28
(lp4603
g1077
asg1183
g9
((lp4604
S'BETB006'
p4605
atRp4606
sg1185
S'42101 - CO'
p4607
ssS'6515'
p4608
(dp4609
g28
(lp4610
g1078
asg1183
g9
((lp4611
S'BETB006'
p4612
atRp4613
sg1185
S'42601 - NO'
p4614
ssS'6516'
p4615
(dp4616
g28
(lp4617
g1079
asg1183
g9
((lp4618
S'BETB006'
p4619
atRp4620
sg1185
S'42602 - NO2'
p4621
ssS'6517'
p4622
(dp4623
g28
(lp4624
g1080
asg1183
g9
((lp4625
S'BETB006'
p4626
atRp4627
sg1185
S'44201 - O3'
p4628
ssS'10602'
p4629
(dp4630
g28
(lp4631
g443
asg1183
g9
((lp4632
S'BETR701'
p4633
atRp4634
sg1185
S'16111 - Black Carbon'
p4635
ssS'10603'
p4636
(dp4637
g28
(lp4638
g478
asg1183
g9
((lp4639
S'BETR801'
p4640
atRp4641
sg1185
S'16111 - Black Carbon'
p4642
ssS'10600'
p4643
(dp4644
g28
(lp4645
g936
asg1183
g9
((lp4646
S'BETR831'
p4647
atRp4648
sg1185
S'81102 - PM10'
p4649
ssS'10601'
p4650
(dp4651
g28
(lp4652
g489
asg1183
g9
((lp4653
S'BETR802'
p4654
atRp4655
sg1185
S'42602 - NO2'
p4656
ssS'10606'
p4657
(dp4658
g28
(lp4659
g411
asg1183
g9
((lp4660
S'BETN029'
p4661
atRp4662
sg1185
S'16111 - Black Carbon'
p4663
ssS'10607'
p4664
(dp4665
g28
(lp4666
g355
asg1183
g9
((lp4667
S'BETR012'
p4668
atRp4669
sg1185
S'16111 - Black Carbon'
p4670
ssS'10604'
p4671
(dp4672
g28
(lp4673
g490
asg1183
g9
((lp4674
S'BETR802'
p4675
atRp4676
sg1185
S'16111 - Black Carbon'
p4677
ssS'10605'
p4678
(dp4679
g28
(lp4680
g57
asg1183
g9
((lp4681
S'BETR750'
p4682
atRp4683
sg1185
S'16111 - Black Carbon'
p4684
ssS'10608'
p4685
(dp4686
g28
(lp4687
g786
asg1183
g9
((lp4688
S'BETN045'
p4689
atRp4690
sg1185
S'16111 - Black Carbon'
p4691
ssS'10609'
p4692
(dp4693
g28
(lp4694
g153
asg1183
g9
((lp4695
S'BETN016'
p4696
atRp4697
sg1185
S'16111 - Black Carbon'
p4698
ssS'6301'
p4699
(dp4700
g28
(lp4701
g256
asg1183
g9
((lp4702
S'BELMN01'
p4703
atRp4704
sg1185
S'81102 - PM10'
p4705
ssS'99902'
p4706
(dp4707
g28
(lp4708
g412
asg1183
g9
((lp4709
S'BETN029'
p4710
atRp4711
sg1185
S'62101 - TT'
p4712
ssS'99903'
p4713
(dp4714
g28
(lp4715
g699
asg1183
g9
((lp4716
S'BETM705'
p4717
atRp4718
sg1185
S'61102 - DD'
p4719
ssS'99901'
p4720
(dp4721
g28
(lp4722
g413
asg1183
g9
((lp4723
S'BETN029'
p4724
atRp4725
sg1185
S'61110 - WSP-SCA'
p4726
ssS'99906'
p4727
(dp4728
g28
(lp4729
g444
asg1183
g9
((lp4730
S'BETR701'
p4731
atRp4732
sg1185
S'61102 - DD'
p4733
ssS'7159'
p4734
(dp4735
g28
(lp4736
g90
asg1183
g9
((lp4737
S'BETR512'
p4738
atRp4739
sg1185
S'42601 - NO'
p4740
ssS'7158'
p4741
(dp4742
g28
(lp4743
g91
asg1183
g9
((lp4744
S'BETR512'
p4745
atRp4746
sg1185
S'42401 - SO2'
p4747
ssS'7104'
p4748
(dp4749
g28
(lp4750
g904
asg1183
g9
((lp4751
S'BETR731'
p4752
atRp4753
sg1185
S'42601 - NO'
p4754
ssS'99908'
p4755
(dp4756
g28
(lp4757
g445
asg1183
g9
((lp4758
S'BETR701'
p4759
atRp4760
sg1185
S'62101 - TT'
p4761
ssS'7105'
p4762
(dp4763
g28
(lp4764
g905
asg1183
g9
((lp4765
S'BETR731'
p4766
atRp4767
sg1185
S'42602 - NO2'
p4768
ssS'6832'
p4769
(dp4770
g28
(lp4771
g937
asg1183
g9
((lp4772
S'BETR831'
p4773
atRp4774
sg1185
S'44201 - O3'
p4775
ssS'6830'
p4776
(dp4777
g28
(lp4778
g938
asg1183
g9
((lp4779
S'BETR831'
p4780
atRp4781
sg1185
S'42602 - NO2'
p4782
ssS'7109'
p4783
(dp4784
g28
(lp4785
g383
asg1183
g9
((lp4786
S'BETR740'
p4787
atRp4788
sg1185
S'42401 - SO2'
p4789
ssS'7016'
p4790
(dp4791
g28
(lp4792
g662
asg1183
g9
((lp4793
S'BETR240'
p4794
atRp4795
sg1185
S'42601 - NO'
p4796
ssS'6609'
p4797
(dp4798
g28
(lp4799
g519
asg1183
g9
((lp4800
S'BETR002'
p4801
atRp4802
sg1185
S'16111 - Black Carbon'
p4803
ssS'7014'
p4804
(dp4805
g28
(lp4806
g663
asg1183
g9
((lp4807
S'BETR240'
p4808
atRp4809
sg1185
S'42401 - SO2'
p4810
ssS'7010'
p4811
(dp4812
g28
(lp4813
S'89101 - PM1_._7010'
p4814
asg1183
g9
((ltRp4815
sg1185
S'89101 - PM1'
p4816
ssS'6769'
p4817
(dp4818
g28
(lp4819
g835
asg1183
g9
((lp4820
S'BETR020'
p4821
atRp4822
sg1185
S'42602 - NO2'
p4823
ssS'6768'
p4824
(dp4825
g28
(lp4826
g836
asg1183
g9
((lp4827
S'BETR020'
p4828
atRp4829
sg1185
S'42601 - NO'
p4830
ssS'6767'
p4831
(dp4832
g28
(lp4833
g837
asg1183
g9
((lp4834
S'BETR020'
p4835
atRp4836
sg1185
S'42401 - SO2'
p4837
ssS'6766'
p4838
(dp4839
g28
(lp4840
g838
asg1183
g9
((lp4841
S'BETR020'
p4842
atRp4843
sg1185
S'42101 - CO'
p4844
ssS'7162'
p4845
(dp4846
g28
(lp4847
g92
asg1183
g9
((lp4848
S'BETR512'
p4849
atRp4850
sg1185
S'81102 - PM10'
p4851
ssS'6887'
p4852
(dp4853
g28
(lp4854
g1043
asg1183
g9
((lp4855
S'BETN060'
p4856
atRp4857
sg1185
S'42101 - CO'
p4858
ssS'6884'
p4859
(dp4860
g28
(lp4861
g172
asg1183
g9
((lp4862
S'BETM204'
p4863
atRp4864
sg1185
S'81104 - PM2.5'
p4865
ssS'6885'
p4866
(dp4867
g28
(lp4868
S'89101 - PM1_._6885'
p4869
asg1183
g9
((ltRp4870
sg1185
S'89101 - PM1'
p4871
ssS'6883'
p4872
(dp4873
g28
(lp4874
g173
asg1183
g9
((lp4875
S'BETM204'
p4876
atRp4877
sg1185
S'81102 - PM10'
p4878
ssS'6880'
p4879
(dp4880
g28
(lp4881
g181
asg1183
g9
((lp4882
S'BETH201'
p4883
atRp4884
sg1185
S'81102 - PM10'
p4885
ssS'6881'
p4886
(dp4887
g28
(lp4888
g182
asg1183
g9
((lp4889
S'BETH201'
p4890
atRp4891
sg1185
S'81104 - PM2.5'
p4892
ssS'6888'
p4893
(dp4894
g28
(lp4895
g1044
asg1183
g9
((lp4896
S'BETN060'
p4897
atRp4898
sg1185
S'42401 - SO2'
p4899
ssS'6889'
p4900
(dp4901
g28
(lp4902
g1045
asg1183
g9
((lp4903
S'BETN060'
p4904
atRp4905
sg1185
S'42601 - NO'
p4906
ssS'7081'
p4907
(dp4908
g28
(lp4909
S'45202 - C6H5-CH3_._7081'
p4910
asg1183
g9
((ltRp4911
sg1185
S'45202 - C6H5-CH3'
p4912
ssS'7080'
p4913
(dp4914
g28
(lp4915
g446
asg1183
g9
((lp4916
S'BETR701'
p4917
atRp4918
sg1185
S'45201 - C6H6'
p4919
ssS'7083'
p4920
(dp4921
g28
(lp4922
S'45204 - o-C6H4-(CH3)2_._7083'
p4923
asg1183
g9
((ltRp4924
sg1185
S'45204 - o-C6H4-(CH3)2'
p4925
ssS'7082'
p4926
(dp4927
g28
(lp4928
S'45203 - C6H5-C2H5_._7082'
p4929
asg1183
g9
((ltRp4930
sg1185
S'45203 - C6H5-C2H5'
p4931
ssS'7087'
p4932
(dp4933
g28
(lp4934
g447
asg1183
g9
((lp4935
S'BETR701'
p4936
atRp4937
sg1185
S'81104 - PM2.5'
p4938
ssS'7086'
p4939
(dp4940
g28
(lp4941
g448
asg1183
g9
((lp4942
S'BETR701'
p4943
atRp4944
sg1185
S'81102 - PM10'
p4945
ssS'7089'
p4946
(dp4947
g28
(lp4948
g642
asg1183
g9
((lp4949
S'BETR710'
p4950
atRp4951
sg1185
S'42601 - NO'
p4952
ssS'7163'
p4953
(dp4954
g28
(lp4955
g93
asg1183
g9
((lp4956
S'BETR512'
p4957
atRp4958
sg1185
S'81104 - PM2.5'
p4959
ssS'7160'
p4960
(dp4961
g28
(lp4962
g94
asg1183
g9
((lp4963
S'BETR512'
p4964
atRp4965
sg1185
S'42602 - NO2'
p4966
ssS'99934'
p4967
(dp4968
g28
(lp4969
S'61110 - WSP-SCA_._99934'
p4970
asg1183
g9
((ltRp4971
sg1185
S'61110 - WSP-SCA'
p4972
ssS'99933'
p4973
(dp4974
g28
(lp4975
S'61102 - DD_._99933'
p4976
asg1183
g9
((ltRp4977
sg1185
S'61102 - DD'
p4978
ssS'99932'
p4979
(dp4980
g28
(lp4981
g961
asg1183
g9
((lp4982
S'BETR221'
p4983
atRp4984
sg1185
S'62101 - TT'
p4985
ssS'7164'
p4986
(dp4987
g28
(lp4988
S'89101 - PM1_._7164'
p4989
asg1183
g9
((ltRp4990
sg1185
S'89101 - PM1'
p4991
ssS'99930'
p4992
(dp4993
g28
(lp4994
S'61102 - DD_._99930'
p4995
asg1183
g9
((ltRp4996
sg1185
S'61102 - DD'
p4997
ssS'99914'
p4998
(dp4999
g28
(lp5000
g870
asg1183
g9
((lp5001
S'BETB011'
p5002
atRp5003
sg1185
S'62101 - TT'
p5004
ssS'6693'
p5005
(dp5006
g28
(lp5007
g462
asg1183
g9
((lp5008
S'BETM802'
p5009
atRp5010
sg1185
S'81102 - PM10'
p5011
ssS'7034'
p5012
(dp5013
g28
(lp5014
g700
asg1183
g9
((lp5015
S'BETM705'
p5016
atRp5017
sg1185
S'81102 - PM10'
p5018
ssS'6690'
p5019
(dp5020
g28
(lp5021
g463
asg1183
g9
((lp5022
S'BETM802'
p5023
atRp5024
sg1185
S'42602 - NO2'
p5025
ssS'6490'
p5026
(dp5027
g28
(lp5028
S'45204 - o-C6H4-(CH3)2_._6490'
p5029
asg1183
g9
((ltRp5030
sg1185
S'45204 - o-C6H4-(CH3)2'
p5031
ssS'6949'
p5032
(dp5033
g28
(lp5034
g573
asg1183
g9
((lp5035
S'BETN100'
p5036
atRp5037
sg1185
S'44201 - O3'
p5038
ssS'6948'
p5039
(dp5040
g28
(lp5041
g574
asg1183
g9
((lp5042
S'BETN100'
p5043
atRp5044
sg1185
S'42602 - NO2'
p5045
ssS'7130'
p5046
(dp5047
g28
(lp5048
g1112
asg1183
g9
((lp5049
S'BETR501'
p5050
atRp5051
sg1185
S'42401 - SO2'
p5052
ssS'6943'
p5053
(dp5054
g28
(lp5055
g119
asg1183
g9
((lp5056
S'BETN093'
p5057
atRp5058
sg1185
S'81102 - PM10'
p5059
ssS'6942'
p5060
(dp5061
g28
(lp5062
g120
asg1183
g9
((lp5063
S'BETN093'
p5064
atRp5065
sg1185
S'44201 - O3'
p5066
ssS'6941'
p5067
(dp5068
g28
(lp5069
g121
asg1183
g9
((lp5070
S'BETN093'
p5071
atRp5072
sg1185
S'42602 - NO2'
p5073
ssS'6940'
p5074
(dp5075
g28
(lp5076
g122
asg1183
g9
((lp5077
S'BETN093'
p5078
atRp5079
sg1185
S'42601 - NO'
p5080
ssS'6947'
p5081
(dp5082
g28
(lp5083
g575
asg1183
g9
((lp5084
S'BETN100'
p5085
atRp5086
sg1185
S'42601 - NO'
p5087
ssS'6946'
p5088
(dp5089
g28
(lp5090
g576
asg1183
g9
((lp5091
S'BETN100'
p5092
atRp5093
sg1185
S'42401 - SO2'
p5094
ssS'6945'
p5095
(dp5096
g28
(lp5097
S'89101 - PM1_._6945'
p5098
asg1183
g9
((ltRp5099
sg1185
S'89101 - PM1'
p5100
ssS'6944'
p5101
(dp5102
g28
(lp5103
g123
asg1183
g9
((lp5104
S'BETN093'
p5105
atRp5106
sg1185
S'81104 - PM2.5'
p5107
ssS'6343'
p5108
(dp5109
g28
(lp5110
g1159
asg1183
g9
((lp5111
S'BELSZ01'
p5112
atRp5113
sg1185
S'16111 - Black Carbon'
p5114
ssS'7132'
p5115
(dp5116
g28
(lp5117
g1113
asg1183
g9
((lp5118
S'BETR501'
p5119
atRp5120
sg1185
S'42602 - NO2'
p5121
ssS'6347'
p5122
(dp5123
g28
(lp5124
g1160
asg1183
g9
((lp5125
S'BELSZ01'
p5126
atRp5127
sg1185
S'42601 - NO'
p5128
ssS'6348'
p5129
(dp5130
g28
(lp5131
g1161
asg1183
g9
((lp5132
S'BELSZ01'
p5133
atRp5134
sg1185
S'42602 - NO2'
p5135
ssS'6337'
p5136
(dp5137
g28
(lp5138
S'81104 - PM2.5_._6337'
p5139
asg1183
g9
((ltRp5140
sg1185
S'81104 - PM2.5'
p5141
ssS'7234'
p5142
(dp5143
g28
(lp5144
g649
asg1183
g9
((lp5145
S'BETE812'
p5146
atRp5147
sg1185
S'42602 - NO2'
p5148
ssS'7232'
p5149
(dp5150
g28
(lp5151
g650
asg1183
g9
((lp5152
S'BETE812'
p5153
atRp5154
sg1185
S'42401 - SO2'
p5155
ssS'7233'
p5156
(dp5157
g28
(lp5158
g651
asg1183
g9
((lp5159
S'BETE812'
p5160
atRp5161
sg1185
S'42601 - NO'
p5162
ssS'7230'
p5163
(dp5164
g28
(lp5165
g1088
asg1183
g9
((lp5166
S'BETE811'
p5167
atRp5168
sg1185
S'42601 - NO'
p5169
ssS'7231'
p5170
(dp5171
g28
(lp5172
g1089
asg1183
g9
((lp5173
S'BETE811'
p5174
atRp5175
sg1185
S'42602 - NO2'
p5176
ssS'6958'
p5177
(dp5178
g28
(lp5179
g733
asg1183
g9
((lp5180
S'BETN113'
p5181
atRp5182
sg1185
S'81104 - PM2.5'
p5183
ssS'7008'
p5184
(dp5185
g28
(lp5186
g987
asg1183
g9
((lp5187
S'BETR223'
p5188
atRp5189
sg1185
S'81102 - PM10'
p5190
ssS'6549'
p5191
(dp5192
g28
(lp5193
g744
asg1183
g9
((lp5194
S'BETMEU1'
p5195
atRp5196
sg1185
S'42401 - SO2'
p5197
ssS'6548'
p5198
(dp5199
g28
(lp5200
g745
asg1183
g9
((lp5201
S'BETMEU1'
p5202
atRp5203
sg1185
S'42242 - Hg'
p5204
ssS'6334'
p5205
(dp5206
g28
(lp5207
g372
asg1183
g9
((lp5208
S'BELRL01'
p5209
atRp5210
sg1185
S'81102 - PM10'
p5211
ssS'6335'
p5212
(dp5213
g28
(lp5214
S'16111 - Black Carbon_._6335'
p5215
asg1183
g9
((ltRp5216
sg1185
S'16111 - Black Carbon'
p5217
ssS'6489'
p5218
(dp5219
g28
(lp5220
S'45203 - C6H5-C2H5_._6489'
p5221
asg1183
g9
((ltRp5222
sg1185
S'45203 - C6H5-C2H5'
p5223
sssS'accesConstraints'
p5224
S'http://creativecommons.org/licenses/by-nc-nd/3.0/'
p5225
sb.