(isosRequests
SOS
p1
(dp2
S'accessConstraints'
p3
S''
sS'name'
p4
S'SOS of IRCEL - CELINE'
p5
sS'resourceDescriptionFormat'
p6
c__builtin__
set
p7
((lp8
S'\n        '
p9
atRp10
sS'url'
p11
S'http://sos.irceline.be/sos?'
p12
sS'responseFormat'
p13
g7
((lp14
S'application/zip'
p15
aS'http://www.opengis.net/om/2.0'
p16
atRp17
sS'organisation'
p18
S'IRCEL - CELINE'
p19
sS'costs'
p20
S'NONE'
p21
sS'version'
p22
g7
((lp23
S'1.0.0'
p24
aS'2.0.0'
p25
atRp26
sS'error'
p27
I00
sS'featureofinterest'
p28
(dp29
S'BETR841'
p30
(dp31
S'offerings'
p32
(lp33
S'81104 - PM2.5_._6855'
p34
aS'81102 - PM10_._6854'
p35
aS'42601 - NO_._6851'
p36
aS'44201 - O3_._6853'
p37
aS'42602 - NO2_._6852'
p38
asS'coords'
p39
(lp40
S'157059.0 188039.0'
p41
aS'http://www.opengis.net/def/crs/EPSG/0/31370'
p42
assS'BELSA04'
p43
(dp44
g32
(lp45
S'81102 - PM10_._10691'
p46
aS'16111 - Black Carbon_._10690'
p47
aS'81104 - PM2.5_._10692'
p48
asg39
(lp49
S'152448.0 222679.0'
p50
aS'http://www.opengis.net/def/crs/EPSG/0/31370'
p51
assS'BETR750'
p52
(dp53
g32
(lp54
S'42601 - NO_._7121'
p55
aS'81104 - PM2.5_._100012'
p56
aS'42602 - NO2_._7122'
p57
aS'42401 - SO2_._7120'
p58
aS'42101 - CO_._7119'
p59
aS'81102 - PM10_._7125'
p60
aS'16111 - Black Carbon_._10605'
p61
asg39
(lp62
S'111845.0 209705.0'
p63
aS'http://www.opengis.net/def/crs/EPSG/0/31370'
p64
assS'BETE715'
p65
(dp66
g32
(lp67
S'42601 - NO_._7203'
p68
aS'42602 - NO2_._7204'
p69
asg39
(lp70
S'66645.0 215775.0'
p71
aS'http://www.opengis.net/def/crs/EPSG/0/31370'
p72
assS'BETE714'
p73
(dp74
g32
(lp75
S'42602 - NO2_._7201'
p76
aS'42601 - NO_._7200'
p77
asg39
(lp78
S'71842.0 219377.0'
p79
aS'http://www.opengis.net/def/crs/EPSG/0/31370'
p80
assS'BETE716'
p81
(dp82
g32
(lp83
S'42602 - NO2_._7207'
p84
aS'42601 - NO_._7206'
p85
asg39
(lp86
S'101919.0 195427.0'
p87
aS'http://www.opengis.net/def/crs/EPSG/0/31370'
p88
assS'BETR512'
p89
(dp90
g32
(lp91
S'42101 - CO_._7157'
p92
aS'16111 - Black Carbon_._7155'
p93
aS'42601 - NO_._7159'
p94
aS'42401 - SO2_._7158'
p95
aS'81102 - PM10_._7162'
p96
aS'81104 - PM2.5_._7163'
p97
aS'42602 - NO2_._7160'
p98
asg39
(lp99
S'151930.0 121880.0'
p100
aS'http://www.opengis.net/def/crs/EPSG/0/31370'
p101
assS'BETR510'
p102
(dp103
g32
(lp104
S'81104 - PM2.5_._7149'
p105
aS'42401 - SO2_._7147'
p106
aS'81102 - PM10_._7148'
p107
asg39
(lp108
S'160830.0 122850.0'
p109
aS'http://www.opengis.net/def/crs/EPSG/0/31370'
p110
assS'BETR511'
p111
(dp112
g32
(lp113
S'81104 - PM2.5_._7152'
p114
aS'81102 - PM10_._7151'
p115
asg39
(lp116
S'153980.0 118520.0'
p117
aS'http://www.opengis.net/def/crs/EPSG/0/31370'
p118
assS'BETN093'
p119
(dp120
g32
(lp121
S'42401 - SO2_._6939'
p122
aS'81102 - PM10_._6943'
p123
aS'44201 - O3_._6942'
p124
aS'42602 - NO2_._6941'
p125
aS'42601 - NO_._6940'
p126
aS'81104 - PM2.5_._6944'
p127
asg39
(lp128
S'211760.0 107410.0'
p129
aS'http://www.opengis.net/def/crs/EPSG/0/31370'
p130
assS'BELAB02'
p131
(dp132
g32
(lp133
S'81102 - PM10_._6149'
p134
aS'81104 - PM2.5_._100003'
p135
asg39
(lp136
S'146729.0 225661.0'
p137
aS'http://www.opengis.net/def/crs/EPSG/0/31370'
p138
assS'BELAB01'
p139
(dp140
g32
(lp141
S'16111 - Black Carbon_._6147'
p142
aS'81102 - PM10_._6148'
p143
aS'81104 - PM2.5_._100002'
p144
asg39
(lp145
S'147285.0 219017.0'
p146
aS'http://www.opengis.net/def/crs/EPSG/0/31370'
p147
assS'BETN016'
p148
(dp149
g32
(lp150
S'81104 - PM2.5_._100018'
p151
aS'42601 - NO_._6701'
p152
aS'42401 - SO2_._6700'
p153
aS'44201 - O3_._6703'
p154
aS'42602 - NO2_._6702'
p155
aS'81102 - PM10_._6704'
p156
aS'16111 - Black Carbon_._10609'
p157
asg39
(lp158
S'205542.0 214045.0'
p159
aS'http://www.opengis.net/def/crs/EPSG/0/31370'
p160
assS'BETN012'
p161
(dp162
g32
(lp163
S'81104 - PM2.5_._99997'
p164
aS'44201 - O3_._7041'
p165
aS'42602 - NO2_._7040'
p166
aS'81102 - PM10_._7042'
p167
aS'42601 - NO_._7039'
p168
asg39
(lp169
S'79753.0 216550.0'
p170
aS'http://www.opengis.net/def/crs/EPSG/0/31370'
p171
assS'BETM204'
p172
(dp173
g32
(lp174
S'62101 - TT_._99929'
p175
aS'81104 - PM2.5_._6884'
p176
aS'81102 - PM10_._6883'
p177
asg39
(lp178
S'237930.0 145320.0'
p179
aS'http://www.opengis.net/def/crs/EPSG/0/31370'
p180
assS'BETH201'
p181
(dp182
g32
(lp183
S'42401 - SO2_._6879'
p184
aS'81102 - PM10_._6880'
p185
aS'81104 - PM2.5_._6881'
p186
asg39
(lp187
S'233400.0 146700.0'
p188
aS'http://www.opengis.net/def/crs/EPSG/0/31370'
p189
assS'BELTS07'
p190
(dp191
sS'BETR721'
p192
(dp193
g32
(lp194
S'42601 - NO_._7096'
p195
aS'42602 - NO2_._7097'
p196
aS'42401 - SO2_._7095'
p197
asg39
(lp198
S'104275.0 197850.0'
p199
aS'http://www.opengis.net/def/crs/EPSG/0/31370'
p200
assS'BELGK09'
p201
(dp202
g32
(lp203
S'42602 - NO2_._6200'
p204
aS'45201 - C6H6_._6202'
p205
aS'42401 - SO2_._6198'
p206
aS'42601 - NO_._6199'
p207
asg39
(lp208
S'229010.0 181080.0'
p209
aS'http://www.opengis.net/def/crs/EPSG/0/31370'
p210
assS'BETN085'
p211
(dp212
g32
(lp213
S'42401 - SO2_._6932'
p214
aS'42601 - NO_._6933'
p215
aS'42101 - CO_._6930'
p216
aS'42242 - Hg_._6931'
p217
aS'81102 - PM10_._6936'
p218
aS'81104 - PM2.5_._6937'
p219
aS'42602 - NO2_._6934'
p220
aS'44201 - O3_._6935'
p221
aS'16111 - Black Carbon_._6928'
p222
asg39
(lp223
S'266325.0 111525.0'
p224
aS'http://www.opengis.net/def/crs/EPSG/0/31370'
p225
assS'BELGK06'
p226
(dp227
g32
(lp228
S'81102 - PM10_._6196'
p229
asg39
(lp230
S'227463.0 180307.0'
p231
aS'http://www.opengis.net/def/crs/EPSG/0/31370'
p232
assS'BETE702'
p233
(dp234
g32
(lp235
S'42602 - NO2_._7192'
p236
aS'42601 - NO_._7191'
p237
asg39
(lp238
S'91013.0 167394.0'
p239
aS'http://www.opengis.net/def/crs/EPSG/0/31370'
p240
assS'BETE703'
p241
(dp242
g32
(lp243
S'42401 - SO2_._7193'
p244
aS'42602 - NO2_._7195'
p245
aS'42601 - NO_._7194'
p246
asg39
(lp247
S'102359.0 209144.0'
p248
aS'http://www.opengis.net/def/crs/EPSG/0/31370'
p249
assS'BETE704'
p250
(dp251
g32
(lp252
S'42601 - NO_._10750'
p253
aS'42602 - NO2_._10751'
p254
asg39
(lp255
S'115116.0 207461.0'
p256
aS'http://www.opengis.net/def/crs/EPSG/0/31370'
p257
assS'BETTS21'
p258
(dp259
g32
(lp260
S'42401 - SO2_._6407'
p261
asg39
(lp262
S'201786.0 195321.0'
p263
aS'http://www.opengis.net/def/crs/EPSG/0/31370'
p264
assS'BELMN01'
p265
(dp266
g32
(lp267
S'81102 - PM10_._6301'
p268
asg39
(lp269
S'61230.0 165530.0'
p270
aS'http://www.opengis.net/def/crs/EPSG/0/31370'
p271
assS'BELTS12'
p272
(dp273
sS'BETWOL1'
p274
(dp275
g32
(lp276
S'42601 - NO_._6638'
p277
aS'42602 - NO2_._6639'
p278
aS'16111 - Black Carbon_._6633'
p279
aS'42101 - CO_._6635'
p280
aS'42401 - SO2_._6637'
p281
aS'42102 - CO2_._6636'
p282
aS'44201 - O3_._6642'
p283
aS'81102 - PM10_._6643'
p284
asg39
(lp285
S'154010.0 171800.0'
p286
aS'http://www.opengis.net/def/crs/EPSG/0/31370'
p287
assS'BETWOL2'
p288
(dp289
sS'BETN121'
p290
(dp291
g32
(lp292
S'42602 - NO2_._6961'
p293
aS'42601 - NO_._6960'
p294
aS'81102 - PM10_._6963'
p295
aS'44201 - O3_._6962'
p296
aS'81104 - PM2.5_._6964'
p297
asg39
(lp298
S'209920.0 63190.0'
p299
aS'http://www.opengis.net/def/crs/EPSG/0/31370'
p300
assS'BELWZ01'
p301
(dp302
sS'BELWZ02'
p303
(dp304
g32
(lp305
S'42401 - SO2_._6430'
p306
asg39
(lp307
S'209614.0 209545.0'
p308
aS'http://www.opengis.net/def/crs/EPSG/0/31370'
p309
assS'BELBE06'
p310
(dp311
sS'BETN035'
p312
(dp313
g32
(lp314
S'81104 - PM2.5_._100014'
p315
aS'81102 - PM10_._6716'
p316
aS'42602 - NO2_._6714'
p317
aS'44201 - O3_._6715'
p318
aS'42401 - SO2_._6712'
p319
aS'42601 - NO_._6713'
p320
asg39
(lp321
S'182928.0 185359.0'
p322
aS'http://www.opengis.net/def/crs/EPSG/0/31370'
p323
assS'BETR811'
p324
(dp325
g32
(lp326
S'81102 - PM10_._6794'
p327
aS'42602 - NO2_._6792'
p328
aS'44201 - O3_._6793'
p329
aS'42601 - NO_._6791'
p330
aS'81104 - PM2.5_._100017'
p331
asg39
(lp332
S'158560.0 215807.0'
p333
aS'http://www.opengis.net/def/crs/EPSG/0/31370'
p334
assS'BETR817'
p335
(dp336
g32
(lp337
S'81104 - PM2.5_._10749'
p338
aS'81102 - PM10_._10748'
p339
aS'42602 - NO2_._10746'
p340
aS'42601 - NO_._10745'
p341
asg39
(lp342
S'153440.0 207460.0'
p343
aS'http://www.opengis.net/def/crs/EPSG/0/31370'
p344
assS'BELZL01'
p345
(dp346
g32
(lp347
S'45201 - C6H6_._6487'
p348
asg39
(lp349
S'110836.0 210500.0'
p350
aS'http://www.opengis.net/def/crs/EPSG/0/31370'
p351
assS'BETR815'
p352
(dp353
g32
(lp354
S'81104 - PM2.5_._99995'
p355
aS'81102 - PM10_._6804'
p356
aS'42601 - NO_._6802'
p357
aS'42602 - NO2_._6803'
p358
aS'16111 - Black Carbon_._6800'
p359
aS'42401 - SO2_._6801'
p360
asg39
(lp361
S'147446.0 211639.0'
p362
aS'http://www.opengis.net/def/crs/EPSG/0/31370'
p363
assS'BETR012'
p364
(dp365
g32
(lp366
S'42102 - CO2_._6619'
p367
aS'61110 - WSP-SCA_._99940'
p368
aS'62101 - TT_._99941'
p369
aS'81102 - PM10_._6626'
p370
aS'81104 - PM2.5_._6627'
p371
aS'44201 - O3_._6625'
p372
aS'42401 - SO2_._6620'
p373
aS'42601 - NO_._6621'
p374
aS'61102 - DD_._99939'
p375
aS'42602 - NO2_._6622'
p376
aS'16111 - Black Carbon_._10607'
p377
asg39
(lp378
S'149280.0 165130.0'
p379
aS'http://www.opengis.net/def/crs/EPSG/0/31370'
p380
assS'BETR010'
p381
(dp382
g32
(lp383
S'42601 - NO_._6752'
p384
aS'42602 - NO2_._6753'
p385
aS'42101 - CO_._6750'
p386
asg39
(lp387
S'154201.0 172749.0'
p388
aS'http://www.opengis.net/def/crs/EPSG/0/31370'
p389
assS'BELRL01'
p390
(dp391
g32
(lp392
S'81104 - PM2.5_._100005'
p393
aS'81102 - PM10_._6334'
p394
asg39
(lp395
S'62340.0 183280.0'
p396
aS'http://www.opengis.net/def/crs/EPSG/0/31370'
p397
assS'BETR740'
p398
(dp399
g32
(lp400
S'44201 - O3_._7115'
p401
aS'42602 - NO2_._7111'
p402
aS'42601 - NO_._7110'
p403
aS'81102 - PM10_._7117'
p404
aS'42401 - SO2_._7109'
p405
asg39
(lp406
S'110815.0 204603.0'
p407
aS'http://www.opengis.net/def/crs/EPSG/0/31370'
p408
assS'BETN132'
p409
(dp410
g32
(lp411
S'81102 - PM10_._6970'
p412
aS'81104 - PM2.5_._6971'
p413
aS'42101 - CO_._6965'
p414
aS'42601 - NO_._6967'
p415
aS'42401 - SO2_._6966'
p416
aS'44201 - O3_._6969'
p417
aS'42602 - NO2_._6968'
p418
asg39
(lp419
S'240980.0 46070.0'
p420
aS'http://www.opengis.net/def/crs/EPSG/0/31370'
p421
assS'BETN029'
p422
(dp423
g32
(lp424
S'42401 - SO2_._7045'
p425
aS'44201 - O3_._7048'
p426
aS'42602 - NO2_._7047'
p427
aS'42601 - NO_._7046'
p428
aS'81102 - PM10_._7054'
p429
aS'81104 - PM2.5_._7055'
p430
aS'61102 - DD_._99900'
p431
aS'45201 - C6H6_._7050'
p432
aS'16111 - Black Carbon_._10606'
p433
aS'62101 - TT_._99902'
p434
aS'61110 - WSP-SCA_._99901'
p435
asg39
(lp436
S'24655.0 191071.0'
p437
aS'http://www.opengis.net/def/crs/EPSG/0/31370'
p438
assS'BETN027'
p439
(dp440
g32
(lp441
S'42602 - NO2_._6710'
p442
aS'44201 - O3_._6711'
p443
aS'42601 - NO_._6709'
p444
asg39
(lp445
S'236644.0 203352.0'
p446
aS'http://www.opengis.net/def/crs/EPSG/0/31370'
p447
assS'BETM702'
p448
(dp449
g32
(lp450
S'42602 - NO2_._7026'
p451
aS'42601 - NO_._7025'
p452
asg39
(lp453
S'107569.0 206396.0'
p454
aS'http://www.opengis.net/def/crs/EPSG/0/31370'
p455
assS'BETR701'
p456
(dp457
g32
(lp458
S'44201 - O3_._7078'
p459
aS'42602 - NO2_._7074'
p460
aS'42101 - CO_._7071'
p461
aS'42401 - SO2_._7072'
p462
aS'42601 - NO_._7073'
p463
aS'61110 - WSP-SCA_._99907'
p464
aS'16111 - Black Carbon_._10602'
p465
aS'61102 - DD_._99906'
p466
aS'62101 - TT_._99908'
p467
aS'45201 - C6H6_._7080'
p468
aS'81104 - PM2.5_._7087'
p469
aS'81102 - PM10_._7086'
p470
asg39
(lp471
S'105169.0 194435.0'
p472
aS'http://www.opengis.net/def/crs/EPSG/0/31370'
p473
assS'BETM802'
p474
(dp475
g32
(lp476
S'81104 - PM2.5_._99994'
p477
aS'62101 - TT_._99911'
p478
aS'61110 - WSP-SCA_._99910'
p479
aS'61102 - DD_._99909'
p480
aS'42401 - SO2_._6688'
p481
aS'42601 - NO_._6689'
p482
aS'16111 - Black Carbon_._6687'
p483
aS'81102 - PM10_._6693'
p484
aS'42602 - NO2_._6690'
p485
asg39
(lp486
S'153884.0 216790.0'
p487
aS'http://www.opengis.net/def/crs/EPSG/0/31370'
p488
assS'BETR801'
p489
(dp490
g32
(lp491
S'45201 - C6H6_._6780'
p492
aS'81104 - PM2.5_._6787'
p493
aS'81102 - PM10_._6786'
p494
aS'44201 - O3_._6778'
p495
aS'42401 - SO2_._6774'
p496
aS'42601 - NO_._6775'
p497
aS'42602 - NO2_._6776'
p498
aS'42101 - CO_._6773'
p499
aS'16111 - Black Carbon_._10603'
p500
asg39
(lp501
S'154407.0 211080.0'
p502
aS'http://www.opengis.net/def/crs/EPSG/0/31370'
p503
assS'BETR802'
p504
(dp505
g32
(lp506
S'42601 - NO_._10696'
p507
aS'81104 - PM2.5_._6789'
p508
aS'81102 - PM10_._6788'
p509
aS'42101 - CO_._10739'
p510
aS'42602 - NO2_._10601'
p511
aS'16111 - Black Carbon_._10604'
p512
asg39
(lp513
S'154405.0 211064.0'
p514
aS'http://www.opengis.net/def/crs/EPSG/0/31370'
p515
assS'BETR803'
p516
(dp517
g32
(lp518
S'81104 - PM2.5_._10744'
p519
aS'81102 - PM10_._10743'
p520
aS'16111 - Black Carbon_._10742'
p521
aS'42602 - NO2_._10741'
p522
aS'42601 - NO_._10740'
p523
asg39
(lp524
S'154170.0 213190.0'
p525
aS'http://www.opengis.net/def/crs/EPSG/0/31370'
p526
assS'BETR001'
p527
(dp528
g32
(lp529
S'61110 - WSP-SCA_._99916'
p530
aS'61102 - DD_._99915'
p531
aS'42401 - SO2_._6572'
p532
aS'42601 - NO_._6573'
p533
aS'42101 - CO_._6571'
p534
aS'44201 - O3_._6577'
p535
aS'42602 - NO2_._6574'
p536
aS'81102 - PM10_._6578'
p537
aS'81104 - PM2.5_._6579'
p538
aS'62101 - TT_._99917'
p539
aS'16111 - Black Carbon_._6569'
p540
asg39
(lp541
S'147540.0 171030.0'
p542
aS'http://www.opengis.net/def/crs/EPSG/0/31370'
p543
assS'BETR002'
p544
(dp545
g32
(lp546
S'42401 - SO2_._6613'
p547
aS'42102 - CO2_._6612'
p548
aS'42101 - CO_._6611'
p549
aS'42602 - NO2_._6615'
p550
aS'42601 - NO_._6614'
p551
aS'16111 - Black Carbon_._6609'
p552
asg39
(lp553
S'151125.0 168300.0'
p554
aS'http://www.opengis.net/def/crs/EPSG/0/31370'
p555
assS'BETR893'
p556
(dp557
g32
(lp558
S'42401 - SO2_._6864'
p559
aS'42601 - NO_._6865'
p560
aS'42602 - NO2_._6866'
p561
asg39
(lp562
S'151187.0 219057.0'
p563
aS'http://www.opengis.net/def/crs/EPSG/0/31370'
p564
assS'BETR892'
p565
(dp566
g32
(lp567
S'42401 - SO2_._6860'
p568
aS'42601 - NO_._6861'
p569
aS'42602 - NO2_._6862'
p570
asg39
(lp571
S'143727.0 217020.0'
p572
aS'http://www.opengis.net/def/crs/EPSG/0/31370'
p573
assS'BETR891'
p574
(dp575
g32
(lp576
S'42601 - NO_._6857'
p577
aS'42401 - SO2_._6856'
p578
aS'42602 - NO2_._6858'
p579
asg39
(lp580
S'151159.0 216212.0'
p581
aS'http://www.opengis.net/def/crs/EPSG/0/31370'
p582
assS'BETR897'
p583
(dp584
g32
(lp585
S'42602 - NO2_._6875'
p586
aS'42601 - NO_._6874'
p587
aS'42401 - SO2_._6873'
p588
asg39
(lp589
S'148139.0 215578.0'
p590
aS'http://www.opengis.net/def/crs/EPSG/0/31370'
p591
assS'BETR894'
p592
(dp593
g32
(lp594
S'42401 - SO2_._6868'
p595
aS'42601 - NO_._6869'
p596
aS'42602 - NO2_._6870'
p597
asg39
(lp598
S'148656.0 219293.0'
p599
aS'http://www.opengis.net/def/crs/EPSG/0/31370'
p600
assS'BETN100'
p601
(dp602
g32
(lp603
S'81102 - PM10_._6950'
p604
aS'81104 - PM2.5_._6951'
p605
aS'44201 - O3_._6949'
p606
aS'42602 - NO2_._6948'
p607
aS'42601 - NO_._6947'
p608
aS'42401 - SO2_._6946'
p609
asg39
(lp610
S'166172.0 87187.0'
p611
aS'http://www.opengis.net/def/crs/EPSG/0/31370'
p612
assS'BELAL01'
p613
(dp614
g32
(lp615
S'16111 - Black Carbon_._6151'
p616
aS'81102 - PM10_._6152'
p617
aS'81104 - PM2.5_._100008'
p618
asg39
(lp619
S'151150.0 214030.0'
p620
aS'http://www.opengis.net/def/crs/EPSG/0/31370'
p621
assS'BETE808'
p622
(dp623
sS'BELAL03'
p624
(dp625
g32
(lp626
S'81104 - PM2.5_._6155'
p627
asg39
(lp628
S'138320.0 216020.0'
p629
aS'http://www.opengis.net/def/crs/EPSG/0/31370'
p630
assS'BELAL02'
p631
(dp632
g32
(lp633
S'81102 - PM10_._6153'
p634
asg39
(lp635
S'140660.0 221640.0'
p636
aS'http://www.opengis.net/def/crs/EPSG/0/31370'
p637
assS'BELAL05'
p638
(dp639
g32
(lp640
S'81102 - PM10_._6157'
p641
asg39
(lp642
S'143727.0 217029.0'
p643
aS'http://www.opengis.net/def/crs/EPSG/0/31370'
p644
assS'BELAL04'
p645
(dp646
sS'BETN052'
p647
(dp648
g32
(lp649
S'81104 - PM2.5_._100010'
p650
aS'81102 - PM10_._7069'
p651
aS'44201 - O3_._7068'
p652
aS'42602 - NO2_._7067'
p653
aS'42601 - NO_._7066'
p654
aS'42401 - SO2_._7065'
p655
asg39
(lp656
S'76269.0 167678.0'
p657
aS'http://www.opengis.net/def/crs/EPSG/0/31370'
p658
assS'BETN051'
p659
(dp660
g32
(lp661
S'44201 - O3_._7064'
p662
aS'42602 - NO2_._7063'
p663
aS'42601 - NO_._7062'
p664
asg39
(lp665
S'119090.0 165475.0'
p666
aS'http://www.opengis.net/def/crs/EPSG/0/31370'
p667
assS'BETR710'
p668
(dp669
g32
(lp670
S'81104 - PM2.5_._99998'
p671
aS'81102 - PM10_._7092'
p672
aS'42602 - NO2_._7090'
p673
aS'44201 - O3_._7091'
p674
aS'42601 - NO_._7089'
p675
asg39
(lp676
S'108394.0 194736.0'
p677
aS'http://www.opengis.net/def/crs/EPSG/0/31370'
p678
assS'BETE812'
p679
(dp680
g32
(lp681
S'42602 - NO2_._7234'
p682
aS'42401 - SO2_._7232'
p683
aS'42601 - NO_._7233'
p684
asg39
(lp685
S'232111.0 184838.0'
p686
aS'http://www.opengis.net/def/crs/EPSG/0/31370'
p687
assS'BETR240'
p688
(dp689
g32
(lp690
S'42602 - NO2_._7017'
p691
aS'81102 - PM10_._7021'
p692
aS'44201 - O3_._7020'
p693
aS'81104 - PM2.5_._7022'
p694
aS'42601 - NO_._7016'
p695
aS'42401 - SO2_._7014'
p696
asg39
(lp697
S'222850.0 141940.0'
p698
aS'http://www.opengis.net/def/crs/EPSG/0/31370'
p699
assS'BETN054'
p700
(dp701
g32
(lp702
S'81104 - PM2.5_._100013'
p703
aS'42602 - NO2_._6747'
p704
aS'42601 - NO_._6746'
p705
aS'81102 - PM10_._6749'
p706
aS'44201 - O3_._6748'
p707
asg39
(lp708
S'201869.0 155940.0'
p709
aS'http://www.opengis.net/def/crs/EPSG/0/31370'
p710
assS'BELHB23'
p711
(dp712
g32
(lp713
S'81104 - PM2.5_._99999'
p714
aS'42602 - NO2_._6217'
p715
aS'42601 - NO_._6216'
p716
aS'42401 - SO2_._6215'
p717
aS'81102 - PM10_._6218'
p718
asg39
(lp719
S'148059.0 206699.0'
p720
aS'http://www.opengis.net/def/crs/EPSG/0/31370'
p721
assS'BETM705'
p722
(dp723
g32
(lp724
S'61110 - WSP-SCA_._99904'
p725
aS'81104 - PM2.5_._99996'
p726
aS'42601 - NO_._7031'
p727
aS'42602 - NO2_._7032'
p728
aS'44201 - O3_._7033'
p729
aS'16111 - Black Carbon_._7029'
p730
aS'62101 - TT_._99905'
p731
aS'61102 - DD_._99903'
p732
aS'81102 - PM10_._7034'
p733
asg39
(lp734
S'64521.0 182374.0'
p735
aS'http://www.opengis.net/def/crs/EPSG/0/31370'
p736
assS'BELOB01'
p737
(dp738
g32
(lp739
S'81102 - PM10_._6324'
p740
aS'42602 - NO2_._6323'
p741
aS'42601 - NO_._6322'
p742
aS'81104 - PM2.5_._100006'
p743
asg39
(lp744
S'75367.0 179078.0'
p745
aS'http://www.opengis.net/def/crs/EPSG/0/31370'
p746
assS'BETB004'
p747
(dp748
g32
(lp749
S'42601 - NO_._6507'
p750
aS'42101 - CO_._6506'
p751
aS'42602 - NO2_._6508'
p752
aS'44201 - O3_._6509'
p753
asg39
(lp754
S'148580.0 171157.0'
p755
aS'http://www.opengis.net/def/crs/EPSG/0/31370'
p756
assS'BETE810'
p757
(dp758
sS'BETN113'
p759
(dp760
g32
(lp761
S'42601 - NO_._6954'
p762
aS'42602 - NO2_._6955'
p763
aS'44201 - O3_._6956'
p764
aS'81102 - PM10_._6957'
p765
aS'81104 - PM2.5_._6958'
p766
asg39
(lp767
S'237720.0 80250.0'
p768
aS'http://www.opengis.net/def/crs/EPSG/0/31370'
p769
assS'BETMEU1'
p770
(dp771
g32
(lp772
S'42601 - NO_._6550'
p773
aS'42602 - NO2_._6551'
p774
aS'81102 - PM10_._6552'
p775
aS'81104 - PM2.5_._6553'
p776
aS'42401 - SO2_._6549'
p777
aS'42242 - Hg_._6548'
p778
asg39
(lp779
S'151686.0 176084.0'
p780
aS'http://www.opengis.net/def/crs/EPSG/0/31370'
p781
assS'BETGK11'
p782
(dp783
sS'BETN040'
p784
(dp785
g32
(lp786
S'42602 - NO2_._6718'
p787
aS'44201 - O3_._6719'
p788
aS'42601 - NO_._6717'
p789
asg39
(lp790
S'139873.0 161970.0'
p791
aS'http://www.opengis.net/def/crs/EPSG/0/31370'
p792
assS'BETN041'
p793
(dp794
sS'BETN043'
p795
(dp796
g32
(lp797
S'16111 - Black Carbon_._10693'
p798
aS'81104 - PM2.5_._6564'
p799
aS'42602 - NO2_._6561'
p800
aS'42601 - NO_._6560'
p801
aS'81102 - PM10_._6563'
p802
aS'44201 - O3_._6562'
p803
aS'42101 - CO_._6558'
p804
aS'42401 - SO2_._6559'
p805
asg39
(lp806
S'151000.0 174800.0'
p807
aS'http://www.opengis.net/def/crs/EPSG/0/31370'
p808
assS'BETN045'
p809
(dp810
g32
(lp811
S'42602 - NO2_._6726'
p812
aS'42601 - NO_._6725'
p813
aS'42401 - SO2_._6724'
p814
aS'81104 - PM2.5_._6740'
p815
aS'44201 - O3_._6731'
p816
aS'45201 - C6H6_._6733'
p817
aS'81102 - PM10_._6739'
p818
aS'16111 - Black Carbon_._10608'
p819
asg39
(lp820
S'220258.0 181520.0'
p821
aS'http://www.opengis.net/def/crs/EPSG/0/31370'
p822
assS'BETN046'
p823
(dp824
g32
(lp825
S'44201 - O3_._6744'
p826
aS'42602 - NO2_._6743'
p827
aS'42601 - NO_._6742'
p828
asg39
(lp829
S'237970.0 175401.0'
p830
aS'http://www.opengis.net/def/crs/EPSG/0/31370'
p831
assS'BELR801'
p832
(dp833
g32
(lp834
S'90500 - PN1'
p835
asg39
(lp836
S'154407.0 211080.0'
p837
aS'http://www.opengis.net/def/crs/EPSG/0/31370'
p838
assS'BETE007'
p839
(dp840
g32
(lp841
S'42602 - NO2_._7177'
p842
aS'42601 - NO_._7176'
p843
asg39
(lp844
S'141813.0 164988.0'
p845
aS'http://www.opengis.net/def/crs/EPSG/0/31370'
p846
assS'BETE009'
p847
(dp848
g32
(lp849
S'42601 - NO_._7182'
p850
aS'42602 - NO2_._7183'
p851
asg39
(lp852
S'154684.0 182740.0'
p853
aS'http://www.opengis.net/def/crs/EPSG/0/31370'
p854
assS'BETE008'
p855
(dp856
g32
(lp857
S'42601 - NO_._7179'
p858
aS'42602 - NO2_._7180'
p859
asg39
(lp860
S'151910.0 179532.0'
p861
aS'http://www.opengis.net/def/crs/EPSG/0/31370'
p862
assS'BETR020'
p863
(dp864
g32
(lp865
S'81104 - PM2.5_._100016'
p866
aS'81102 - PM10_._6771'
p867
aS'42602 - NO2_._6769'
p868
aS'42601 - NO_._6768'
p869
aS'42401 - SO2_._6767'
p870
aS'42101 - CO_._6766'
p871
asg39
(lp872
S'154777.0 181235.0'
p873
aS'http://www.opengis.net/def/crs/EPSG/0/31370'
p874
assS'BETR502'
p875
(dp876
g32
(lp877
S'81104 - PM2.5_._7144'
p878
aS'42601 - NO_._7140'
p879
aS'42602 - NO2_._7141'
p880
aS'44201 - O3_._7142'
p881
aS'81102 - PM10_._7143'
p882
asg39
(lp883
S'156390.0 124240.0'
p884
aS'http://www.opengis.net/def/crs/EPSG/0/31370'
p885
assS'BELLD02'
p886
(dp887
g32
(lp888
S'42601 - NO_._6280'
p889
aS'42602 - NO2_._6281'
p890
aS'45201 - C6H6_._6283'
p891
asg39
(lp892
S'195705.0 201347.0'
p893
aS'http://www.opengis.net/def/crs/EPSG/0/31370'
p894
assS'BETB011'
p895
(dp896
g32
(lp897
S'81104 - PM2.5_._6532'
p898
aS'44201 - O3_._6530'
p899
aS'81102 - PM10_._6531'
p900
aS'42601 - NO_._6527'
p901
aS'42602 - NO2_._6528'
p902
aS'62101 - TT_._99914'
p903
asg39
(lp904
S'144338.0 171963.0'
p905
aS'http://www.opengis.net/def/crs/EPSG/0/31370'
p906
assS'BETN070'
p907
(dp908
g32
(lp909
S'42601 - NO_._6916'
p910
aS'42602 - NO2_._6917'
p911
aS'81104 - PM2.5_._6920'
p912
aS'42101 - CO_._6914'
p913
aS'42401 - SO2_._6915'
p914
aS'44201 - O3_._6918'
p915
aS'81102 - PM10_._6919'
p916
asg39
(lp917
S'119540.0 128350.0'
p918
aS'http://www.opengis.net/def/crs/EPSG/0/31370'
p919
assS'BETN073'
p920
(dp921
g32
(lp922
S'44201 - O3_._6925'
p923
aS'42602 - NO2_._6924'
p924
aS'81104 - PM2.5_._6927'
p925
aS'81102 - PM10_._6926'
p926
aS'42601 - NO_._6923'
p927
asg39
(lp928
S'193960.0 132620.0'
p929
aS'http://www.opengis.net/def/crs/EPSG/0/31370'
p930
assS'BETR731'
p931
(dp932
g32
(lp933
S'42401 - SO2_._7103'
p934
aS'81102 - PM10_._7106'
p935
aS'81104 - PM2.5_._7107'
p936
aS'42601 - NO_._7104'
p937
aS'42602 - NO2_._7105'
p938
asg39
(lp939
S'105947.0 201811.0'
p940
aS'http://www.opengis.net/def/crs/EPSG/0/31370'
p941
assS'BETE809'
p942
(dp943
sS'BETR834'
p944
(dp945
g32
(lp946
S'81104 - PM2.5_._100011'
p947
aS'42602 - NO2_._10611'
p948
aS'81102 - PM10_._10610'
p949
aS'42601 - NO_._10612'
p950
asg39
(lp951
S'150795.0 197988.0'
p952
aS'http://www.opengis.net/def/crs/EPSG/0/31370'
p953
assS'BELLD01'
p954
(dp955
g32
(lp956
S'42601 - NO_._6271'
p957
aS'42602 - NO2_._6272'
p958
aS'45201 - C6H6_._6274'
p959
asg39
(lp960
S'194547.0 200179.0'
p961
aS'http://www.opengis.net/def/crs/EPSG/0/31370'
p962
assS'BETR831'
p963
(dp964
g32
(lp965
S'81104 - PM2.5_._100015'
p966
aS'42401 - SO2_._6828'
p967
aS'42601 - NO_._6829'
p968
aS'81102 - PM10_._10600'
p969
aS'44201 - O3_._6832'
p970
aS'42602 - NO2_._6830'
p971
asg39
(lp972
S'147976.0 226558.0'
p973
aS'http://www.opengis.net/def/crs/EPSG/0/31370'
p974
assS'BETR830'
p975
(dp976
g32
(lp977
S'42401 - SO2_._6824'
p978
aS'42601 - NO_._6825'
p979
aS'42602 - NO2_._6826'
p980
asg39
(lp981
S'142601.0 223162.0'
p982
aS'http://www.opengis.net/def/crs/EPSG/0/31370'
p983
assS'BETR221'
p984
(dp985
g32
(lp986
S'16111 - Black Carbon_._6988'
p987
aS'44201 - O3_._10701'
p988
aS'42602 - NO2_._10700'
p989
aS'42601 - NO_._10699'
p990
aS'81104 - PM2.5_._6994'
p991
aS'42401 - SO2_._6990'
p992
aS'81102 - PM10_._6993'
p993
aS'62101 - TT_._99932'
p994
asg39
(lp995
S'239023.0 150514.0'
p996
aS'http://www.opengis.net/def/crs/EPSG/0/31370'
p997
assS'BETR222'
p998
(dp999
g32
(lp1000
S'81104 - PM2.5_._7001'
p1001
aS'81102 - PM10_._7000'
p1002
aS'42602 - NO2_._6998'
p1003
aS'44201 - O3_._6999'
p1004
aS'42101 - CO_._6995'
p1005
aS'42401 - SO2_._6996'
p1006
aS'42601 - NO_._6997'
p1007
asg39
(lp1008
S'235031.0 145438.0'
p1009
aS'http://www.opengis.net/def/crs/EPSG/0/31370'
p1010
assS'BETR223'
p1011
(dp1012
g32
(lp1013
S'42101 - CO_._7003'
p1014
aS'81104 - PM2.5_._7009'
p1015
aS'42601 - NO_._7005'
p1016
aS'42401 - SO2_._7004'
p1017
aS'42602 - NO2_._7006'
p1018
aS'62101 - TT_._99935'
p1019
aS'81102 - PM10_._7008'
p1020
asg39
(lp1021
S'231210.0 146185.0'
p1022
aS'http://www.opengis.net/def/crs/EPSG/0/31370'
p1023
assS'BETE805'
p1024
(dp1025
sS'BETE804'
p1026
(dp1027
g32
(lp1028
S'42602 - NO2_._7210'
p1029
aS'42601 - NO_._7209'
p1030
asg39
(lp1031
S'145702.0 219060.0'
p1032
aS'http://www.opengis.net/def/crs/EPSG/0/31370'
p1033
assS'BETE807'
p1034
(dp1035
sS'BETE806'
p1036
(dp1037
sS'BELR833'
p1038
(dp1039
g32
(lp1040
S'45201 - C6H6_._6842'
p1041
aS'16111 - Black Carbon_._6840'
p1042
aS'42601 - NO_._10688'
p1043
aS'42602 - NO2_._10689'
p1044
asg39
(lp1045
S'149547.0 224206.0'
p1046
aS'http://www.opengis.net/def/crs/EPSG/0/31370'
p1047
assS'BETE013'
p1048
(dp1049
g32
(lp1050
S'42601 - NO_._7185'
p1051
aS'42602 - NO2_._7186'
p1052
asg39
(lp1053
S'147155.0 166807.0'
p1054
aS'http://www.opengis.net/def/crs/EPSG/0/31370'
p1055
assS'BETN063'
p1056
(dp1057
g32
(lp1058
S'42101 - CO_._6895'
p1059
aS'42601 - NO_._6897'
p1060
aS'42401 - SO2_._6896'
p1061
aS'44201 - O3_._6899'
p1062
aS'42602 - NO2_._6898'
p1063
aS'81104 - PM2.5_._6901'
p1064
aS'81102 - PM10_._6900'
p1065
asg39
(lp1066
S'171181.0 149467.0'
p1067
aS'http://www.opengis.net/def/crs/EPSG/0/31370'
p1068
assS'BETN060'
p1069
(dp1070
g32
(lp1071
S'44201 - O3_._6891'
p1072
aS'42602 - NO2_._6890'
p1073
aS'81104 - PM2.5_._6893'
p1074
aS'81102 - PM10_._6892'
p1075
aS'42101 - CO_._6887'
p1076
aS'42401 - SO2_._6888'
p1077
aS'42601 - NO_._6889'
p1078
asg39
(lp1079
S'85521.0 145512.0'
p1080
aS'http://www.opengis.net/def/crs/EPSG/0/31370'
p1081
assS'BETB003'
p1082
(dp1083
sS'BETN066'
p1084
(dp1085
g32
(lp1086
S'44201 - O3_._6907'
p1087
aS'42602 - NO2_._6906'
p1088
aS'42601 - NO_._6905'
p1089
aS'42401 - SO2_._6904'
p1090
asg39
(lp1091
S'265570.0 147740.0'
p1092
aS'http://www.opengis.net/def/crs/EPSG/0/31370'
p1093
assS'BETN067'
p1094
(dp1095
g32
(lp1096
S'81102 - PM10_._6911'
p1097
aS'81104 - PM2.5_._6912'
p1098
aS'89101 - PM1_._6913'
p1099
asg39
(lp1100
S'264933.0 145881.0'
p1101
aS'http://www.opengis.net/def/crs/EPSG/0/31370'
p1102
assS'BETB006'
p1103
(dp1104
g32
(lp1105
S'45203 - C6H5-C2H5_._6521'
p1106
aS'45202 - C6H5-CH3_._6520'
p1107
aS'45204 - o-C6H4-(CH3)2_._6522'
p1108
aS'45201 - C6H6_._6519'
p1109
aS'42101 - CO_._6514'
p1110
aS'42601 - NO_._6515'
p1111
aS'42602 - NO2_._6516'
p1112
aS'44201 - O3_._6517'
p1113
asg39
(lp1114
S'150397.0 169802.0'
p1115
aS'http://www.opengis.net/def/crs/EPSG/0/31370'
p1116
assS'BETE811'
p1117
(dp1118
g32
(lp1119
S'42401 - SO2_._7229'
p1120
aS'42601 - NO_._7230'
p1121
aS'42602 - NO2_._7231'
p1122
asg39
(lp1123
S'223827.0 176810.0'
p1124
aS'http://www.opengis.net/def/crs/EPSG/0/31370'
p1125
assS'BETB008'
p1126
(dp1127
g32
(lp1128
S'42601 - NO_._10613'
p1129
aS'42401 - SO2_._10615'
p1130
aS'42602 - NO2_._10614'
p1131
aS'42101 - CO_._10616'
p1132
asg39
(lp1133
S'150521.0 170042.0'
p1134
aS'http://www.opengis.net/def/crs/EPSG/0/31370'
p1135
assS'BELTS20'
p1136
(dp1137
sS'BETR501'
p1138
(dp1139
g32
(lp1140
S'42601 - NO_._7131'
p1141
aS'81102 - PM10_._7135'
p1142
aS'81104 - PM2.5_._7136'
p1143
aS'42101 - CO_._7129'
p1144
aS'42401 - SO2_._7130'
p1145
aS'42602 - NO2_._7132'
p1146
asg39
(lp1147
S'155930.0 122050.0'
p1148
aS'http://www.opengis.net/def/crs/EPSG/0/31370'
p1149
assS'BETR702'
p1150
(dp1151
g32
(lp1152
S'42602 - NO2_._10703'
p1153
aS'42601 - NO_._10702'
p1154
aS'16111 - Black Carbon_._10706'
p1155
aS'81104 - PM2.5_._10705'
p1156
aS'81102 - PM10_._10704'
p1157
asg39
(lp1158
S'105550.0 192469.0'
p1159
aS'http://www.opengis.net/def/crs/EPSG/0/31370'
p1160
assS'BETR822'
p1161
(dp1162
g32
(lp1163
S'42401 - SO2_._6815'
p1164
aS'42602 - NO2_._6817'
p1165
aS'42601 - NO_._6816'
p1166
asg39
(lp1167
S'148082.0 217156.0'
p1168
aS'http://www.opengis.net/def/crs/EPSG/0/31370'
p1169
assS'BETR820'
p1170
(dp1171
g32
(lp1172
S'42401 - SO2_._6809'
p1173
aS'42602 - NO2_._10698'
p1174
aS'42601 - NO_._10697'
p1175
asg39
(lp1176
S'155302.0 223403.0'
p1177
aS'http://www.opengis.net/def/crs/EPSG/0/31370'
p1178
assS'BETR821'
p1179
(dp1180
g32
(lp1181
S'42601 - NO_._6813'
p1182
aS'42401 - SO2_._6812'
p1183
aS'42602 - NO2_._6814'
p1184
asg39
(lp1185
S'141724.0 211734.0'
p1186
aS'http://www.opengis.net/def/crs/EPSG/0/31370'
p1187
assS'BELSZ01'
p1188
(dp1189
g32
(lp1190
S'81104 - PM2.5_._6356'
p1191
aS'16111 - Black Carbon_._6343'
p1192
aS'42601 - NO_._6347'
p1193
aS'42602 - NO2_._6348'
p1194
asg39
(lp1195
S'159524.0 178259.0'
p1196
aS'http://www.opengis.net/def/crs/EPSG/0/31370'
p1197
assS'BELSZ02'
p1198
(dp1199
g32
(lp1200
S'81104 - PM2.5_._100009'
p1201
aS'81102 - PM10_._6368'
p1202
aS'42602 - NO2_._6361'
p1203
aS'42601 - NO_._6360'
p1204
asg39
(lp1205
S'160087.0 178087.0'
p1206
aS'http://www.opengis.net/def/crs/EPSG/0/31370'
p1207
assS'BELML01'
p1208
(dp1209
ssS'procedure'
p1210
(dp1211
S'6723'
p1212
(dp1213
g32
(lp1214
S'42101 - CO_._6723'
p1215
asS'FOI'
p1216
g7
((ltRp1217
sS'obsProperty'
p1218
S'42101 - CO'
p1219
ssS'6722'
p1220
(dp1221
g32
(lp1222
S'44201 - O3_._6722'
p1223
asg1216
g7
((ltRp1224
sg1218
S'44201 - O3'
p1225
ssS'6726'
p1226
(dp1227
g32
(lp1228
g812
asg1216
g7
((lp1229
S'BETN045'
p1230
atRp1231
sg1218
S'42602 - NO2'
p1232
ssS'6725'
p1233
(dp1234
g32
(lp1235
g813
asg1216
g7
((lp1236
S'BETN045'
p1237
atRp1238
sg1218
S'42601 - NO'
p1239
ssS'6724'
p1240
(dp1241
g32
(lp1242
g814
asg1216
g7
((lp1243
S'BETN045'
p1244
atRp1245
sg1218
S'42401 - SO2'
p1246
ssS'6842'
p1247
(dp1248
g32
(lp1249
g1041
asg1216
g7
((lp1250
S'BELR833'
p1251
atRp1252
sg1218
S'45201 - C6H6'
p1253
ssS'7003'
p1254
(dp1255
g32
(lp1256
g1014
asg1216
g7
((lp1257
S'BETR223'
p1258
atRp1259
sg1218
S'42101 - CO'
p1260
ssS'6954'
p1261
(dp1262
g32
(lp1263
g762
asg1216
g7
((lp1264
S'BETN113'
p1265
atRp1266
sg1218
S'42601 - NO'
p1267
ssS'6955'
p1268
(dp1269
g32
(lp1270
g763
asg1216
g7
((lp1271
S'BETN113'
p1272
atRp1273
sg1218
S'42602 - NO2'
p1274
ssS'99904'
p1275
(dp1276
g32
(lp1277
g725
asg1216
g7
((lp1278
S'BETM705'
p1279
atRp1280
sg1218
S'61110 - WSP-SCA'
p1281
ssS'7045'
p1282
(dp1283
g32
(lp1284
g425
asg1216
g7
((lp1285
S'BETN029'
p1286
atRp1287
sg1218
S'42401 - SO2'
p1288
ssS'6151'
p1289
(dp1290
g32
(lp1291
g616
asg1216
g7
((lp1292
S'BELAL01'
p1293
atRp1294
sg1218
S'16111 - Black Carbon'
p1295
ssS'6152'
p1296
(dp1297
g32
(lp1298
g617
asg1216
g7
((lp1299
S'BELAL01'
p1300
atRp1301
sg1218
S'81102 - PM10'
p1302
ssS'6153'
p1303
(dp1304
g32
(lp1305
g634
asg1216
g7
((lp1306
S'BELAL02'
p1307
atRp1308
sg1218
S'81102 - PM10'
p1309
ssS'6154'
p1310
(dp1311
g32
(lp1312
S'81104 - PM2.5_._6154'
p1313
asg1216
g7
((ltRp1314
sg1218
S'81104 - PM2.5'
p1315
ssS'6155'
p1316
(dp1317
g32
(lp1318
g627
asg1216
g7
((lp1319
S'BELAL03'
p1320
atRp1321
sg1218
S'81104 - PM2.5'
p1322
ssS'6156'
p1323
(dp1324
g32
(lp1325
S'81104 - PM2.5_._6156'
p1326
asg1216
g7
((ltRp1327
sg1218
S'81104 - PM2.5'
p1328
ssS'6157'
p1329
(dp1330
g32
(lp1331
g641
asg1216
g7
((lp1332
S'BELAL05'
p1333
atRp1334
sg1218
S'81102 - PM10'
p1335
ssS'6158'
p1336
(dp1337
g32
(lp1338
S'81104 - PM2.5_._6158'
p1339
asg1216
g7
((ltRp1340
sg1218
S'81104 - PM2.5'
p1341
ssS'6843'
p1342
(dp1343
g32
(lp1344
S'45202 - C6H5-CH3_._6843'
p1345
asg1216
g7
((ltRp1346
sg1218
S'45202 - C6H5-CH3'
p1347
ssS'6840'
p1348
(dp1349
g32
(lp1350
g1042
asg1216
g7
((lp1351
S'BELR833'
p1352
atRp1353
sg1218
S'16111 - Black Carbon'
p1354
ssS'6841'
p1355
(dp1356
g32
(lp1357
S'45109 - m,p-C6H4(CH3)2_._6841'
p1358
asg1216
g7
((ltRp1359
sg1218
S'45109 - m,p-C6H4(CH3)2'
p1360
ssS'7049'
p1361
(dp1362
g32
(lp1363
S'45109 - m,p-C6H4(CH3)2_._7049'
p1364
asg1216
g7
((ltRp1365
sg1218
S'45109 - m,p-C6H4(CH3)2'
p1366
ssS'7048'
p1367
(dp1368
g32
(lp1369
g426
asg1216
g7
((lp1370
S'BETN029'
p1371
atRp1372
sg1218
S'44201 - O3'
p1373
ssS'6844'
p1374
(dp1375
g32
(lp1376
S'45203 - C6H5-C2H5_._6844'
p1377
asg1216
g7
((ltRp1378
sg1218
S'45203 - C6H5-C2H5'
p1379
ssS'6845'
p1380
(dp1381
g32
(lp1382
S'45204 - o-C6H4-(CH3)2_._6845'
p1383
asg1216
g7
((ltRp1384
sg1218
S'45204 - o-C6H4-(CH3)2'
p1385
ssS'6794'
p1386
(dp1387
g32
(lp1388
g327
asg1216
g7
((lp1389
S'BETR811'
p1390
atRp1391
sg1218
S'81102 - PM10'
p1392
ssS'6792'
p1393
(dp1394
g32
(lp1395
g328
asg1216
g7
((lp1396
S'BETR811'
p1397
atRp1398
sg1218
S'42602 - NO2'
p1399
ssS'6793'
p1400
(dp1401
g32
(lp1402
g329
asg1216
g7
((lp1403
S'BETR811'
p1404
atRp1405
sg1218
S'44201 - O3'
p1406
ssS'6791'
p1407
(dp1408
g32
(lp1409
g330
asg1216
g7
((lp1410
S'BETR811'
p1411
atRp1412
sg1218
S'42601 - NO'
p1413
ssS'99999'
p1414
(dp1415
g32
(lp1416
g714
asg1216
g7
((lp1417
S'BELHB23'
p1418
atRp1419
sg1218
S'81104 - PM2.5'
p1420
ssS'99998'
p1421
(dp1422
g32
(lp1423
g671
asg1216
g7
((lp1424
S'BETR710'
p1425
atRp1426
sg1218
S'81104 - PM2.5'
p1427
ssS'6988'
p1428
(dp1429
g32
(lp1430
g987
asg1216
g7
((lp1431
S'BETR221'
p1432
atRp1433
sg1218
S'16111 - Black Carbon'
p1434
ssS'99993'
p1435
(dp1436
g32
(lp1437
g835
asg1216
g7
((lp1438
S'BELR801'
p1439
atRp1440
sg1218
S'90500 - PN1'
p1441
ssS'99995'
p1442
(dp1443
g32
(lp1444
g355
asg1216
g7
((lp1445
S'BETR815'
p1446
atRp1447
sg1218
S'81104 - PM2.5'
p1448
ssS'99994'
p1449
(dp1450
g32
(lp1451
g477
asg1216
g7
((lp1452
S'BETM802'
p1453
atRp1454
sg1218
S'81104 - PM2.5'
p1455
ssS'99997'
p1456
(dp1457
g32
(lp1458
g164
asg1216
g7
((lp1459
S'BETN012'
p1460
atRp1461
sg1218
S'81104 - PM2.5'
p1462
ssS'99996'
p1463
(dp1464
g32
(lp1465
g726
asg1216
g7
((lp1466
S'BETM705'
p1467
atRp1468
sg1218
S'81104 - PM2.5'
p1469
ssS'6386'
p1470
(dp1471
g32
(lp1472
S'42242 - Hg_._6386'
p1473
asg1216
g7
((ltRp1474
sg1218
S'42242 - Hg'
p1475
ssS'7121'
p1476
(dp1477
g32
(lp1478
g55
asg1216
g7
((lp1479
S'BETR750'
p1480
atRp1481
sg1218
S'42601 - NO'
p1482
ssS'100016'
p1483
(dp1484
g32
(lp1485
g866
asg1216
g7
((lp1486
S'BETR020'
p1487
atRp1488
sg1218
S'81104 - PM2.5'
p1489
ssS'100017'
p1490
(dp1491
g32
(lp1492
g331
asg1216
g7
((lp1493
S'BETR811'
p1494
atRp1495
sg1218
S'81104 - PM2.5'
p1496
ssS'100014'
p1497
(dp1498
g32
(lp1499
g315
asg1216
g7
((lp1500
S'BETN035'
p1501
atRp1502
sg1218
S'81104 - PM2.5'
p1503
ssS'100015'
p1504
(dp1505
g32
(lp1506
g966
asg1216
g7
((lp1507
S'BETR831'
p1508
atRp1509
sg1218
S'81104 - PM2.5'
p1510
ssS'100012'
p1511
(dp1512
g32
(lp1513
g56
asg1216
g7
((lp1514
S'BETR750'
p1515
atRp1516
sg1218
S'81104 - PM2.5'
p1517
ssS'100013'
p1518
(dp1519
g32
(lp1520
g703
asg1216
g7
((lp1521
S'BETN054'
p1522
atRp1523
sg1218
S'81104 - PM2.5'
p1524
ssS'100010'
p1525
(dp1526
g32
(lp1527
g650
asg1216
g7
((lp1528
S'BETN052'
p1529
atRp1530
sg1218
S'81104 - PM2.5'
p1531
ssS'100011'
p1532
(dp1533
g32
(lp1534
g947
asg1216
g7
((lp1535
S'BETR834'
p1536
atRp1537
sg1218
S'81104 - PM2.5'
p1538
ssS'100018'
p1539
(dp1540
g32
(lp1541
g151
asg1216
g7
((lp1542
S'BETN016'
p1543
atRp1544
sg1218
S'81104 - PM2.5'
p1545
ssS'10703'
p1546
(dp1547
g32
(lp1548
g1153
asg1216
g7
((lp1549
S'BETR702'
p1550
atRp1551
sg1218
S'42602 - NO2'
p1552
ssS'10702'
p1553
(dp1554
g32
(lp1555
g1154
asg1216
g7
((lp1556
S'BETR702'
p1557
atRp1558
sg1218
S'42601 - NO'
p1559
ssS'10701'
p1560
(dp1561
g32
(lp1562
g988
asg1216
g7
((lp1563
S'BETR221'
p1564
atRp1565
sg1218
S'44201 - O3'
p1566
ssS'10700'
p1567
(dp1568
g32
(lp1569
g989
asg1216
g7
((lp1570
S'BETR221'
p1571
atRp1572
sg1218
S'42602 - NO2'
p1573
ssS'10706'
p1574
(dp1575
g32
(lp1576
g1155
asg1216
g7
((lp1577
S'BETR702'
p1578
atRp1579
sg1218
S'16111 - Black Carbon'
p1580
ssS'10705'
p1581
(dp1582
g32
(lp1583
g1156
asg1216
g7
((lp1584
S'BETR702'
p1585
atRp1586
sg1218
S'81104 - PM2.5'
p1587
ssS'10704'
p1588
(dp1589
g32
(lp1590
g1157
asg1216
g7
((lp1591
S'BETR702'
p1592
atRp1593
sg1218
S'81102 - PM10'
p1594
ssS'6932'
p1595
(dp1596
g32
(lp1597
g214
asg1216
g7
((lp1598
S'BETN085'
p1599
atRp1600
sg1218
S'42401 - SO2'
p1601
ssS'6933'
p1602
(dp1603
g32
(lp1604
g215
asg1216
g7
((lp1605
S'BETN085'
p1606
atRp1607
sg1218
S'42601 - NO'
p1608
ssS'6930'
p1609
(dp1610
g32
(lp1611
g216
asg1216
g7
((lp1612
S'BETN085'
p1613
atRp1614
sg1218
S'42101 - CO'
p1615
ssS'6931'
p1616
(dp1617
g32
(lp1618
g217
asg1216
g7
((lp1619
S'BETN085'
p1620
atRp1621
sg1218
S'42242 - Hg'
p1622
ssS'6936'
p1623
(dp1624
g32
(lp1625
g218
asg1216
g7
((lp1626
S'BETN085'
p1627
atRp1628
sg1218
S'81102 - PM10'
p1629
ssS'6937'
p1630
(dp1631
g32
(lp1632
g219
asg1216
g7
((lp1633
S'BETN085'
p1634
atRp1635
sg1218
S'81104 - PM2.5'
p1636
ssS'6934'
p1637
(dp1638
g32
(lp1639
g220
asg1216
g7
((lp1640
S'BETN085'
p1641
atRp1642
sg1218
S'42602 - NO2'
p1643
ssS'6935'
p1644
(dp1645
g32
(lp1646
g221
asg1216
g7
((lp1647
S'BETN085'
p1648
atRp1649
sg1218
S'44201 - O3'
p1650
ssS'6938'
p1651
(dp1652
g32
(lp1653
S'89101 - PM1_._6938'
p1654
asg1216
g7
((ltRp1655
sg1218
S'89101 - PM1'
p1656
ssS'6939'
p1657
(dp1658
g32
(lp1659
g122
asg1216
g7
((lp1660
S'BETN093'
p1661
atRp1662
sg1218
S'42401 - SO2'
p1663
ssS'6271'
p1664
(dp1665
g32
(lp1666
g957
asg1216
g7
((lp1667
S'BELLD01'
p1668
atRp1669
sg1218
S'42601 - NO'
p1670
ssS'6273'
p1671
(dp1672
g32
(lp1673
S'45109 - m,p-C6H4(CH3)2_._6273'
p1674
asg1216
g7
((ltRp1675
sg1218
S'45109 - m,p-C6H4(CH3)2'
p1676
ssS'6272'
p1677
(dp1678
g32
(lp1679
g958
asg1216
g7
((lp1680
S'BELLD01'
p1681
atRp1682
sg1218
S'42602 - NO2'
p1683
ssS'6275'
p1684
(dp1685
g32
(lp1686
S'45202 - C6H5-CH3_._6275'
p1687
asg1216
g7
((ltRp1688
sg1218
S'45202 - C6H5-CH3'
p1689
ssS'6274'
p1690
(dp1691
g32
(lp1692
g959
asg1216
g7
((lp1693
S'BELLD01'
p1694
atRp1695
sg1218
S'45201 - C6H6'
p1696
ssS'6277'
p1697
(dp1698
g32
(lp1699
S'45204 - o-C6H4-(CH3)2_._6277'
p1700
asg1216
g7
((ltRp1701
sg1218
S'45204 - o-C6H4-(CH3)2'
p1702
ssS'6276'
p1703
(dp1704
g32
(lp1705
S'45203 - C6H5-C2H5_._6276'
p1706
asg1216
g7
((ltRp1707
sg1218
S'45203 - C6H5-C2H5'
p1708
ssS'6503'
p1709
(dp1710
g32
(lp1711
S'42601 - NO_._6503'
p1712
asg1216
g7
((ltRp1713
sg1218
S'42601 - NO'
p1714
ssS'6502'
p1715
(dp1716
g32
(lp1717
S'42401 - SO2_._6502'
p1718
asg1216
g7
((ltRp1719
sg1218
S'42401 - SO2'
p1720
ssS'6501'
p1721
(dp1722
g32
(lp1723
S'42102 - CO2_._6501'
p1724
asg1216
g7
((ltRp1725
sg1218
S'42102 - CO2'
p1726
ssS'6500'
p1727
(dp1728
g32
(lp1729
S'42101 - CO_._6500'
p1730
asg1216
g7
((ltRp1731
sg1218
S'42101 - CO'
p1732
ssS'6507'
p1733
(dp1734
g32
(lp1735
g750
asg1216
g7
((lp1736
S'BETB004'
p1737
atRp1738
sg1218
S'42601 - NO'
p1739
ssS'6506'
p1740
(dp1741
g32
(lp1742
g751
asg1216
g7
((lp1743
S'BETB004'
p1744
atRp1745
sg1218
S'42101 - CO'
p1746
ssS'6504'
p1747
(dp1748
g32
(lp1749
S'42602 - NO2_._6504'
p1750
asg1216
g7
((ltRp1751
sg1218
S'42602 - NO2'
p1752
ssS'7009'
p1753
(dp1754
g32
(lp1755
g1015
asg1216
g7
((lp1756
S'BETR223'
p1757
atRp1758
sg1218
S'81104 - PM2.5'
p1759
ssS'99925'
p1760
(dp1761
g32
(lp1762
S'61110 - WSP-SCA_._99925'
p1763
asg1216
g7
((ltRp1764
sg1218
S'61110 - WSP-SCA'
p1765
ssS'99937'
p1766
(dp1767
g32
(lp1768
S'61110 - WSP-SCA_._99937'
p1769
asg1216
g7
((ltRp1770
sg1218
S'61110 - WSP-SCA'
p1771
ssS'6430'
p1772
(dp1773
g32
(lp1774
g306
asg1216
g7
((lp1775
S'BELWZ02'
p1776
atRp1777
sg1218
S'42401 - SO2'
p1778
ssS'6204'
p1779
(dp1780
g32
(lp1781
S'45203 - C6H5-C2H5_._6204'
p1782
asg1216
g7
((ltRp1783
sg1218
S'45203 - C6H5-C2H5'
p1784
ssS'6205'
p1785
(dp1786
g32
(lp1787
S'45204 - o-C6H4-(CH3)2_._6205'
p1788
asg1216
g7
((ltRp1789
sg1218
S'45204 - o-C6H4-(CH3)2'
p1790
ssS'6206'
p1791
(dp1792
g32
(lp1793
S'81102 - PM10_._6206'
p1794
asg1216
g7
((ltRp1795
sg1218
S'81102 - PM10'
p1796
ssS'6207'
p1797
(dp1798
g32
(lp1799
S'42242 - Hg_._6207'
p1800
asg1216
g7
((ltRp1801
sg1218
S'42242 - Hg'
p1802
ssS'6200'
p1803
(dp1804
g32
(lp1805
g204
asg1216
g7
((lp1806
S'BELGK09'
p1807
atRp1808
sg1218
S'42602 - NO2'
p1809
ssS'6201'
p1810
(dp1811
g32
(lp1812
S'45109 - m,p-C6H4(CH3)2_._6201'
p1813
asg1216
g7
((ltRp1814
sg1218
S'45109 - m,p-C6H4(CH3)2'
p1815
ssS'6202'
p1816
(dp1817
g32
(lp1818
g205
asg1216
g7
((lp1819
S'BELGK09'
p1820
atRp1821
sg1218
S'45201 - C6H6'
p1822
ssS'6203'
p1823
(dp1824
g32
(lp1825
S'45202 - C6H5-CH3_._6203'
p1826
asg1216
g7
((ltRp1827
sg1218
S'45202 - C6H5-CH3'
p1828
ssS'6809'
p1829
(dp1830
g32
(lp1831
g1173
asg1216
g7
((lp1832
S'BETR820'
p1833
atRp1834
sg1218
S'42401 - SO2'
p1835
ssS'6804'
p1836
(dp1837
g32
(lp1838
g356
asg1216
g7
((lp1839
S'BETR815'
p1840
atRp1841
sg1218
S'81102 - PM10'
p1842
ssS'6802'
p1843
(dp1844
g32
(lp1845
g357
asg1216
g7
((lp1846
S'BETR815'
p1847
atRp1848
sg1218
S'42601 - NO'
p1849
ssS'6803'
p1850
(dp1851
g32
(lp1852
g358
asg1216
g7
((lp1853
S'BETR815'
p1854
atRp1855
sg1218
S'42602 - NO2'
p1856
ssS'6800'
p1857
(dp1858
g32
(lp1859
g359
asg1216
g7
((lp1860
S'BETR815'
p1861
atRp1862
sg1218
S'16111 - Black Carbon'
p1863
ssS'6801'
p1864
(dp1865
g32
(lp1866
g360
asg1216
g7
((lp1867
S'BETR815'
p1868
atRp1869
sg1218
S'42401 - SO2'
p1870
ssS'6613'
p1871
(dp1872
g32
(lp1873
g547
asg1216
g7
((lp1874
S'BETR002'
p1875
atRp1876
sg1218
S'42401 - SO2'
p1877
ssS'6612'
p1878
(dp1879
g32
(lp1880
g548
asg1216
g7
((lp1881
S'BETR002'
p1882
atRp1883
sg1218
S'42102 - CO2'
p1884
ssS'6611'
p1885
(dp1886
g32
(lp1887
g549
asg1216
g7
((lp1888
S'BETR002'
p1889
atRp1890
sg1218
S'42101 - CO'
p1891
ssS'99927'
p1892
(dp1893
g32
(lp1894
S'61102 - DD_._99927'
p1895
asg1216
g7
((ltRp1896
sg1218
S'61102 - DD'
p1897
ssS'6615'
p1898
(dp1899
g32
(lp1900
g550
asg1216
g7
((lp1901
S'BETR002'
p1902
atRp1903
sg1218
S'42602 - NO2'
p1904
ssS'6614'
p1905
(dp1906
g32
(lp1907
g551
asg1216
g7
((lp1908
S'BETR002'
p1909
atRp1910
sg1218
S'42601 - NO'
p1911
ssS'7001'
p1912
(dp1913
g32
(lp1914
g1001
asg1216
g7
((lp1915
S'BETR222'
p1916
atRp1917
sg1218
S'81104 - PM2.5'
p1918
ssS'7000'
p1919
(dp1920
g32
(lp1921
g1002
asg1216
g7
((lp1922
S'BETR222'
p1923
atRp1924
sg1218
S'81102 - PM10'
p1925
ssS'6619'
p1926
(dp1927
g32
(lp1928
g367
asg1216
g7
((lp1929
S'BETR012'
p1930
atRp1931
sg1218
S'42102 - CO2'
p1932
ssS'7005'
p1933
(dp1934
g32
(lp1935
g1016
asg1216
g7
((lp1936
S'BETR223'
p1937
atRp1938
sg1218
S'42601 - NO'
p1939
ssS'7004'
p1940
(dp1941
g32
(lp1942
g1017
asg1216
g7
((lp1943
S'BETR223'
p1944
atRp1945
sg1218
S'42401 - SO2'
p1946
ssS'7006'
p1947
(dp1948
g32
(lp1949
g1018
asg1216
g7
((lp1950
S'BETR223'
p1951
atRp1952
sg1218
S'42602 - NO2'
p1953
ssS'6752'
p1954
(dp1955
g32
(lp1956
g384
asg1216
g7
((lp1957
S'BETR010'
p1958
atRp1959
sg1218
S'42601 - NO'
p1960
ssS'6753'
p1961
(dp1962
g32
(lp1963
g385
asg1216
g7
((lp1964
S'BETR010'
p1965
atRp1966
sg1218
S'42602 - NO2'
p1967
ssS'6750'
p1968
(dp1969
g32
(lp1970
g386
asg1216
g7
((lp1971
S'BETR010'
p1972
atRp1973
sg1218
S'42101 - CO'
p1974
ssS'99916'
p1975
(dp1976
g32
(lp1977
g530
asg1216
g7
((lp1978
S'BETR001'
p1979
atRp1980
sg1218
S'61110 - WSP-SCA'
p1981
ssS'7177'
p1982
(dp1983
g32
(lp1984
g842
asg1216
g7
((lp1985
S'BETE007'
p1986
atRp1987
sg1218
S'42602 - NO2'
p1988
ssS'99919'
p1989
(dp1990
g32
(lp1991
S'61110 - WSP-SCA_._99919'
p1992
asg1216
g7
((ltRp1993
sg1218
S'61110 - WSP-SCA'
p1994
ssS'7176'
p1995
(dp1996
g32
(lp1997
g843
asg1216
g7
((lp1998
S'BETE007'
p1999
atRp2000
sg1218
S'42601 - NO'
p2001
ssS'99940'
p2002
(dp2003
g32
(lp2004
g368
asg1216
g7
((lp2005
S'BETR012'
p2006
atRp2007
sg1218
S'61110 - WSP-SCA'
p2008
ssS'99918'
p2009
(dp2010
g32
(lp2011
S'61102 - DD_._99918'
p2012
asg1216
g7
((ltRp2013
sg1218
S'61102 - DD'
p2014
ssS'99941'
p2015
(dp2016
g32
(lp2017
g369
asg1216
g7
((lp2018
S'BETR012'
p2019
atRp2020
sg1218
S'62101 - TT'
p2021
ssS'99915'
p2022
(dp2023
g32
(lp2024
g531
asg1216
g7
((lp2025
S'BETR001'
p2026
atRp2027
sg1218
S'61102 - DD'
p2028
ssS'6891'
p2029
(dp2030
g32
(lp2031
g1072
asg1216
g7
((lp2032
S'BETN060'
p2033
atRp2034
sg1218
S'44201 - O3'
p2035
ssS'6890'
p2036
(dp2037
g32
(lp2038
g1073
asg1216
g7
((lp2039
S'BETN060'
p2040
atRp2041
sg1218
S'42602 - NO2'
p2042
ssS'6893'
p2043
(dp2044
g32
(lp2045
g1074
asg1216
g7
((lp2046
S'BETN060'
p2047
atRp2048
sg1218
S'81104 - PM2.5'
p2049
ssS'6892'
p2050
(dp2051
g32
(lp2052
g1075
asg1216
g7
((lp2053
S'BETN060'
p2054
atRp2055
sg1218
S'81102 - PM10'
p2056
ssS'6895'
p2057
(dp2058
g32
(lp2059
g1059
asg1216
g7
((lp2060
S'BETN063'
p2061
atRp2062
sg1218
S'42101 - CO'
p2063
ssS'6894'
p2064
(dp2065
g32
(lp2066
S'89101 - PM1_._6894'
p2067
asg1216
g7
((ltRp2068
sg1218
S'89101 - PM1'
p2069
ssS'6897'
p2070
(dp2071
g32
(lp2072
g1060
asg1216
g7
((lp2073
S'BETN063'
p2074
atRp2075
sg1218
S'42601 - NO'
p2076
ssS'6896'
p2077
(dp2078
g32
(lp2079
g1061
asg1216
g7
((lp2080
S'BETN063'
p2081
atRp2082
sg1218
S'42401 - SO2'
p2083
ssS'6899'
p2084
(dp2085
g32
(lp2086
g1062
asg1216
g7
((lp2087
S'BETN063'
p2088
atRp2089
sg1218
S'44201 - O3'
p2090
ssS'6898'
p2091
(dp2092
g32
(lp2093
g1063
asg1216
g7
((lp2094
S'BETN063'
p2095
atRp2096
sg1218
S'42602 - NO2'
p2097
ssS'7179'
p2098
(dp2099
g32
(lp2100
g858
asg1216
g7
((lp2101
S'BETE008'
p2102
atRp2103
sg1218
S'42601 - NO'
p2104
ssS'99928'
p2105
(dp2106
g32
(lp2107
S'61110 - WSP-SCA_._99928'
p2108
asg1216
g7
((ltRp2109
sg1218
S'61110 - WSP-SCA'
p2110
ssS'99929'
p2111
(dp2112
g32
(lp2113
g175
asg1216
g7
((lp2114
S'BETM204'
p2115
atRp2116
sg1218
S'62101 - TT'
p2117
ssS'7078'
p2118
(dp2119
g32
(lp2120
g459
asg1216
g7
((lp2121
S'BETR701'
p2122
atRp2123
sg1218
S'44201 - O3'
p2124
ssS'7079'
p2125
(dp2126
g32
(lp2127
S'45109 - m,p-C6H4(CH3)2_._7079'
p2128
asg1216
g7
((ltRp2129
sg1218
S'45109 - m,p-C6H4(CH3)2'
p2130
ssS'7074'
p2131
(dp2132
g32
(lp2133
g460
asg1216
g7
((lp2134
S'BETR701'
p2135
atRp2136
sg1218
S'42602 - NO2'
p2137
ssS'99921'
p2138
(dp2139
g32
(lp2140
S'61102 - DD_._99921'
p2141
asg1216
g7
((ltRp2142
sg1218
S'61102 - DD'
p2143
ssS'99922'
p2144
(dp2145
g32
(lp2146
S'61110 - WSP-SCA_._99922'
p2147
asg1216
g7
((ltRp2148
sg1218
S'61110 - WSP-SCA'
p2149
ssS'99923'
p2150
(dp2151
g32
(lp2152
S'62101 - TT_._99923'
p2153
asg1216
g7
((ltRp2154
sg1218
S'62101 - TT'
p2155
ssS'99924'
p2156
(dp2157
g32
(lp2158
S'61102 - DD_._99924'
p2159
asg1216
g7
((ltRp2160
sg1218
S'61102 - DD'
p2161
ssS'7071'
p2162
(dp2163
g32
(lp2164
g461
asg1216
g7
((lp2165
S'BETR701'
p2166
atRp2167
sg1218
S'42101 - CO'
p2168
ssS'7072'
p2169
(dp2170
g32
(lp2171
g462
asg1216
g7
((lp2172
S'BETR701'
p2173
atRp2174
sg1218
S'42401 - SO2'
p2175
ssS'7073'
p2176
(dp2177
g32
(lp2178
g463
asg1216
g7
((lp2179
S'BETR701'
p2180
atRp2181
sg1218
S'42601 - NO'
p2182
ssS'6972'
p2183
(dp2184
g32
(lp2185
S'89101 - PM1_._6972'
p2186
asg1216
g7
((ltRp2187
sg1218
S'89101 - PM1'
p2188
ssS'6970'
p2189
(dp2190
g32
(lp2191
g412
asg1216
g7
((lp2192
S'BETN132'
p2193
atRp2194
sg1218
S'81102 - PM10'
p2195
ssS'6971'
p2196
(dp2197
g32
(lp2198
g413
asg1216
g7
((lp2199
S'BETN132'
p2200
atRp2201
sg1218
S'81104 - PM2.5'
p2202
ssS'6508'
p2203
(dp2204
g32
(lp2205
g752
asg1216
g7
((lp2206
S'BETB004'
p2207
atRp2208
sg1218
S'42602 - NO2'
p2209
ssS'6916'
p2210
(dp2211
g32
(lp2212
g910
asg1216
g7
((lp2213
S'BETN070'
p2214
atRp2215
sg1218
S'42601 - NO'
p2216
ssS'99920'
p2217
(dp2218
g32
(lp2219
S'62101 - TT_._99920'
p2220
asg1216
g7
((ltRp2221
sg1218
S'62101 - TT'
p2222
ssS'6917'
p2223
(dp2224
g32
(lp2225
g911
asg1216
g7
((lp2226
S'BETN070'
p2227
atRp2228
sg1218
S'42602 - NO2'
p2229
ssS'7180'
p2230
(dp2231
g32
(lp2232
g859
asg1216
g7
((lp2233
S'BETE008'
p2234
atRp2235
sg1218
S'42602 - NO2'
p2236
ssS'7041'
p2237
(dp2238
g32
(lp2239
g165
asg1216
g7
((lp2240
S'BETN012'
p2241
atRp2242
sg1218
S'44201 - O3'
p2243
ssS'7182'
p2244
(dp2245
g32
(lp2246
g850
asg1216
g7
((lp2247
S'BETE009'
p2248
atRp2249
sg1218
S'42601 - NO'
p2250
ssS'7183'
p2251
(dp2252
g32
(lp2253
g851
asg1216
g7
((lp2254
S'BETE009'
p2255
atRp2256
sg1218
S'42602 - NO2'
p2257
ssS'7185'
p2258
(dp2259
g32
(lp2260
g1051
asg1216
g7
((lp2261
S'BETE013'
p2262
atRp2263
sg1218
S'42601 - NO'
p2264
ssS'7186'
p2265
(dp2266
g32
(lp2267
g1052
asg1216
g7
((lp2268
S'BETE013'
p2269
atRp2270
sg1218
S'42602 - NO2'
p2271
ssS'7040'
p2272
(dp2273
g32
(lp2274
g166
asg1216
g7
((lp2275
S'BETN012'
p2276
atRp2277
sg1218
S'42602 - NO2'
p2278
ssS'7207'
p2279
(dp2280
g32
(lp2281
g84
asg1216
g7
((lp2282
S'BETE716'
p2283
atRp2284
sg1218
S'42602 - NO2'
p2285
ssS'7042'
p2286
(dp2287
g32
(lp2288
g167
asg1216
g7
((lp2289
S'BETN012'
p2290
atRp2291
sg1218
S'81102 - PM10'
p2292
ssS'7206'
p2293
(dp2294
g32
(lp2295
g85
asg1216
g7
((lp2296
S'BETE716'
p2297
atRp2298
sg1218
S'42601 - NO'
p2299
ssS'10699'
p2300
(dp2301
g32
(lp2302
g990
asg1216
g7
((lp2303
S'BETR221'
p2304
atRp2305
sg1218
S'42601 - NO'
p2306
ssS'10698'
p2307
(dp2308
g32
(lp2309
g1174
asg1216
g7
((lp2310
S'BETR820'
p2311
atRp2312
sg1218
S'42602 - NO2'
p2313
ssS'7223'
p2314
(dp2315
g32
(lp2316
S'42401 - SO2_._7223'
p2317
asg1216
g7
((ltRp2318
sg1218
S'42401 - SO2'
p2319
ssS'7222'
p2320
(dp2321
g32
(lp2322
S'42602 - NO2_._7222'
p2323
asg1216
g7
((ltRp2324
sg1218
S'42602 - NO2'
p2325
ssS'7225'
p2326
(dp2327
g32
(lp2328
S'42602 - NO2_._7225'
p2329
asg1216
g7
((ltRp2330
sg1218
S'42602 - NO2'
p2331
ssS'7224'
p2332
(dp2333
g32
(lp2334
S'42601 - NO_._7224'
p2335
asg1216
g7
((ltRp2336
sg1218
S'42601 - NO'
p2337
ssS'7227'
p2338
(dp2339
g32
(lp2340
S'42601 - NO_._7227'
p2341
asg1216
g7
((ltRp2342
sg1218
S'42601 - NO'
p2343
ssS'7226'
p2344
(dp2345
g32
(lp2346
S'42401 - SO2_._7226'
p2347
asg1216
g7
((ltRp2348
sg1218
S'42401 - SO2'
p2349
ssS'10691'
p2350
(dp2351
g32
(lp2352
g46
asg1216
g7
((lp2353
S'BELSA04'
p2354
atRp2355
sg1218
S'81102 - PM10'
p2356
ssS'10690'
p2357
(dp2358
g32
(lp2359
g47
asg1216
g7
((lp2360
S'BELSA04'
p2361
atRp2362
sg1218
S'16111 - Black Carbon'
p2363
ssS'10693'
p2364
(dp2365
g32
(lp2366
g798
asg1216
g7
((lp2367
S'BETN043'
p2368
atRp2369
sg1218
S'16111 - Black Carbon'
p2370
ssS'10692'
p2371
(dp2372
g32
(lp2373
g48
asg1216
g7
((lp2374
S'BELSA04'
p2375
atRp2376
sg1218
S'81104 - PM2.5'
p2377
ssS'10697'
p2378
(dp2379
g32
(lp2380
g1175
asg1216
g7
((lp2381
S'BETR820'
p2382
atRp2383
sg1218
S'42601 - NO'
p2384
ssS'10696'
p2385
(dp2386
g32
(lp2387
g507
asg1216
g7
((lp2388
S'BETR802'
p2389
atRp2390
sg1218
S'42601 - NO'
p2391
ssS'6572'
p2392
(dp2393
g32
(lp2394
g532
asg1216
g7
((lp2395
S'BETR001'
p2396
atRp2397
sg1218
S'42401 - SO2'
p2398
ssS'6573'
p2399
(dp2400
g32
(lp2401
g533
asg1216
g7
((lp2402
S'BETR001'
p2403
atRp2404
sg1218
S'42601 - NO'
p2405
ssS'6571'
p2406
(dp2407
g32
(lp2408
g534
asg1216
g7
((lp2409
S'BETR001'
p2410
atRp2411
sg1218
S'42101 - CO'
p2412
ssS'6577'
p2413
(dp2414
g32
(lp2415
g535
asg1216
g7
((lp2416
S'BETR001'
p2417
atRp2418
sg1218
S'44201 - O3'
p2419
ssS'6574'
p2420
(dp2421
g32
(lp2422
g536
asg1216
g7
((lp2423
S'BETR001'
p2424
atRp2425
sg1218
S'42602 - NO2'
p2426
ssS'7122'
p2427
(dp2428
g32
(lp2429
g57
asg1216
g7
((lp2430
S'BETR750'
p2431
atRp2432
sg1218
S'42602 - NO2'
p2433
ssS'6578'
p2434
(dp2435
g32
(lp2436
g537
asg1216
g7
((lp2437
S'BETR001'
p2438
atRp2439
sg1218
S'81102 - PM10'
p2440
ssS'6579'
p2441
(dp2442
g32
(lp2443
g538
asg1216
g7
((lp2444
S'BETR001'
p2445
atRp2446
sg1218
S'81104 - PM2.5'
p2447
ssS'6324'
p2448
(dp2449
g32
(lp2450
g740
asg1216
g7
((lp2451
S'BELOB01'
p2452
atRp2453
sg1218
S'81102 - PM10'
p2454
ssS'6323'
p2455
(dp2456
g32
(lp2457
g741
asg1216
g7
((lp2458
S'BELOB01'
p2459
atRp2460
sg1218
S'42602 - NO2'
p2461
ssS'6322'
p2462
(dp2463
g32
(lp2464
g742
asg1216
g7
((lp2465
S'BELOB01'
p2466
atRp2467
sg1218
S'42601 - NO'
p2468
ssS'10749'
p2469
(dp2470
g32
(lp2471
g338
asg1216
g7
((lp2472
S'BETR817'
p2473
atRp2474
sg1218
S'81104 - PM2.5'
p2475
ssS'10748'
p2476
(dp2477
g32
(lp2478
g339
asg1216
g7
((lp2479
S'BETR817'
p2480
atRp2481
sg1218
S'81102 - PM10'
p2482
ssS'10747'
p2483
(dp2484
g32
(lp2485
S'16111 - Black Carbon_._10747'
p2486
asg1216
g7
((ltRp2487
sg1218
S'16111 - Black Carbon'
p2488
ssS'10746'
p2489
(dp2490
g32
(lp2491
g340
asg1216
g7
((lp2492
S'BETR817'
p2493
atRp2494
sg1218
S'42602 - NO2'
p2495
ssS'10745'
p2496
(dp2497
g32
(lp2498
g341
asg1216
g7
((lp2499
S'BETR817'
p2500
atRp2501
sg1218
S'42601 - NO'
p2502
ssS'10744'
p2503
(dp2504
g32
(lp2505
g519
asg1216
g7
((lp2506
S'BETR803'
p2507
atRp2508
sg1218
S'81104 - PM2.5'
p2509
ssS'10743'
p2510
(dp2511
g32
(lp2512
g520
asg1216
g7
((lp2513
S'BETR803'
p2514
atRp2515
sg1218
S'81102 - PM10'
p2516
ssS'10742'
p2517
(dp2518
g32
(lp2519
g521
asg1216
g7
((lp2520
S'BETR803'
p2521
atRp2522
sg1218
S'16111 - Black Carbon'
p2523
ssS'10741'
p2524
(dp2525
g32
(lp2526
g522
asg1216
g7
((lp2527
S'BETR803'
p2528
atRp2529
sg1218
S'42602 - NO2'
p2530
ssS'10740'
p2531
(dp2532
g32
(lp2533
g523
asg1216
g7
((lp2534
S'BETR803'
p2535
atRp2536
sg1218
S'42601 - NO'
p2537
ssS'6718'
p2538
(dp2539
g32
(lp2540
g787
asg1216
g7
((lp2541
S'BETN040'
p2542
atRp2543
sg1218
S'42602 - NO2'
p2544
ssS'6719'
p2545
(dp2546
g32
(lp2547
g788
asg1216
g7
((lp2548
S'BETN040'
p2549
atRp2550
sg1218
S'44201 - O3'
p2551
ssS'6716'
p2552
(dp2553
g32
(lp2554
g316
asg1216
g7
((lp2555
S'BETN035'
p2556
atRp2557
sg1218
S'81102 - PM10'
p2558
ssS'6717'
p2559
(dp2560
g32
(lp2561
g789
asg1216
g7
((lp2562
S'BETN040'
p2563
atRp2564
sg1218
S'42601 - NO'
p2565
ssS'6714'
p2566
(dp2567
g32
(lp2568
g317
asg1216
g7
((lp2569
S'BETN035'
p2570
atRp2571
sg1218
S'42602 - NO2'
p2572
ssS'6715'
p2573
(dp2574
g32
(lp2575
g318
asg1216
g7
((lp2576
S'BETN035'
p2577
atRp2578
sg1218
S'44201 - O3'
p2579
ssS'6712'
p2580
(dp2581
g32
(lp2582
g319
asg1216
g7
((lp2583
S'BETN035'
p2584
atRp2585
sg1218
S'42401 - SO2'
p2586
ssS'6713'
p2587
(dp2588
g32
(lp2589
g320
asg1216
g7
((lp2590
S'BETN035'
p2591
atRp2592
sg1218
S'42601 - NO'
p2593
ssS'6710'
p2594
(dp2595
g32
(lp2596
g442
asg1216
g7
((lp2597
S'BETN027'
p2598
atRp2599
sg1218
S'42602 - NO2'
p2600
ssS'6711'
p2601
(dp2602
g32
(lp2603
g443
asg1216
g7
((lp2604
S'BETN027'
p2605
atRp2606
sg1218
S'44201 - O3'
p2607
ssS'6855'
p2608
(dp2609
g32
(lp2610
g34
asg1216
g7
((lp2611
S'BETR841'
p2612
atRp2613
sg1218
S'81104 - PM2.5'
p2614
ssS'6854'
p2615
(dp2616
g32
(lp2617
g35
asg1216
g7
((lp2618
S'BETR841'
p2619
atRp2620
sg1218
S'81102 - PM10'
p2621
ssS'6857'
p2622
(dp2623
g32
(lp2624
g577
asg1216
g7
((lp2625
S'BETR891'
p2626
atRp2627
sg1218
S'42601 - NO'
p2628
ssS'6856'
p2629
(dp2630
g32
(lp2631
g578
asg1216
g7
((lp2632
S'BETR891'
p2633
atRp2634
sg1218
S'42401 - SO2'
p2635
ssS'6851'
p2636
(dp2637
g32
(lp2638
g36
asg1216
g7
((lp2639
S'BETR841'
p2640
atRp2641
sg1218
S'42601 - NO'
p2642
ssS'6853'
p2643
(dp2644
g32
(lp2645
g37
asg1216
g7
((lp2646
S'BETR841'
p2647
atRp2648
sg1218
S'44201 - O3'
p2649
ssS'6852'
p2650
(dp2651
g32
(lp2652
g38
asg1216
g7
((lp2653
S'BETR841'
p2654
atRp2655
sg1218
S'42602 - NO2'
p2656
ssS'6858'
p2657
(dp2658
g32
(lp2659
g579
asg1216
g7
((lp2660
S'BETR891'
p2661
atRp2662
sg1218
S'42602 - NO2'
p2663
ssS'7031'
p2664
(dp2665
g32
(lp2666
g727
asg1216
g7
((lp2667
S'BETM705'
p2668
atRp2669
sg1218
S'42601 - NO'
p2670
ssS'7032'
p2671
(dp2672
g32
(lp2673
g728
asg1216
g7
((lp2674
S'BETM705'
p2675
atRp2676
sg1218
S'42602 - NO2'
p2677
ssS'7033'
p2678
(dp2679
g32
(lp2680
g729
asg1216
g7
((lp2681
S'BETM705'
p2682
atRp2683
sg1218
S'44201 - O3'
p2684
ssS'6147'
p2685
(dp2686
g32
(lp2687
g142
asg1216
g7
((lp2688
S'BELAB01'
p2689
atRp2690
sg1218
S'16111 - Black Carbon'
p2691
ssS'7017'
p2692
(dp2693
g32
(lp2694
g691
asg1216
g7
((lp2695
S'BETR240'
p2696
atRp2697
sg1218
S'42602 - NO2'
p2698
ssS'7131'
p2699
(dp2700
g32
(lp2701
g1141
asg1216
g7
((lp2702
S'BETR501'
p2703
atRp2704
sg1218
S'42601 - NO'
p2705
ssS'7039'
p2706
(dp2707
g32
(lp2708
g168
asg1216
g7
((lp2709
S'BETN012'
p2710
atRp2711
sg1218
S'42601 - NO'
p2712
ssS'6149'
p2713
(dp2714
g32
(lp2715
g134
asg1216
g7
((lp2716
S'BELAB02'
p2717
atRp2718
sg1218
S'81102 - PM10'
p2719
ssS'6148'
p2720
(dp2721
g32
(lp2722
g143
asg1216
g7
((lp2723
S'BELAB01'
p2724
atRp2725
sg1218
S'81102 - PM10'
p2726
ssS'7135'
p2727
(dp2728
g32
(lp2729
g1142
asg1216
g7
((lp2730
S'BETR501'
p2731
atRp2732
sg1218
S'81102 - PM10'
p2733
ssS'7137'
p2734
(dp2735
g32
(lp2736
S'89101 - PM1_._7137'
p2737
asg1216
g7
((ltRp2738
sg1218
S'89101 - PM1'
p2739
ssS'7136'
p2740
(dp2741
g32
(lp2742
g1143
asg1216
g7
((lp2743
S'BETR501'
p2744
atRp2745
sg1218
S'81104 - PM2.5'
p2746
ssS'6781'
p2747
(dp2748
g32
(lp2749
S'45202 - C6H5-CH3_._6781'
p2750
asg1216
g7
((ltRp2751
sg1218
S'45202 - C6H5-CH3'
p2752
ssS'6780'
p2753
(dp2754
g32
(lp2755
g492
asg1216
g7
((lp2756
S'BETR801'
p2757
atRp2758
sg1218
S'45201 - C6H6'
p2759
ssS'6783'
p2760
(dp2761
g32
(lp2762
S'45204 - o-C6H4-(CH3)2_._6783'
p2763
asg1216
g7
((ltRp2764
sg1218
S'45204 - o-C6H4-(CH3)2'
p2765
ssS'6782'
p2766
(dp2767
g32
(lp2768
S'45203 - C6H5-C2H5_._6782'
p2769
asg1216
g7
((ltRp2770
sg1218
S'45203 - C6H5-C2H5'
p2771
ssS'6787'
p2772
(dp2773
g32
(lp2774
g493
asg1216
g7
((lp2775
S'BETR801'
p2776
atRp2777
sg1218
S'81104 - PM2.5'
p2778
ssS'6786'
p2779
(dp2780
g32
(lp2781
g494
asg1216
g7
((lp2782
S'BETR801'
p2783
atRp2784
sg1218
S'81102 - PM10'
p2785
ssS'6789'
p2786
(dp2787
g32
(lp2788
g508
asg1216
g7
((lp2789
S'BETR802'
p2790
atRp2791
sg1218
S'81104 - PM2.5'
p2792
ssS'6788'
p2793
(dp2794
g32
(lp2795
g509
asg1216
g7
((lp2796
S'BETR802'
p2797
atRp2798
sg1218
S'81102 - PM10'
p2799
ssS'7044'
p2800
(dp2801
g32
(lp2802
S'42242 - Hg_._7044'
p2803
asg1216
g7
((ltRp2804
sg1218
S'42242 - Hg'
p2805
ssS'99911'
p2806
(dp2807
g32
(lp2808
g478
asg1216
g7
((lp2809
S'BETM802'
p2810
atRp2811
sg1218
S'62101 - TT'
p2812
ssS'99910'
p2813
(dp2814
g32
(lp2815
g479
asg1216
g7
((lp2816
S'BETM802'
p2817
atRp2818
sg1218
S'61110 - WSP-SCA'
p2819
ssS'99913'
p2820
(dp2821
g32
(lp2822
S'61110 - WSP-SCA_._99913'
p2823
asg1216
g7
((ltRp2824
sg1218
S'61110 - WSP-SCA'
p2825
ssS'99912'
p2826
(dp2827
g32
(lp2828
S'61102 - DD_._99912'
p2829
asg1216
g7
((ltRp2830
sg1218
S'61102 - DD'
p2831
ssS'7047'
p2832
(dp2833
g32
(lp2834
g427
asg1216
g7
((lp2835
S'BETN029'
p2836
atRp2837
sg1218
S'42602 - NO2'
p2838
ssS'7149'
p2839
(dp2840
g32
(lp2841
g105
asg1216
g7
((lp2842
S'BETR510'
p2843
atRp2844
sg1218
S'81104 - PM2.5'
p2845
ssS'99917'
p2846
(dp2847
g32
(lp2848
g539
asg1216
g7
((lp2849
S'BETR001'
p2850
atRp2851
sg1218
S'62101 - TT'
p2852
ssS'6638'
p2853
(dp2854
g32
(lp2855
g277
asg1216
g7
((lp2856
S'BETWOL1'
p2857
atRp2858
sg1218
S'42601 - NO'
p2859
ssS'7144'
p2860
(dp2861
g32
(lp2862
g878
asg1216
g7
((lp2863
S'BETR502'
p2864
atRp2865
sg1218
S'81104 - PM2.5'
p2866
ssS'7145'
p2867
(dp2868
g32
(lp2869
S'89101 - PM1_._7145'
p2870
asg1216
g7
((ltRp2871
sg1218
S'89101 - PM1'
p2872
ssS'7147'
p2873
(dp2874
g32
(lp2875
g106
asg1216
g7
((lp2876
S'BETR510'
p2877
atRp2878
sg1218
S'42401 - SO2'
p2879
ssS'7140'
p2880
(dp2881
g32
(lp2882
g879
asg1216
g7
((lp2883
S'BETR502'
p2884
atRp2885
sg1218
S'42601 - NO'
p2886
ssS'7141'
p2887
(dp2888
g32
(lp2889
g880
asg1216
g7
((lp2890
S'BETR502'
p2891
atRp2892
sg1218
S'42602 - NO2'
p2893
ssS'7142'
p2894
(dp2895
g32
(lp2896
g881
asg1216
g7
((lp2897
S'BETR502'
p2898
atRp2899
sg1218
S'44201 - O3'
p2900
ssS'7143'
p2901
(dp2902
g32
(lp2903
g882
asg1216
g7
((lp2904
S'BETR502'
p2905
atRp2906
sg1218
S'81102 - PM10'
p2907
ssS'100005'
p2908
(dp2909
g32
(lp2910
g393
asg1216
g7
((lp2911
S'BELRL01'
p2912
atRp2913
sg1218
S'81104 - PM2.5'
p2914
ssS'100004'
p2915
(dp2916
g32
(lp2917
S'81104 - PM2.5_._100004'
p2918
asg1216
g7
((ltRp2919
sg1218
S'81104 - PM2.5'
p2920
ssS'100006'
p2921
(dp2922
g32
(lp2923
g743
asg1216
g7
((lp2924
S'BELOB01'
p2925
atRp2926
sg1218
S'81104 - PM2.5'
p2927
ssS'100001'
p2928
(dp2929
g32
(lp2930
S'81104 - PM2.5_._100001'
p2931
asg1216
g7
((ltRp2932
sg1218
S'81104 - PM2.5'
p2933
ssS'100003'
p2934
(dp2935
g32
(lp2936
g135
asg1216
g7
((lp2937
S'BELAB02'
p2938
atRp2939
sg1218
S'81104 - PM2.5'
p2940
ssS'100002'
p2941
(dp2942
g32
(lp2943
g144
asg1216
g7
((lp2944
S'BELAB01'
p2945
atRp2946
sg1218
S'81104 - PM2.5'
p2947
ssS'7129'
p2948
(dp2949
g32
(lp2950
g1144
asg1216
g7
((lp2951
S'BETR501'
p2952
atRp2953
sg1218
S'42101 - CO'
p2954
ssS'100009'
p2955
(dp2956
g32
(lp2957
g1201
asg1216
g7
((lp2958
S'BELSZ02'
p2959
atRp2960
sg1218
S'81104 - PM2.5'
p2961
ssS'100008'
p2962
(dp2963
g32
(lp2964
g618
asg1216
g7
((lp2965
S'BELAL01'
p2966
atRp2967
sg1218
S'81104 - PM2.5'
p2968
ssS'7046'
p2969
(dp2970
g32
(lp2971
g428
asg1216
g7
((lp2972
S'BETN029'
p2973
atRp2974
sg1218
S'42601 - NO'
p2975
ssS'99936'
p2976
(dp2977
g32
(lp2978
S'61102 - DD_._99936'
p2979
asg1216
g7
((ltRp2980
sg1218
S'61102 - DD'
p2981
ssS'6532'
p2982
(dp2983
g32
(lp2984
g898
asg1216
g7
((lp2985
S'BETB011'
p2986
atRp2987
sg1218
S'81104 - PM2.5'
p2988
ssS'6928'
p2989
(dp2990
g32
(lp2991
g222
asg1216
g7
((lp2992
S'BETN085'
p2993
atRp2994
sg1218
S'16111 - Black Carbon'
p2995
ssS'6530'
p2996
(dp2997
g32
(lp2998
g899
asg1216
g7
((lp2999
S'BETB011'
p3000
atRp3001
sg1218
S'44201 - O3'
p3002
ssS'6531'
p3003
(dp3004
g32
(lp3005
g900
asg1216
g7
((lp3006
S'BETB011'
p3007
atRp3008
sg1218
S'81102 - PM10'
p3009
ssS'6925'
p3010
(dp3011
g32
(lp3012
g923
asg1216
g7
((lp3013
S'BETN073'
p3014
atRp3015
sg1218
S'44201 - O3'
p3016
ssS'6924'
p3017
(dp3018
g32
(lp3019
g924
asg1216
g7
((lp3020
S'BETN073'
p3021
atRp3022
sg1218
S'42602 - NO2'
p3023
ssS'6927'
p3024
(dp3025
g32
(lp3026
g925
asg1216
g7
((lp3027
S'BETN073'
p3028
atRp3029
sg1218
S'81104 - PM2.5'
p3030
ssS'6926'
p3031
(dp3032
g32
(lp3033
g926
asg1216
g7
((lp3034
S'BETN073'
p3035
atRp3036
sg1218
S'81102 - PM10'
p3037
ssS'6921'
p3038
(dp3039
g32
(lp3040
S'89101 - PM1_._6921'
p3041
asg1216
g7
((ltRp3042
sg1218
S'89101 - PM1'
p3043
ssS'6920'
p3044
(dp3045
g32
(lp3046
g912
asg1216
g7
((lp3047
S'BETN070'
p3048
atRp3049
sg1218
S'81104 - PM2.5'
p3050
ssS'6923'
p3051
(dp3052
g32
(lp3053
g927
asg1216
g7
((lp3054
S'BETN073'
p3055
atRp3056
sg1218
S'42601 - NO'
p3057
ssS'6284'
p3058
(dp3059
g32
(lp3060
S'45202 - C6H5-CH3_._6284'
p3061
asg1216
g7
((ltRp3062
sg1218
S'45202 - C6H5-CH3'
p3063
ssS'6285'
p3064
(dp3065
g32
(lp3066
S'45203 - C6H5-C2H5_._6285'
p3067
asg1216
g7
((ltRp3068
sg1218
S'45203 - C6H5-C2H5'
p3069
ssS'6286'
p3070
(dp3071
g32
(lp3072
S'45204 - o-C6H4-(CH3)2_._6286'
p3073
asg1216
g7
((ltRp3074
sg1218
S'45204 - o-C6H4-(CH3)2'
p3075
ssS'6280'
p3076
(dp3077
g32
(lp3078
g889
asg1216
g7
((lp3079
S'BELLD02'
p3080
atRp3081
sg1218
S'42601 - NO'
p3082
ssS'6281'
p3083
(dp3084
g32
(lp3085
g890
asg1216
g7
((lp3086
S'BELLD02'
p3087
atRp3088
sg1218
S'42602 - NO2'
p3089
ssS'6282'
p3090
(dp3091
g32
(lp3092
S'45109 - m,p-C6H4(CH3)2_._6282'
p3093
asg1216
g7
((ltRp3094
sg1218
S'45109 - m,p-C6H4(CH3)2'
p3095
ssS'6283'
p3096
(dp3097
g32
(lp3098
g891
asg1216
g7
((lp3099
S'BELLD02'
p3100
atRp3101
sg1218
S'45201 - C6H6'
p3102
ssS'6368'
p3103
(dp3104
g32
(lp3105
g1202
asg1216
g7
((lp3106
S'BELSZ02'
p3107
atRp3108
sg1218
S'81102 - PM10'
p3109
ssS'6361'
p3110
(dp3111
g32
(lp3112
g1203
asg1216
g7
((lp3113
S'BELSZ02'
p3114
atRp3115
sg1218
S'42602 - NO2'
p3116
ssS'6360'
p3117
(dp3118
g32
(lp3119
g1204
asg1216
g7
((lp3120
S'BELSZ02'
p3121
atRp3122
sg1218
S'42601 - NO'
p3123
ssS'7218'
p3124
(dp3125
g32
(lp3126
S'42601 - NO_._7218'
p3127
asg1216
g7
((ltRp3128
sg1218
S'42601 - NO'
p3129
ssS'7219'
p3130
(dp3131
g32
(lp3132
S'42602 - NO2_._7219'
p3133
asg1216
g7
((ltRp3134
sg1218
S'42602 - NO2'
p3135
ssS'6407'
p3136
(dp3137
g32
(lp3138
g261
asg1216
g7
((lp3139
S'BETTS21'
p3140
atRp3141
sg1218
S'42401 - SO2'
p3142
ssS'7210'
p3143
(dp3144
g32
(lp3145
g1029
asg1216
g7
((lp3146
S'BETE804'
p3147
atRp3148
sg1218
S'42602 - NO2'
p3149
ssS'7217'
p3150
(dp3151
g32
(lp3152
S'42401 - SO2_._7217'
p3153
asg1216
g7
((ltRp3154
sg1218
S'42401 - SO2'
p3155
ssS'6217'
p3156
(dp3157
g32
(lp3158
g715
asg1216
g7
((lp3159
S'BELHB23'
p3160
atRp3161
sg1218
S'42602 - NO2'
p3162
ssS'6216'
p3163
(dp3164
g32
(lp3165
g716
asg1216
g7
((lp3166
S'BELHB23'
p3167
atRp3168
sg1218
S'42601 - NO'
p3169
ssS'6215'
p3170
(dp3171
g32
(lp3172
g717
asg1216
g7
((lp3173
S'BELHB23'
p3174
atRp3175
sg1218
S'42401 - SO2'
p3176
ssS'6218'
p3177
(dp3178
g32
(lp3179
g718
asg1216
g7
((lp3180
S'BELHB23'
p3181
atRp3182
sg1218
S'81102 - PM10'
p3183
ssS'6813'
p3184
(dp3185
g32
(lp3186
g1182
asg1216
g7
((lp3187
S'BETR821'
p3188
atRp3189
sg1218
S'42601 - NO'
p3190
ssS'6812'
p3191
(dp3192
g32
(lp3193
g1183
asg1216
g7
((lp3194
S'BETR821'
p3195
atRp3196
sg1218
S'42401 - SO2'
p3197
ssS'6815'
p3198
(dp3199
g32
(lp3200
g1164
asg1216
g7
((lp3201
S'BETR822'
p3202
atRp3203
sg1218
S'42401 - SO2'
p3204
ssS'6814'
p3205
(dp3206
g32
(lp3207
g1184
asg1216
g7
((lp3208
S'BETR821'
p3209
atRp3210
sg1218
S'42602 - NO2'
p3211
ssS'6817'
p3212
(dp3213
g32
(lp3214
g1165
asg1216
g7
((lp3215
S'BETR822'
p3216
atRp3217
sg1218
S'42602 - NO2'
p3218
ssS'6816'
p3219
(dp3220
g32
(lp3221
g1166
asg1216
g7
((lp3222
S'BETR822'
p3223
atRp3224
sg1218
S'42601 - NO'
p3225
ssS'6744'
p3226
(dp3227
g32
(lp3228
g826
asg1216
g7
((lp3229
S'BETN046'
p3230
atRp3231
sg1218
S'44201 - O3'
p3232
ssS'6747'
p3233
(dp3234
g32
(lp3235
g704
asg1216
g7
((lp3236
S'BETN054'
p3237
atRp3238
sg1218
S'42602 - NO2'
p3239
ssS'6746'
p3240
(dp3241
g32
(lp3242
g705
asg1216
g7
((lp3243
S'BETN054'
p3244
atRp3245
sg1218
S'42601 - NO'
p3246
ssS'6740'
p3247
(dp3248
g32
(lp3249
g815
asg1216
g7
((lp3250
S'BETN045'
p3251
atRp3252
sg1218
S'81104 - PM2.5'
p3253
ssS'6743'
p3254
(dp3255
g32
(lp3256
g827
asg1216
g7
((lp3257
S'BETN046'
p3258
atRp3259
sg1218
S'42602 - NO2'
p3260
ssS'6742'
p3261
(dp3262
g32
(lp3263
g828
asg1216
g7
((lp3264
S'BETN046'
p3265
atRp3266
sg1218
S'42601 - NO'
p3267
ssS'6626'
p3268
(dp3269
g32
(lp3270
g370
asg1216
g7
((lp3271
S'BETR012'
p3272
atRp3273
sg1218
S'81102 - PM10'
p3274
ssS'6627'
p3275
(dp3276
g32
(lp3277
g371
asg1216
g7
((lp3278
S'BETR012'
p3279
atRp3280
sg1218
S'81104 - PM2.5'
p3281
ssS'6625'
p3282
(dp3283
g32
(lp3284
g372
asg1216
g7
((lp3285
S'BETR012'
p3286
atRp3287
sg1218
S'44201 - O3'
p3288
ssS'6749'
p3289
(dp3290
g32
(lp3291
g706
asg1216
g7
((lp3292
S'BETN054'
p3293
atRp3294
sg1218
S'81102 - PM10'
p3295
ssS'6748'
p3296
(dp3297
g32
(lp3298
g707
asg1216
g7
((lp3299
S'BETN054'
p3300
atRp3301
sg1218
S'44201 - O3'
p3302
ssS'6620'
p3303
(dp3304
g32
(lp3305
g373
asg1216
g7
((lp3306
S'BETR012'
p3307
atRp3308
sg1218
S'42401 - SO2'
p3309
ssS'6621'
p3310
(dp3311
g32
(lp3312
g374
asg1216
g7
((lp3313
S'BETR012'
p3314
atRp3315
sg1218
S'42601 - NO'
p3316
ssS'7120'
p3317
(dp3318
g32
(lp3319
g58
asg1216
g7
((lp3320
S'BETR750'
p3321
atRp3322
sg1218
S'42401 - SO2'
p3323
ssS'7103'
p3324
(dp3325
g32
(lp3326
g934
asg1216
g7
((lp3327
S'BETR731'
p3328
atRp3329
sg1218
S'42401 - SO2'
p3330
ssS'6868'
p3331
(dp3332
g32
(lp3333
g595
asg1216
g7
((lp3334
S'BETR894'
p3335
atRp3336
sg1218
S'42401 - SO2'
p3337
ssS'6869'
p3338
(dp3339
g32
(lp3340
g596
asg1216
g7
((lp3341
S'BETR894'
p3342
atRp3343
sg1218
S'42601 - NO'
p3344
ssS'7106'
p3345
(dp3346
g32
(lp3347
g935
asg1216
g7
((lp3348
S'BETR731'
p3349
atRp3350
sg1218
S'81102 - PM10'
p3351
ssS'7107'
p3352
(dp3353
g32
(lp3354
g936
asg1216
g7
((lp3355
S'BETR731'
p3356
atRp3357
sg1218
S'81104 - PM2.5'
p3358
ssS'6864'
p3359
(dp3360
g32
(lp3361
g559
asg1216
g7
((lp3362
S'BETR893'
p3363
atRp3364
sg1218
S'42401 - SO2'
p3365
ssS'6865'
p3366
(dp3367
g32
(lp3368
g560
asg1216
g7
((lp3369
S'BETR893'
p3370
atRp3371
sg1218
S'42601 - NO'
p3372
ssS'6866'
p3373
(dp3374
g32
(lp3375
g561
asg1216
g7
((lp3376
S'BETR893'
p3377
atRp3378
sg1218
S'42602 - NO2'
p3379
ssS'6860'
p3380
(dp3381
g32
(lp3382
g568
asg1216
g7
((lp3383
S'BETR892'
p3384
atRp3385
sg1218
S'42401 - SO2'
p3386
ssS'6861'
p3387
(dp3388
g32
(lp3389
g569
asg1216
g7
((lp3390
S'BETR892'
p3391
atRp3392
sg1218
S'42601 - NO'
p3393
ssS'6862'
p3394
(dp3395
g32
(lp3396
g570
asg1216
g7
((lp3397
S'BETR892'
p3398
atRp3399
sg1218
S'42602 - NO2'
p3400
ssS'7069'
p3401
(dp3402
g32
(lp3403
g651
asg1216
g7
((lp3404
S'BETN052'
p3405
atRp3406
sg1218
S'81102 - PM10'
p3407
ssS'7068'
p3408
(dp3409
g32
(lp3410
g652
asg1216
g7
((lp3411
S'BETN052'
p3412
atRp3413
sg1218
S'44201 - O3'
p3414
ssS'7067'
p3415
(dp3416
g32
(lp3417
g653
asg1216
g7
((lp3418
S'BETN052'
p3419
atRp3420
sg1218
S'42602 - NO2'
p3421
ssS'7066'
p3422
(dp3423
g32
(lp3424
g654
asg1216
g7
((lp3425
S'BETN052'
p3426
atRp3427
sg1218
S'42601 - NO'
p3428
ssS'7065'
p3429
(dp3430
g32
(lp3431
g655
asg1216
g7
((lp3432
S'BETN052'
p3433
atRp3434
sg1218
S'42401 - SO2'
p3435
ssS'7064'
p3436
(dp3437
g32
(lp3438
g662
asg1216
g7
((lp3439
S'BETN051'
p3440
atRp3441
sg1218
S'44201 - O3'
p3442
ssS'7063'
p3443
(dp3444
g32
(lp3445
g663
asg1216
g7
((lp3446
S'BETN051'
p3447
atRp3448
sg1218
S'42602 - NO2'
p3449
ssS'7062'
p3450
(dp3451
g32
(lp3452
g664
asg1216
g7
((lp3453
S'BETN051'
p3454
atRp3455
sg1218
S'42601 - NO'
p3456
ssS'6961'
p3457
(dp3458
g32
(lp3459
g293
asg1216
g7
((lp3460
S'BETN121'
p3461
atRp3462
sg1218
S'42602 - NO2'
p3463
ssS'6960'
p3464
(dp3465
g32
(lp3466
g294
asg1216
g7
((lp3467
S'BETN121'
p3468
atRp3469
sg1218
S'42601 - NO'
p3470
ssS'6963'
p3471
(dp3472
g32
(lp3473
g295
asg1216
g7
((lp3474
S'BETN121'
p3475
atRp3476
sg1218
S'81102 - PM10'
p3477
ssS'6962'
p3478
(dp3479
g32
(lp3480
g296
asg1216
g7
((lp3481
S'BETN121'
p3482
atRp3483
sg1218
S'44201 - O3'
p3484
ssS'6965'
p3485
(dp3486
g32
(lp3487
g414
asg1216
g7
((lp3488
S'BETN132'
p3489
atRp3490
sg1218
S'42101 - CO'
p3491
ssS'6964'
p3492
(dp3493
g32
(lp3494
g297
asg1216
g7
((lp3495
S'BETN121'
p3496
atRp3497
sg1218
S'81104 - PM2.5'
p3498
ssS'6967'
p3499
(dp3500
g32
(lp3501
g415
asg1216
g7
((lp3502
S'BETN132'
p3503
atRp3504
sg1218
S'42601 - NO'
p3505
ssS'6966'
p3506
(dp3507
g32
(lp3508
g416
asg1216
g7
((lp3509
S'BETN132'
p3510
atRp3511
sg1218
S'42401 - SO2'
p3512
ssS'6969'
p3513
(dp3514
g32
(lp3515
g417
asg1216
g7
((lp3516
S'BETN132'
p3517
atRp3518
sg1218
S'44201 - O3'
p3519
ssS'6968'
p3520
(dp3521
g32
(lp3522
g418
asg1216
g7
((lp3523
S'BETN132'
p3524
atRp3525
sg1218
S'42602 - NO2'
p3526
ssS'7193'
p3527
(dp3528
g32
(lp3529
g244
asg1216
g7
((lp3530
S'BETE703'
p3531
atRp3532
sg1218
S'42401 - SO2'
p3533
ssS'7192'
p3534
(dp3535
g32
(lp3536
g236
asg1216
g7
((lp3537
S'BETE702'
p3538
atRp3539
sg1218
S'42602 - NO2'
p3540
ssS'7191'
p3541
(dp3542
g32
(lp3543
g237
asg1216
g7
((lp3544
S'BETE702'
p3545
atRp3546
sg1218
S'42601 - NO'
p3547
ssS'7195'
p3548
(dp3549
g32
(lp3550
g245
asg1216
g7
((lp3551
S'BETE703'
p3552
atRp3553
sg1218
S'42602 - NO2'
p3554
ssS'7194'
p3555
(dp3556
g32
(lp3557
g246
asg1216
g7
((lp3558
S'BETE703'
p3559
atRp3560
sg1218
S'42601 - NO'
p3561
ssS'99926'
p3562
(dp3563
g32
(lp3564
S'62101 - TT_._99926'
p3565
asg1216
g7
((ltRp3566
sg1218
S'62101 - TT'
p3567
ssS'6914'
p3568
(dp3569
g32
(lp3570
g913
asg1216
g7
((lp3571
S'BETN070'
p3572
atRp3573
sg1218
S'42101 - CO'
p3574
ssS'6915'
p3575
(dp3576
g32
(lp3577
g914
asg1216
g7
((lp3578
S'BETN070'
p3579
atRp3580
sg1218
S'42401 - SO2'
p3581
ssS'10688'
p3582
(dp3583
g32
(lp3584
g1043
asg1216
g7
((lp3585
S'BELR833'
p3586
atRp3587
sg1218
S'42601 - NO'
p3588
ssS'10689'
p3589
(dp3590
g32
(lp3591
g1044
asg1216
g7
((lp3592
S'BELR833'
p3593
atRp3594
sg1218
S'42602 - NO2'
p3595
ssS'6910'
p3596
(dp3597
g32
(lp3598
S'89101 - PM1_._6910'
p3599
asg1216
g7
((ltRp3600
sg1218
S'89101 - PM1'
p3601
ssS'6911'
p3602
(dp3603
g32
(lp3604
g1097
asg1216
g7
((lp3605
S'BETN067'
p3606
atRp3607
sg1218
S'81102 - PM10'
p3608
ssS'6912'
p3609
(dp3610
g32
(lp3611
g1098
asg1216
g7
((lp3612
S'BETN067'
p3613
atRp3614
sg1218
S'81104 - PM2.5'
p3615
ssS'6913'
p3616
(dp3617
g32
(lp3618
g1099
asg1216
g7
((lp3619
S'BETN067'
p3620
atRp3621
sg1218
S'89101 - PM1'
p3622
ssS'6918'
p3623
(dp3624
g32
(lp3625
g915
asg1216
g7
((lp3626
S'BETN070'
p3627
atRp3628
sg1218
S'44201 - O3'
p3629
ssS'6919'
p3630
(dp3631
g32
(lp3632
g916
asg1216
g7
((lp3633
S'BETN070'
p3634
atRp3635
sg1218
S'81102 - PM10'
p3636
ssS'7221'
p3637
(dp3638
g32
(lp3639
S'42601 - NO_._7221'
p3640
asg1216
g7
((ltRp3641
sg1218
S'42601 - NO'
p3642
ssS'6569'
p3643
(dp3644
g32
(lp3645
g540
asg1216
g7
((lp3646
S'BETR001'
p3647
atRp3648
sg1218
S'16111 - Black Carbon'
p3649
ssS'99939'
p3650
(dp3651
g32
(lp3652
g375
asg1216
g7
((lp3653
S'BETR012'
p3654
atRp3655
sg1218
S'61102 - DD'
p3656
ssS'7220'
p3657
(dp3658
g32
(lp3659
S'42401 - SO2_._7220'
p3660
asg1216
g7
((ltRp3661
sg1218
S'42401 - SO2'
p3662
ssS'6564'
p3663
(dp3664
g32
(lp3665
g799
asg1216
g7
((lp3666
S'BETN043'
p3667
atRp3668
sg1218
S'81104 - PM2.5'
p3669
ssS'99938'
p3670
(dp3671
g32
(lp3672
S'62101 - TT_._99938'
p3673
asg1216
g7
((ltRp3674
sg1218
S'62101 - TT'
p3675
ssS'6561'
p3676
(dp3677
g32
(lp3678
g800
asg1216
g7
((lp3679
S'BETN043'
p3680
atRp3681
sg1218
S'42602 - NO2'
p3682
ssS'6560'
p3683
(dp3684
g32
(lp3685
g801
asg1216
g7
((lp3686
S'BETN043'
p3687
atRp3688
sg1218
S'42601 - NO'
p3689
ssS'6563'
p3690
(dp3691
g32
(lp3692
g802
asg1216
g7
((lp3693
S'BETN043'
p3694
atRp3695
sg1218
S'81102 - PM10'
p3696
ssS'6562'
p3697
(dp3698
g32
(lp3699
g803
asg1216
g7
((lp3700
S'BETN043'
p3701
atRp3702
sg1218
S'44201 - O3'
p3703
ssS'10611'
p3704
(dp3705
g32
(lp3706
g948
asg1216
g7
((lp3707
S'BETR834'
p3708
atRp3709
sg1218
S'42602 - NO2'
p3710
ssS'10610'
p3711
(dp3712
g32
(lp3713
g949
asg1216
g7
((lp3714
S'BETR834'
p3715
atRp3716
sg1218
S'81102 - PM10'
p3717
ssS'10613'
p3718
(dp3719
g32
(lp3720
g1129
asg1216
g7
((lp3721
S'BETB008'
p3722
atRp3723
sg1218
S'42601 - NO'
p3724
ssS'10612'
p3725
(dp3726
g32
(lp3727
g950
asg1216
g7
((lp3728
S'BETR834'
p3729
atRp3730
sg1218
S'42601 - NO'
p3731
ssS'10615'
p3732
(dp3733
g32
(lp3734
g1130
asg1216
g7
((lp3735
S'BETB008'
p3736
atRp3737
sg1218
S'42401 - SO2'
p3738
ssS'10614'
p3739
(dp3740
g32
(lp3741
g1131
asg1216
g7
((lp3742
S'BETB008'
p3743
atRp3744
sg1218
S'42602 - NO2'
p3745
ssS'10616'
p3746
(dp3747
g32
(lp3748
g1132
asg1216
g7
((lp3749
S'BETB008'
p3750
atRp3751
sg1218
S'42101 - CO'
p3752
ssS'10750'
p3753
(dp3754
g32
(lp3755
g253
asg1216
g7
((lp3756
S'BETE704'
p3757
atRp3758
sg1218
S'42601 - NO'
p3759
ssS'10751'
p3760
(dp3761
g32
(lp3762
g254
asg1216
g7
((lp3763
S'BETE704'
p3764
atRp3765
sg1218
S'42602 - NO2'
p3766
ssS'99935'
p3767
(dp3768
g32
(lp3769
g1019
asg1216
g7
((lp3770
S'BETR223'
p3771
atRp3772
sg1218
S'62101 - TT'
p3773
ssS'7115'
p3774
(dp3775
g32
(lp3776
g401
asg1216
g7
((lp3777
S'BETR740'
p3778
atRp3779
sg1218
S'44201 - O3'
p3780
ssS'6709'
p3781
(dp3782
g32
(lp3783
g444
asg1216
g7
((lp3784
S'BETN027'
p3785
atRp3786
sg1218
S'42601 - NO'
p3787
ssS'7229'
p3788
(dp3789
g32
(lp3790
g1120
asg1216
g7
((lp3791
S'BETE811'
p3792
atRp3793
sg1218
S'42401 - SO2'
p3794
ssS'99931'
p3795
(dp3796
g32
(lp3797
S'61110 - WSP-SCA_._99931'
p3798
asg1216
g7
((ltRp3799
sg1218
S'61110 - WSP-SCA'
p3800
ssS'7228'
p3801
(dp3802
g32
(lp3803
S'42602 - NO2_._7228'
p3804
asg1216
g7
((ltRp3805
sg1218
S'42602 - NO2'
p3806
ssS'6701'
p3807
(dp3808
g32
(lp3809
g152
asg1216
g7
((lp3810
S'BETN016'
p3811
atRp3812
sg1218
S'42601 - NO'
p3813
ssS'6700'
p3814
(dp3815
g32
(lp3816
g153
asg1216
g7
((lp3817
S'BETN016'
p3818
atRp3819
sg1218
S'42401 - SO2'
p3820
ssS'6703'
p3821
(dp3822
g32
(lp3823
g154
asg1216
g7
((lp3824
S'BETN016'
p3825
atRp3826
sg1218
S'44201 - O3'
p3827
ssS'6702'
p3828
(dp3829
g32
(lp3830
g155
asg1216
g7
((lp3831
S'BETN016'
p3832
atRp3833
sg1218
S'42602 - NO2'
p3834
ssS'6704'
p3835
(dp3836
g32
(lp3837
g156
asg1216
g7
((lp3838
S'BETN016'
p3839
atRp3840
sg1218
S'81102 - PM10'
p3841
ssS'6824'
p3842
(dp3843
g32
(lp3844
g978
asg1216
g7
((lp3845
S'BETR830'
p3846
atRp3847
sg1218
S'42401 - SO2'
p3848
ssS'6825'
p3849
(dp3850
g32
(lp3851
g979
asg1216
g7
((lp3852
S'BETR830'
p3853
atRp3854
sg1218
S'42601 - NO'
p3855
ssS'6826'
p3856
(dp3857
g32
(lp3858
g980
asg1216
g7
((lp3859
S'BETR830'
p3860
atRp3861
sg1218
S'42602 - NO2'
p3862
ssS'6828'
p3863
(dp3864
g32
(lp3865
g967
asg1216
g7
((lp3866
S'BETR831'
p3867
atRp3868
sg1218
S'42401 - SO2'
p3869
ssS'6829'
p3870
(dp3871
g32
(lp3872
g968
asg1216
g7
((lp3873
S'BETR831'
p3874
atRp3875
sg1218
S'42601 - NO'
p3876
ssS'6675'
p3877
(dp3878
g32
(lp3879
S'45204 - o-C6H4-(CH3)2_._6675'
p3880
asg1216
g7
((ltRp3881
sg1218
S'45204 - o-C6H4-(CH3)2'
p3882
ssS'6674'
p3883
(dp3884
g32
(lp3885
S'45203 - C6H5-C2H5_._6674'
p3886
asg1216
g7
((ltRp3887
sg1218
S'45203 - C6H5-C2H5'
p3888
ssS'7021'
p3889
(dp3890
g32
(lp3891
g692
asg1216
g7
((lp3892
S'BETR240'
p3893
atRp3894
sg1218
S'81102 - PM10'
p3895
ssS'7020'
p3896
(dp3897
g32
(lp3898
g693
asg1216
g7
((lp3899
S'BETR240'
p3900
atRp3901
sg1218
S'44201 - O3'
p3902
ssS'6671'
p3903
(dp3904
g32
(lp3905
S'45109 - m,p-C6H4(CH3)2_._6671'
p3906
asg1216
g7
((ltRp3907
sg1218
S'45109 - m,p-C6H4(CH3)2'
p3908
ssS'7026'
p3909
(dp3910
g32
(lp3911
g451
asg1216
g7
((lp3912
S'BETM702'
p3913
atRp3914
sg1218
S'42602 - NO2'
p3915
ssS'6673'
p3916
(dp3917
g32
(lp3918
S'45202 - C6H5-CH3_._6673'
p3919
asg1216
g7
((ltRp3920
sg1218
S'45202 - C6H5-CH3'
p3921
ssS'6672'
p3922
(dp3923
g32
(lp3924
S'45201 - C6H6_._6672'
p3925
asg1216
g7
((ltRp3926
sg1218
S'45201 - C6H6'
p3927
ssS'7029'
p3928
(dp3929
g32
(lp3930
g730
asg1216
g7
((lp3931
S'BETM705'
p3932
atRp3933
sg1218
S'16111 - Black Carbon'
p3934
ssS'7023'
p3935
(dp3936
g32
(lp3937
S'89101 - PM1_._7023'
p3938
asg1216
g7
((ltRp3939
sg1218
S'89101 - PM1'
p3940
ssS'6778'
p3941
(dp3942
g32
(lp3943
g495
asg1216
g7
((lp3944
S'BETR801'
p3945
atRp3946
sg1218
S'44201 - O3'
p3947
ssS'6779'
p3948
(dp3949
g32
(lp3950
S'45109 - m,p-C6H4(CH3)2_._6779'
p3951
asg1216
g7
((ltRp3952
sg1218
S'45109 - m,p-C6H4(CH3)2'
p3953
ssS'7022'
p3954
(dp3955
g32
(lp3956
g694
asg1216
g7
((lp3957
S'BETR240'
p3958
atRp3959
sg1218
S'81104 - PM2.5'
p3960
ssS'6774'
p3961
(dp3962
g32
(lp3963
g496
asg1216
g7
((lp3964
S'BETR801'
p3965
atRp3966
sg1218
S'42401 - SO2'
p3967
ssS'6775'
p3968
(dp3969
g32
(lp3970
g497
asg1216
g7
((lp3971
S'BETR801'
p3972
atRp3973
sg1218
S'42601 - NO'
p3974
ssS'6776'
p3975
(dp3976
g32
(lp3977
g498
asg1216
g7
((lp3978
S'BETR801'
p3979
atRp3980
sg1218
S'42602 - NO2'
p3981
ssS'6771'
p3982
(dp3983
g32
(lp3984
g867
asg1216
g7
((lp3985
S'BETR020'
p3986
atRp3987
sg1218
S'81102 - PM10'
p3988
ssS'6773'
p3989
(dp3990
g32
(lp3991
g499
asg1216
g7
((lp3992
S'BETR801'
p3993
atRp3994
sg1218
S'42101 - CO'
p3995
ssS'7025'
p3996
(dp3997
g32
(lp3998
g452
asg1216
g7
((lp3999
S'BETM702'
p4000
atRp4001
sg1218
S'42601 - NO'
p4002
ssS'7054'
p4003
(dp4004
g32
(lp4005
g429
asg1216
g7
((lp4006
S'BETN029'
p4007
atRp4008
sg1218
S'81102 - PM10'
p4009
ssS'7055'
p4010
(dp4011
g32
(lp4012
g430
asg1216
g7
((lp4013
S'BETN029'
p4014
atRp4015
sg1218
S'81104 - PM2.5'
p4016
ssS'7096'
p4017
(dp4018
g32
(lp4019
g195
asg1216
g7
((lp4020
S'BETR721'
p4021
atRp4022
sg1218
S'42601 - NO'
p4023
ssS'7097'
p4024
(dp4025
g32
(lp4026
g196
asg1216
g7
((lp4027
S'BETR721'
p4028
atRp4029
sg1218
S'42602 - NO2'
p4030
ssS'99900'
p4031
(dp4032
g32
(lp4033
g431
asg1216
g7
((lp4034
S'BETN029'
p4035
atRp4036
sg1218
S'61102 - DD'
p4037
ssS'7095'
p4038
(dp4039
g32
(lp4040
g197
asg1216
g7
((lp4041
S'BETR721'
p4042
atRp4043
sg1218
S'42401 - SO2'
p4044
ssS'7092'
p4045
(dp4046
g32
(lp4047
g672
asg1216
g7
((lp4048
S'BETR710'
p4049
atRp4050
sg1218
S'81102 - PM10'
p4051
ssS'99907'
p4052
(dp4053
g32
(lp4054
g464
asg1216
g7
((lp4055
S'BETR701'
p4056
atRp4057
sg1218
S'61110 - WSP-SCA'
p4058
ssS'7090'
p4059
(dp4060
g32
(lp4061
g673
asg1216
g7
((lp4062
S'BETR710'
p4063
atRp4064
sg1218
S'42602 - NO2'
p4065
ssS'7091'
p4066
(dp4067
g32
(lp4068
g674
asg1216
g7
((lp4069
S'BETR710'
p4070
atRp4071
sg1218
S'44201 - O3'
p4072
ssS'7157'
p4073
(dp4074
g32
(lp4075
g92
asg1216
g7
((lp4076
S'BETR512'
p4077
atRp4078
sg1218
S'42101 - CO'
p4079
ssS'7155'
p4080
(dp4081
g32
(lp4082
g93
asg1216
g7
((lp4083
S'BETR512'
p4084
atRp4085
sg1218
S'16111 - Black Carbon'
p4086
ssS'99909'
p4087
(dp4088
g32
(lp4089
g480
asg1216
g7
((lp4090
S'BETM802'
p4091
atRp4092
sg1218
S'61102 - DD'
p4093
ssS'7153'
p4094
(dp4095
g32
(lp4096
S'89101 - PM1_._7153'
p4097
asg1216
g7
((ltRp4098
sg1218
S'89101 - PM1'
p4099
ssS'7152'
p4100
(dp4101
g32
(lp4102
g114
asg1216
g7
((lp4103
S'BETR511'
p4104
atRp4105
sg1218
S'81104 - PM2.5'
p4106
ssS'7151'
p4107
(dp4108
g32
(lp4109
g115
asg1216
g7
((lp4110
S'BETR511'
p4111
atRp4112
sg1218
S'81102 - PM10'
p4113
ssS'6688'
p4114
(dp4115
g32
(lp4116
g481
asg1216
g7
((lp4117
S'BETM802'
p4118
atRp4119
sg1218
S'42401 - SO2'
p4120
ssS'6689'
p4121
(dp4122
g32
(lp4123
g482
asg1216
g7
((lp4124
S'BETM802'
p4125
atRp4126
sg1218
S'42601 - NO'
p4127
ssS'6687'
p4128
(dp4129
g32
(lp4130
g483
asg1216
g7
((lp4131
S'BETM802'
p4132
atRp4133
sg1218
S'16111 - Black Carbon'
p4134
ssS'99905'
p4135
(dp4136
g32
(lp4137
g731
asg1216
g7
((lp4138
S'BETM705'
p4139
atRp4140
sg1218
S'62101 - TT'
p4141
ssS'6509'
p4142
(dp4143
g32
(lp4144
g753
asg1216
g7
((lp4145
S'BETB004'
p4146
atRp4147
sg1218
S'44201 - O3'
p4148
ssS'6521'
p4149
(dp4150
g32
(lp4151
g1106
asg1216
g7
((lp4152
S'BETB006'
p4153
atRp4154
sg1218
S'45203 - C6H5-C2H5'
p4155
ssS'6520'
p4156
(dp4157
g32
(lp4158
g1107
asg1216
g7
((lp4159
S'BETB006'
p4160
atRp4161
sg1218
S'45202 - C6H5-CH3'
p4162
ssS'6488'
p4163
(dp4164
g32
(lp4165
S'45202 - C6H5-CH3_._6488'
p4166
asg1216
g7
((ltRp4167
sg1218
S'45202 - C6H5-CH3'
p4168
ssS'6522'
p4169
(dp4170
g32
(lp4171
g1108
asg1216
g7
((lp4172
S'BETB006'
p4173
atRp4174
sg1218
S'45204 - o-C6H4-(CH3)2'
p4175
ssS'6527'
p4176
(dp4177
g32
(lp4178
g901
asg1216
g7
((lp4179
S'BETB011'
p4180
atRp4181
sg1218
S'42601 - NO'
p4182
ssS'6950'
p4183
(dp4184
g32
(lp4185
g604
asg1216
g7
((lp4186
S'BETN100'
p4187
atRp4188
sg1218
S'81102 - PM10'
p4189
ssS'6528'
p4190
(dp4191
g32
(lp4192
g902
asg1216
g7
((lp4193
S'BETB011'
p4194
atRp4195
sg1218
S'42602 - NO2'
p4196
ssS'6952'
p4197
(dp4198
g32
(lp4199
S'89101 - PM1_._6952'
p4200
asg1216
g7
((ltRp4201
sg1218
S'89101 - PM1'
p4202
ssS'6486'
p4203
(dp4204
g32
(lp4205
S'45109 - m,p-C6H4(CH3)2_._6486'
p4206
asg1216
g7
((ltRp4207
sg1218
S'45109 - m,p-C6H4(CH3)2'
p4208
ssS'6487'
p4209
(dp4210
g32
(lp4211
g348
asg1216
g7
((lp4212
S'BELZL01'
p4213
atRp4214
sg1218
S'45201 - C6H6'
p4215
ssS'6956'
p4216
(dp4217
g32
(lp4218
g764
asg1216
g7
((lp4219
S'BETN113'
p4220
atRp4221
sg1218
S'44201 - O3'
p4222
ssS'6957'
p4223
(dp4224
g32
(lp4225
g765
asg1216
g7
((lp4226
S'BETN113'
p4227
atRp4228
sg1218
S'81102 - PM10'
p4229
ssS'6356'
p4230
(dp4231
g32
(lp4232
g1191
asg1216
g7
((lp4233
S'BELSZ01'
p4234
atRp4235
sg1218
S'81104 - PM2.5'
p4236
ssS'6196'
p4237
(dp4238
g32
(lp4239
g229
asg1216
g7
((lp4240
S'BELGK06'
p4241
atRp4242
sg1218
S'81102 - PM10'
p4243
ssS'6198'
p4244
(dp4245
g32
(lp4246
g206
asg1216
g7
((lp4247
S'BELGK09'
p4248
atRp4249
sg1218
S'42401 - SO2'
p4250
ssS'6199'
p4251
(dp4252
g32
(lp4253
g207
asg1216
g7
((lp4254
S'BELGK09'
p4255
atRp4256
sg1218
S'42601 - NO'
p4257
ssS'7148'
p4258
(dp4259
g32
(lp4260
g107
asg1216
g7
((lp4261
S'BETR510'
p4262
atRp4263
sg1218
S'81102 - PM10'
p4264
ssS'6951'
p4265
(dp4266
g32
(lp4267
g605
asg1216
g7
((lp4268
S'BETN100'
p4269
atRp4270
sg1218
S'81104 - PM2.5'
p4271
ssS'7209'
p4272
(dp4273
g32
(lp4274
g1030
asg1216
g7
((lp4275
S'BETE804'
p4276
atRp4277
sg1218
S'42601 - NO'
p4278
ssS'7208'
p4279
(dp4280
g32
(lp4281
S'42401 - SO2_._7208'
p4282
asg1216
g7
((ltRp4283
sg1218
S'42401 - SO2'
p4284
ssS'6550'
p4285
(dp4286
g32
(lp4287
g773
asg1216
g7
((lp4288
S'BETMEU1'
p4289
atRp4290
sg1218
S'42601 - NO'
p4291
ssS'6551'
p4292
(dp4293
g32
(lp4294
g774
asg1216
g7
((lp4295
S'BETMEU1'
p4296
atRp4297
sg1218
S'42602 - NO2'
p4298
ssS'6552'
p4299
(dp4300
g32
(lp4301
g775
asg1216
g7
((lp4302
S'BETMEU1'
p4303
atRp4304
sg1218
S'81102 - PM10'
p4305
ssS'6553'
p4306
(dp4307
g32
(lp4308
g776
asg1216
g7
((lp4309
S'BETMEU1'
p4310
atRp4311
sg1218
S'81104 - PM2.5'
p4312
ssS'7203'
p4313
(dp4314
g32
(lp4315
g68
asg1216
g7
((lp4316
S'BETE715'
p4317
atRp4318
sg1218
S'42601 - NO'
p4319
ssS'6622'
p4320
(dp4321
g32
(lp4322
g376
asg1216
g7
((lp4323
S'BETR012'
p4324
atRp4325
sg1218
S'42602 - NO2'
p4326
ssS'7201'
p4327
(dp4328
g32
(lp4329
g76
asg1216
g7
((lp4330
S'BETE714'
p4331
atRp4332
sg1218
S'42602 - NO2'
p4333
ssS'7200'
p4334
(dp4335
g32
(lp4336
g77
asg1216
g7
((lp4337
S'BETE714'
p4338
atRp4339
sg1218
S'42601 - NO'
p4340
ssS'6558'
p4341
(dp4342
g32
(lp4343
g804
asg1216
g7
((lp4344
S'BETN043'
p4345
atRp4346
sg1218
S'42101 - CO'
p4347
ssS'6559'
p4348
(dp4349
g32
(lp4350
g805
asg1216
g7
((lp4351
S'BETN043'
p4352
atRp4353
sg1218
S'42401 - SO2'
p4354
ssS'7204'
p4355
(dp4356
g32
(lp4357
g69
asg1216
g7
((lp4358
S'BETE715'
p4359
atRp4360
sg1218
S'42602 - NO2'
p4361
ssS'7119'
p4362
(dp4363
g32
(lp4364
g59
asg1216
g7
((lp4365
S'BETR750'
p4366
atRp4367
sg1218
S'42101 - CO'
p4368
ssS'6639'
p4369
(dp4370
g32
(lp4371
g278
asg1216
g7
((lp4372
S'BETWOL1'
p4373
atRp4374
sg1218
S'42602 - NO2'
p4375
ssS'6731'
p4376
(dp4377
g32
(lp4378
g816
asg1216
g7
((lp4379
S'BETN045'
p4380
atRp4381
sg1218
S'44201 - O3'
p4382
ssS'6732'
p4383
(dp4384
g32
(lp4385
S'45109 - m,p-C6H4(CH3)2_._6732'
p4386
asg1216
g7
((ltRp4387
sg1218
S'45109 - m,p-C6H4(CH3)2'
p4388
ssS'6733'
p4389
(dp4390
g32
(lp4391
g817
asg1216
g7
((lp4392
S'BETN045'
p4393
atRp4394
sg1218
S'45201 - C6H6'
p4395
ssS'6734'
p4396
(dp4397
g32
(lp4398
S'45202 - C6H5-CH3_._6734'
p4399
asg1216
g7
((ltRp4400
sg1218
S'45202 - C6H5-CH3'
p4401
ssS'6735'
p4402
(dp4403
g32
(lp4404
S'45203 - C6H5-C2H5_._6735'
p4405
asg1216
g7
((ltRp4406
sg1218
S'45203 - C6H5-C2H5'
p4407
ssS'6736'
p4408
(dp4409
g32
(lp4410
S'45204 - o-C6H4-(CH3)2_._6736'
p4411
asg1216
g7
((ltRp4412
sg1218
S'45204 - o-C6H4-(CH3)2'
p4413
ssS'6739'
p4414
(dp4415
g32
(lp4416
g818
asg1216
g7
((lp4417
S'BETN045'
p4418
atRp4419
sg1218
S'81102 - PM10'
p4420
ssS'6633'
p4421
(dp4422
g32
(lp4423
g279
asg1216
g7
((lp4424
S'BETWOL1'
p4425
atRp4426
sg1218
S'16111 - Black Carbon'
p4427
ssS'6635'
p4428
(dp4429
g32
(lp4430
g280
asg1216
g7
((lp4431
S'BETWOL1'
p4432
atRp4433
sg1218
S'42101 - CO'
p4434
ssS'6637'
p4435
(dp4436
g32
(lp4437
g281
asg1216
g7
((lp4438
S'BETWOL1'
p4439
atRp4440
sg1218
S'42401 - SO2'
p4441
ssS'6636'
p4442
(dp4443
g32
(lp4444
g282
asg1216
g7
((lp4445
S'BETWOL1'
p4446
atRp4447
sg1218
S'42102 - CO2'
p4448
ssS'7111'
p4449
(dp4450
g32
(lp4451
g402
asg1216
g7
((lp4452
S'BETR740'
p4453
atRp4454
sg1218
S'42602 - NO2'
p4455
ssS'7110'
p4456
(dp4457
g32
(lp4458
g403
asg1216
g7
((lp4459
S'BETR740'
p4460
atRp4461
sg1218
S'42601 - NO'
p4462
ssS'7117'
p4463
(dp4464
g32
(lp4465
g404
asg1216
g7
((lp4466
S'BETR740'
p4467
atRp4468
sg1218
S'81102 - PM10'
p4469
ssS'6879'
p4470
(dp4471
g32
(lp4472
g184
asg1216
g7
((lp4473
S'BETH201'
p4474
atRp4475
sg1218
S'42401 - SO2'
p4476
ssS'6875'
p4477
(dp4478
g32
(lp4479
g586
asg1216
g7
((lp4480
S'BETR897'
p4481
atRp4482
sg1218
S'42602 - NO2'
p4483
ssS'6874'
p4484
(dp4485
g32
(lp4486
g587
asg1216
g7
((lp4487
S'BETR897'
p4488
atRp4489
sg1218
S'42601 - NO'
p4490
ssS'6873'
p4491
(dp4492
g32
(lp4493
g588
asg1216
g7
((lp4494
S'BETR897'
p4495
atRp4496
sg1218
S'42401 - SO2'
p4497
ssS'6870'
p4498
(dp4499
g32
(lp4500
g597
asg1216
g7
((lp4501
S'BETR894'
p4502
atRp4503
sg1218
S'42602 - NO2'
p4504
ssS'7052'
p4505
(dp4506
g32
(lp4507
S'45203 - C6H5-C2H5_._7052'
p4508
asg1216
g7
((ltRp4509
sg1218
S'45203 - C6H5-C2H5'
p4510
ssS'7053'
p4511
(dp4512
g32
(lp4513
S'45204 - o-C6H4-(CH3)2_._7053'
p4514
asg1216
g7
((ltRp4515
sg1218
S'45204 - o-C6H4-(CH3)2'
p4516
ssS'7050'
p4517
(dp4518
g32
(lp4519
g432
asg1216
g7
((lp4520
S'BETN029'
p4521
atRp4522
sg1218
S'45201 - C6H6'
p4523
ssS'7051'
p4524
(dp4525
g32
(lp4526
S'45202 - C6H5-CH3_._7051'
p4527
asg1216
g7
((ltRp4528
sg1218
S'45202 - C6H5-CH3'
p4529
ssS'6642'
p4530
(dp4531
g32
(lp4532
g283
asg1216
g7
((lp4533
S'BETWOL1'
p4534
atRp4535
sg1218
S'44201 - O3'
p4536
ssS'6643'
p4537
(dp4538
g32
(lp4539
g284
asg1216
g7
((lp4540
S'BETWOL1'
p4541
atRp4542
sg1218
S'81102 - PM10'
p4543
ssS'7125'
p4544
(dp4545
g32
(lp4546
g60
asg1216
g7
((lp4547
S'BETR750'
p4548
atRp4549
sg1218
S'81102 - PM10'
p4550
ssS'6998'
p4551
(dp4552
g32
(lp4553
g1003
asg1216
g7
((lp4554
S'BETR222'
p4555
atRp4556
sg1218
S'42602 - NO2'
p4557
ssS'6999'
p4558
(dp4559
g32
(lp4560
g1004
asg1216
g7
((lp4561
S'BETR222'
p4562
atRp4563
sg1218
S'44201 - O3'
p4564
ssS'6994'
p4565
(dp4566
g32
(lp4567
g991
asg1216
g7
((lp4568
S'BETR221'
p4569
atRp4570
sg1218
S'81104 - PM2.5'
p4571
ssS'6995'
p4572
(dp4573
g32
(lp4574
g1005
asg1216
g7
((lp4575
S'BETR222'
p4576
atRp4577
sg1218
S'42101 - CO'
p4578
ssS'6996'
p4579
(dp4580
g32
(lp4581
g1006
asg1216
g7
((lp4582
S'BETR222'
p4583
atRp4584
sg1218
S'42401 - SO2'
p4585
ssS'6997'
p4586
(dp4587
g32
(lp4588
g1007
asg1216
g7
((lp4589
S'BETR222'
p4590
atRp4591
sg1218
S'42601 - NO'
p4592
ssS'6990'
p4593
(dp4594
g32
(lp4595
g992
asg1216
g7
((lp4596
S'BETR221'
p4597
atRp4598
sg1218
S'42401 - SO2'
p4599
ssS'6993'
p4600
(dp4601
g32
(lp4602
g993
asg1216
g7
((lp4603
S'BETR221'
p4604
atRp4605
sg1218
S'81102 - PM10'
p4606
ssS'6392'
p4607
(dp4608
g32
(lp4609
S'45201 - C6H6_._6392'
p4610
asg1216
g7
((ltRp4611
sg1218
S'45201 - C6H6'
p4612
ssS'6393'
p4613
(dp4614
g32
(lp4615
S'45202 - C6H5-CH3_._6393'
p4616
asg1216
g7
((ltRp4617
sg1218
S'45202 - C6H5-CH3'
p4618
ssS'6391'
p4619
(dp4620
g32
(lp4621
S'45109 - m,p-C6H4(CH3)2_._6391'
p4622
asg1216
g7
((ltRp4623
sg1218
S'45109 - m,p-C6H4(CH3)2'
p4624
ssS'6394'
p4625
(dp4626
g32
(lp4627
S'45203 - C6H5-C2H5_._6394'
p4628
asg1216
g7
((ltRp4629
sg1218
S'45203 - C6H5-C2H5'
p4630
ssS'6395'
p4631
(dp4632
g32
(lp4633
S'45204 - o-C6H4-(CH3)2_._6395'
p4634
asg1216
g7
((ltRp4635
sg1218
S'45204 - o-C6H4-(CH3)2'
p4636
ssS'10739'
p4637
(dp4638
g32
(lp4639
g510
asg1216
g7
((lp4640
S'BETR802'
p4641
atRp4642
sg1218
S'42101 - CO'
p4643
ssS'6907'
p4644
(dp4645
g32
(lp4646
g1087
asg1216
g7
((lp4647
S'BETN066'
p4648
atRp4649
sg1218
S'44201 - O3'
p4650
ssS'6906'
p4651
(dp4652
g32
(lp4653
g1088
asg1216
g7
((lp4654
S'BETN066'
p4655
atRp4656
sg1218
S'42602 - NO2'
p4657
ssS'6905'
p4658
(dp4659
g32
(lp4660
g1089
asg1216
g7
((lp4661
S'BETN066'
p4662
atRp4663
sg1218
S'42601 - NO'
p4664
ssS'6904'
p4665
(dp4666
g32
(lp4667
g1090
asg1216
g7
((lp4668
S'BETN066'
p4669
atRp4670
sg1218
S'42401 - SO2'
p4671
ssS'6902'
p4672
(dp4673
g32
(lp4674
S'89101 - PM1_._6902'
p4675
asg1216
g7
((ltRp4676
sg1218
S'89101 - PM1'
p4677
ssS'6901'
p4678
(dp4679
g32
(lp4680
g1064
asg1216
g7
((lp4681
S'BETN063'
p4682
atRp4683
sg1218
S'81104 - PM2.5'
p4684
ssS'6900'
p4685
(dp4686
g32
(lp4687
g1065
asg1216
g7
((lp4688
S'BETN063'
p4689
atRp4690
sg1218
S'81102 - PM10'
p4691
ssS'6909'
p4692
(dp4693
g32
(lp4694
S'81104 - PM2.5_._6909'
p4695
asg1216
g7
((ltRp4696
sg1218
S'81104 - PM2.5'
p4697
ssS'6908'
p4698
(dp4699
g32
(lp4700
S'81102 - PM10_._6908'
p4701
asg1216
g7
((ltRp4702
sg1218
S'81102 - PM10'
p4703
ssS'6518'
p4704
(dp4705
g32
(lp4706
S'45109 - m,p-C6H4(CH3)2_._6518'
p4707
asg1216
g7
((ltRp4708
sg1218
S'45109 - m,p-C6H4(CH3)2'
p4709
ssS'6519'
p4710
(dp4711
g32
(lp4712
g1109
asg1216
g7
((lp4713
S'BETB006'
p4714
atRp4715
sg1218
S'45201 - C6H6'
p4716
ssS'6514'
p4717
(dp4718
g32
(lp4719
g1110
asg1216
g7
((lp4720
S'BETB006'
p4721
atRp4722
sg1218
S'42101 - CO'
p4723
ssS'6515'
p4724
(dp4725
g32
(lp4726
g1111
asg1216
g7
((lp4727
S'BETB006'
p4728
atRp4729
sg1218
S'42601 - NO'
p4730
ssS'6516'
p4731
(dp4732
g32
(lp4733
g1112
asg1216
g7
((lp4734
S'BETB006'
p4735
atRp4736
sg1218
S'42602 - NO2'
p4737
ssS'6517'
p4738
(dp4739
g32
(lp4740
g1113
asg1216
g7
((lp4741
S'BETB006'
p4742
atRp4743
sg1218
S'44201 - O3'
p4744
ssS'10602'
p4745
(dp4746
g32
(lp4747
g465
asg1216
g7
((lp4748
S'BETR701'
p4749
atRp4750
sg1218
S'16111 - Black Carbon'
p4751
ssS'10603'
p4752
(dp4753
g32
(lp4754
g500
asg1216
g7
((lp4755
S'BETR801'
p4756
atRp4757
sg1218
S'16111 - Black Carbon'
p4758
ssS'10600'
p4759
(dp4760
g32
(lp4761
g969
asg1216
g7
((lp4762
S'BETR831'
p4763
atRp4764
sg1218
S'81102 - PM10'
p4765
ssS'10601'
p4766
(dp4767
g32
(lp4768
g511
asg1216
g7
((lp4769
S'BETR802'
p4770
atRp4771
sg1218
S'42602 - NO2'
p4772
ssS'10606'
p4773
(dp4774
g32
(lp4775
g433
asg1216
g7
((lp4776
S'BETN029'
p4777
atRp4778
sg1218
S'16111 - Black Carbon'
p4779
ssS'10607'
p4780
(dp4781
g32
(lp4782
g377
asg1216
g7
((lp4783
S'BETR012'
p4784
atRp4785
sg1218
S'16111 - Black Carbon'
p4786
ssS'10604'
p4787
(dp4788
g32
(lp4789
g512
asg1216
g7
((lp4790
S'BETR802'
p4791
atRp4792
sg1218
S'16111 - Black Carbon'
p4793
ssS'10605'
p4794
(dp4795
g32
(lp4796
g61
asg1216
g7
((lp4797
S'BETR750'
p4798
atRp4799
sg1218
S'16111 - Black Carbon'
p4800
ssS'10608'
p4801
(dp4802
g32
(lp4803
g819
asg1216
g7
((lp4804
S'BETN045'
p4805
atRp4806
sg1218
S'16111 - Black Carbon'
p4807
ssS'10609'
p4808
(dp4809
g32
(lp4810
g157
asg1216
g7
((lp4811
S'BETN016'
p4812
atRp4813
sg1218
S'16111 - Black Carbon'
p4814
ssS'6301'
p4815
(dp4816
g32
(lp4817
g268
asg1216
g7
((lp4818
S'BELMN01'
p4819
atRp4820
sg1218
S'81102 - PM10'
p4821
ssS'99902'
p4822
(dp4823
g32
(lp4824
g434
asg1216
g7
((lp4825
S'BETN029'
p4826
atRp4827
sg1218
S'62101 - TT'
p4828
ssS'99903'
p4829
(dp4830
g32
(lp4831
g732
asg1216
g7
((lp4832
S'BETM705'
p4833
atRp4834
sg1218
S'61102 - DD'
p4835
ssS'99901'
p4836
(dp4837
g32
(lp4838
g435
asg1216
g7
((lp4839
S'BETN029'
p4840
atRp4841
sg1218
S'61110 - WSP-SCA'
p4842
ssS'99906'
p4843
(dp4844
g32
(lp4845
g466
asg1216
g7
((lp4846
S'BETR701'
p4847
atRp4848
sg1218
S'61102 - DD'
p4849
ssS'7159'
p4850
(dp4851
g32
(lp4852
g94
asg1216
g7
((lp4853
S'BETR512'
p4854
atRp4855
sg1218
S'42601 - NO'
p4856
ssS'7158'
p4857
(dp4858
g32
(lp4859
g95
asg1216
g7
((lp4860
S'BETR512'
p4861
atRp4862
sg1218
S'42401 - SO2'
p4863
ssS'7104'
p4864
(dp4865
g32
(lp4866
g937
asg1216
g7
((lp4867
S'BETR731'
p4868
atRp4869
sg1218
S'42601 - NO'
p4870
ssS'99908'
p4871
(dp4872
g32
(lp4873
g467
asg1216
g7
((lp4874
S'BETR701'
p4875
atRp4876
sg1218
S'62101 - TT'
p4877
ssS'7105'
p4878
(dp4879
g32
(lp4880
g938
asg1216
g7
((lp4881
S'BETR731'
p4882
atRp4883
sg1218
S'42602 - NO2'
p4884
ssS'6832'
p4885
(dp4886
g32
(lp4887
g970
asg1216
g7
((lp4888
S'BETR831'
p4889
atRp4890
sg1218
S'44201 - O3'
p4891
ssS'6830'
p4892
(dp4893
g32
(lp4894
g971
asg1216
g7
((lp4895
S'BETR831'
p4896
atRp4897
sg1218
S'42602 - NO2'
p4898
ssS'7109'
p4899
(dp4900
g32
(lp4901
g405
asg1216
g7
((lp4902
S'BETR740'
p4903
atRp4904
sg1218
S'42401 - SO2'
p4905
ssS'7016'
p4906
(dp4907
g32
(lp4908
g695
asg1216
g7
((lp4909
S'BETR240'
p4910
atRp4911
sg1218
S'42601 - NO'
p4912
ssS'6609'
p4913
(dp4914
g32
(lp4915
g552
asg1216
g7
((lp4916
S'BETR002'
p4917
atRp4918
sg1218
S'16111 - Black Carbon'
p4919
ssS'7014'
p4920
(dp4921
g32
(lp4922
g696
asg1216
g7
((lp4923
S'BETR240'
p4924
atRp4925
sg1218
S'42401 - SO2'
p4926
ssS'7010'
p4927
(dp4928
g32
(lp4929
S'89101 - PM1_._7010'
p4930
asg1216
g7
((ltRp4931
sg1218
S'89101 - PM1'
p4932
ssS'6769'
p4933
(dp4934
g32
(lp4935
g868
asg1216
g7
((lp4936
S'BETR020'
p4937
atRp4938
sg1218
S'42602 - NO2'
p4939
ssS'6768'
p4940
(dp4941
g32
(lp4942
g869
asg1216
g7
((lp4943
S'BETR020'
p4944
atRp4945
sg1218
S'42601 - NO'
p4946
ssS'6767'
p4947
(dp4948
g32
(lp4949
g870
asg1216
g7
((lp4950
S'BETR020'
p4951
atRp4952
sg1218
S'42401 - SO2'
p4953
ssS'6766'
p4954
(dp4955
g32
(lp4956
g871
asg1216
g7
((lp4957
S'BETR020'
p4958
atRp4959
sg1218
S'42101 - CO'
p4960
ssS'7162'
p4961
(dp4962
g32
(lp4963
g96
asg1216
g7
((lp4964
S'BETR512'
p4965
atRp4966
sg1218
S'81102 - PM10'
p4967
ssS'6887'
p4968
(dp4969
g32
(lp4970
g1076
asg1216
g7
((lp4971
S'BETN060'
p4972
atRp4973
sg1218
S'42101 - CO'
p4974
ssS'6884'
p4975
(dp4976
g32
(lp4977
g176
asg1216
g7
((lp4978
S'BETM204'
p4979
atRp4980
sg1218
S'81104 - PM2.5'
p4981
ssS'6885'
p4982
(dp4983
g32
(lp4984
S'89101 - PM1_._6885'
p4985
asg1216
g7
((ltRp4986
sg1218
S'89101 - PM1'
p4987
ssS'6883'
p4988
(dp4989
g32
(lp4990
g177
asg1216
g7
((lp4991
S'BETM204'
p4992
atRp4993
sg1218
S'81102 - PM10'
p4994
ssS'6880'
p4995
(dp4996
g32
(lp4997
g185
asg1216
g7
((lp4998
S'BETH201'
p4999
atRp5000
sg1218
S'81102 - PM10'
p5001
ssS'6881'
p5002
(dp5003
g32
(lp5004
g186
asg1216
g7
((lp5005
S'BETH201'
p5006
atRp5007
sg1218
S'81104 - PM2.5'
p5008
ssS'6888'
p5009
(dp5010
g32
(lp5011
g1077
asg1216
g7
((lp5012
S'BETN060'
p5013
atRp5014
sg1218
S'42401 - SO2'
p5015
ssS'6889'
p5016
(dp5017
g32
(lp5018
g1078
asg1216
g7
((lp5019
S'BETN060'
p5020
atRp5021
sg1218
S'42601 - NO'
p5022
ssS'7081'
p5023
(dp5024
g32
(lp5025
S'45202 - C6H5-CH3_._7081'
p5026
asg1216
g7
((ltRp5027
sg1218
S'45202 - C6H5-CH3'
p5028
ssS'7080'
p5029
(dp5030
g32
(lp5031
g468
asg1216
g7
((lp5032
S'BETR701'
p5033
atRp5034
sg1218
S'45201 - C6H6'
p5035
ssS'7083'
p5036
(dp5037
g32
(lp5038
S'45204 - o-C6H4-(CH3)2_._7083'
p5039
asg1216
g7
((ltRp5040
sg1218
S'45204 - o-C6H4-(CH3)2'
p5041
ssS'7082'
p5042
(dp5043
g32
(lp5044
S'45203 - C6H5-C2H5_._7082'
p5045
asg1216
g7
((ltRp5046
sg1218
S'45203 - C6H5-C2H5'
p5047
ssS'7087'
p5048
(dp5049
g32
(lp5050
g469
asg1216
g7
((lp5051
S'BETR701'
p5052
atRp5053
sg1218
S'81104 - PM2.5'
p5054
ssS'7086'
p5055
(dp5056
g32
(lp5057
g470
asg1216
g7
((lp5058
S'BETR701'
p5059
atRp5060
sg1218
S'81102 - PM10'
p5061
ssS'7089'
p5062
(dp5063
g32
(lp5064
g675
asg1216
g7
((lp5065
S'BETR710'
p5066
atRp5067
sg1218
S'42601 - NO'
p5068
ssS'7163'
p5069
(dp5070
g32
(lp5071
g97
asg1216
g7
((lp5072
S'BETR512'
p5073
atRp5074
sg1218
S'81104 - PM2.5'
p5075
ssS'7160'
p5076
(dp5077
g32
(lp5078
g98
asg1216
g7
((lp5079
S'BETR512'
p5080
atRp5081
sg1218
S'42602 - NO2'
p5082
ssS'99934'
p5083
(dp5084
g32
(lp5085
S'61110 - WSP-SCA_._99934'
p5086
asg1216
g7
((ltRp5087
sg1218
S'61110 - WSP-SCA'
p5088
ssS'99933'
p5089
(dp5090
g32
(lp5091
S'61102 - DD_._99933'
p5092
asg1216
g7
((ltRp5093
sg1218
S'61102 - DD'
p5094
ssS'99932'
p5095
(dp5096
g32
(lp5097
g994
asg1216
g7
((lp5098
S'BETR221'
p5099
atRp5100
sg1218
S'62101 - TT'
p5101
ssS'7164'
p5102
(dp5103
g32
(lp5104
S'89101 - PM1_._7164'
p5105
asg1216
g7
((ltRp5106
sg1218
S'89101 - PM1'
p5107
ssS'99930'
p5108
(dp5109
g32
(lp5110
S'61102 - DD_._99930'
p5111
asg1216
g7
((ltRp5112
sg1218
S'61102 - DD'
p5113
ssS'99914'
p5114
(dp5115
g32
(lp5116
g903
asg1216
g7
((lp5117
S'BETB011'
p5118
atRp5119
sg1218
S'62101 - TT'
p5120
ssS'6693'
p5121
(dp5122
g32
(lp5123
g484
asg1216
g7
((lp5124
S'BETM802'
p5125
atRp5126
sg1218
S'81102 - PM10'
p5127
ssS'7034'
p5128
(dp5129
g32
(lp5130
g733
asg1216
g7
((lp5131
S'BETM705'
p5132
atRp5133
sg1218
S'81102 - PM10'
p5134
ssS'6690'
p5135
(dp5136
g32
(lp5137
g485
asg1216
g7
((lp5138
S'BETM802'
p5139
atRp5140
sg1218
S'42602 - NO2'
p5141
ssS'6490'
p5142
(dp5143
g32
(lp5144
S'45204 - o-C6H4-(CH3)2_._6490'
p5145
asg1216
g7
((ltRp5146
sg1218
S'45204 - o-C6H4-(CH3)2'
p5147
ssS'6949'
p5148
(dp5149
g32
(lp5150
g606
asg1216
g7
((lp5151
S'BETN100'
p5152
atRp5153
sg1218
S'44201 - O3'
p5154
ssS'6948'
p5155
(dp5156
g32
(lp5157
g607
asg1216
g7
((lp5158
S'BETN100'
p5159
atRp5160
sg1218
S'42602 - NO2'
p5161
ssS'7130'
p5162
(dp5163
g32
(lp5164
g1145
asg1216
g7
((lp5165
S'BETR501'
p5166
atRp5167
sg1218
S'42401 - SO2'
p5168
ssS'6943'
p5169
(dp5170
g32
(lp5171
g123
asg1216
g7
((lp5172
S'BETN093'
p5173
atRp5174
sg1218
S'81102 - PM10'
p5175
ssS'6942'
p5176
(dp5177
g32
(lp5178
g124
asg1216
g7
((lp5179
S'BETN093'
p5180
atRp5181
sg1218
S'44201 - O3'
p5182
ssS'6941'
p5183
(dp5184
g32
(lp5185
g125
asg1216
g7
((lp5186
S'BETN093'
p5187
atRp5188
sg1218
S'42602 - NO2'
p5189
ssS'6940'
p5190
(dp5191
g32
(lp5192
g126
asg1216
g7
((lp5193
S'BETN093'
p5194
atRp5195
sg1218
S'42601 - NO'
p5196
ssS'6947'
p5197
(dp5198
g32
(lp5199
g608
asg1216
g7
((lp5200
S'BETN100'
p5201
atRp5202
sg1218
S'42601 - NO'
p5203
ssS'6946'
p5204
(dp5205
g32
(lp5206
g609
asg1216
g7
((lp5207
S'BETN100'
p5208
atRp5209
sg1218
S'42401 - SO2'
p5210
ssS'6945'
p5211
(dp5212
g32
(lp5213
S'89101 - PM1_._6945'
p5214
asg1216
g7
((ltRp5215
sg1218
S'89101 - PM1'
p5216
ssS'6944'
p5217
(dp5218
g32
(lp5219
g127
asg1216
g7
((lp5220
S'BETN093'
p5221
atRp5222
sg1218
S'81104 - PM2.5'
p5223
ssS'6343'
p5224
(dp5225
g32
(lp5226
g1192
asg1216
g7
((lp5227
S'BELSZ01'
p5228
atRp5229
sg1218
S'16111 - Black Carbon'
p5230
ssS'7132'
p5231
(dp5232
g32
(lp5233
g1146
asg1216
g7
((lp5234
S'BETR501'
p5235
atRp5236
sg1218
S'42602 - NO2'
p5237
ssS'6347'
p5238
(dp5239
g32
(lp5240
g1193
asg1216
g7
((lp5241
S'BELSZ01'
p5242
atRp5243
sg1218
S'42601 - NO'
p5244
ssS'6348'
p5245
(dp5246
g32
(lp5247
g1194
asg1216
g7
((lp5248
S'BELSZ01'
p5249
atRp5250
sg1218
S'42602 - NO2'
p5251
ssS'6337'
p5252
(dp5253
g32
(lp5254
S'81104 - PM2.5_._6337'
p5255
asg1216
g7
((ltRp5256
sg1218
S'81104 - PM2.5'
p5257
ssS'7234'
p5258
(dp5259
g32
(lp5260
g682
asg1216
g7
((lp5261
S'BETE812'
p5262
atRp5263
sg1218
S'42602 - NO2'
p5264
ssS'7232'
p5265
(dp5266
g32
(lp5267
g683
asg1216
g7
((lp5268
S'BETE812'
p5269
atRp5270
sg1218
S'42401 - SO2'
p5271
ssS'7233'
p5272
(dp5273
g32
(lp5274
g684
asg1216
g7
((lp5275
S'BETE812'
p5276
atRp5277
sg1218
S'42601 - NO'
p5278
ssS'7230'
p5279
(dp5280
g32
(lp5281
g1121
asg1216
g7
((lp5282
S'BETE811'
p5283
atRp5284
sg1218
S'42601 - NO'
p5285
ssS'7231'
p5286
(dp5287
g32
(lp5288
g1122
asg1216
g7
((lp5289
S'BETE811'
p5290
atRp5291
sg1218
S'42602 - NO2'
p5292
ssS'6958'
p5293
(dp5294
g32
(lp5295
g766
asg1216
g7
((lp5296
S'BETN113'
p5297
atRp5298
sg1218
S'81104 - PM2.5'
p5299
ssS'7008'
p5300
(dp5301
g32
(lp5302
g1020
asg1216
g7
((lp5303
S'BETR223'
p5304
atRp5305
sg1218
S'81102 - PM10'
p5306
ssS'6549'
p5307
(dp5308
g32
(lp5309
g777
asg1216
g7
((lp5310
S'BETMEU1'
p5311
atRp5312
sg1218
S'42401 - SO2'
p5313
ssS'6548'
p5314
(dp5315
g32
(lp5316
g778
asg1216
g7
((lp5317
S'BETMEU1'
p5318
atRp5319
sg1218
S'42242 - Hg'
p5320
ssS'6334'
p5321
(dp5322
g32
(lp5323
g394
asg1216
g7
((lp5324
S'BELRL01'
p5325
atRp5326
sg1218
S'81102 - PM10'
p5327
ssS'6335'
p5328
(dp5329
g32
(lp5330
S'16111 - Black Carbon_._6335'
p5331
asg1216
g7
((ltRp5332
sg1218
S'16111 - Black Carbon'
p5333
ssS'6489'
p5334
(dp5335
g32
(lp5336
S'45203 - C6H5-C2H5_._6489'
p5337
asg1216
g7
((ltRp5338
sg1218
S'45203 - C6H5-C2H5'
p5339
sssS'accesConstraints'
p5340
S'http://creativecommons.org/licenses/by-nc-nd/3.0/'
p5341
sb.