(isosRequests
SOS
p1
(dp2
S'accessConstraints'
p3
S''
sS'name'
p4
S'SOS of IRCEL - CELINE'
p5
sS'url'
p6
S'http://sos.irceline.be/sos?'
p7
sS'responseFormat'
p8
c__builtin__
set
p9
((lp10
S'application/zip'
p11
aS'http://www.opengis.net/om/2.0'
p12
atRp13
sS'organisation'
p14
S'IRCEL - CELINE'
p15
sS'minTime'
p16
S'2011-01-01T02:00:00+01:00'
p17
sS'costs'
p18
S'NONE'
p19
sS'version'
p20
g9
((lp21
S'1.0.0'
p22
aS'2.0.0'
p23
atRp24
sS'error'
p25
I00
sS'featureofinterest'
p26
(dp27
S'BETR841'
p28
(dp29
S'coords'
p30
(lp31
S'157059.0 188039.0'
p32
aS'http://www.opengis.net/def/crs/EPSG/0/31370'
p33
assS'BELSA04'
p34
(dp35
g30
(lp36
S'152448.0 222679.0'
p37
aS'http://www.opengis.net/def/crs/EPSG/0/31370'
p38
assS'BETR750'
p39
(dp40
g30
(lp41
S'111845.0 209705.0'
p42
aS'http://www.opengis.net/def/crs/EPSG/0/31370'
p43
assS'BETE715'
p44
(dp45
g30
(lp46
S'66645.0 215775.0'
p47
aS'http://www.opengis.net/def/crs/EPSG/0/31370'
p48
assS'BETE714'
p49
(dp50
g30
(lp51
S'71842.0 219377.0'
p52
aS'http://www.opengis.net/def/crs/EPSG/0/31370'
p53
assS'BETE716'
p54
(dp55
g30
(lp56
S'101919.0 195427.0'
p57
aS'http://www.opengis.net/def/crs/EPSG/0/31370'
p58
assS'BETR512'
p59
(dp60
g30
(lp61
S'151930.0 121880.0'
p62
aS'http://www.opengis.net/def/crs/EPSG/0/31370'
p63
assS'BETR510'
p64
(dp65
g30
(lp66
S'160830.0 122850.0'
p67
aS'http://www.opengis.net/def/crs/EPSG/0/31370'
p68
assS'BETR511'
p69
(dp70
g30
(lp71
S'153980.0 118520.0'
p72
aS'http://www.opengis.net/def/crs/EPSG/0/31370'
p73
assS'BETN093'
p74
(dp75
g30
(lp76
S'211760.0 107410.0'
p77
aS'http://www.opengis.net/def/crs/EPSG/0/31370'
p78
assS'BELAB02'
p79
(dp80
g30
(lp81
S'146729.0 225661.0'
p82
aS'http://www.opengis.net/def/crs/EPSG/0/31370'
p83
assS'BELAB01'
p84
(dp85
g30
(lp86
S'147285.0 219017.0'
p87
aS'http://www.opengis.net/def/crs/EPSG/0/31370'
p88
assS'BETN016'
p89
(dp90
g30
(lp91
S'205542.0 214045.0'
p92
aS'http://www.opengis.net/def/crs/EPSG/0/31370'
p93
assS'BETN012'
p94
(dp95
g30
(lp96
S'79753.0 216550.0'
p97
aS'http://www.opengis.net/def/crs/EPSG/0/31370'
p98
assS'BETM204'
p99
(dp100
g30
(lp101
S'237930.0 145320.0'
p102
aS'http://www.opengis.net/def/crs/EPSG/0/31370'
p103
assS'BETH201'
p104
(dp105
g30
(lp106
S'233400.0 146700.0'
p107
aS'http://www.opengis.net/def/crs/EPSG/0/31370'
p108
assS'BELTS07'
p109
(dp110
sS'BETR721'
p111
(dp112
g30
(lp113
S'104275.0 197850.0'
p114
aS'http://www.opengis.net/def/crs/EPSG/0/31370'
p115
assS'BELGK09'
p116
(dp117
g30
(lp118
S'229010.0 181080.0'
p119
aS'http://www.opengis.net/def/crs/EPSG/0/31370'
p120
assS'BETN085'
p121
(dp122
g30
(lp123
S'266325.0 111525.0'
p124
aS'http://www.opengis.net/def/crs/EPSG/0/31370'
p125
assS'BELGK06'
p126
(dp127
g30
(lp128
S'227463.0 180307.0'
p129
aS'http://www.opengis.net/def/crs/EPSG/0/31370'
p130
assS'BETE702'
p131
(dp132
g30
(lp133
S'91013.0 167394.0'
p134
aS'http://www.opengis.net/def/crs/EPSG/0/31370'
p135
assS'BETE703'
p136
(dp137
g30
(lp138
S'102359.0 209144.0'
p139
aS'http://www.opengis.net/def/crs/EPSG/0/31370'
p140
assS'BETTS21'
p141
(dp142
g30
(lp143
S'201786.0 195321.0'
p144
aS'http://www.opengis.net/def/crs/EPSG/0/31370'
p145
assS'BELMN01'
p146
(dp147
g30
(lp148
S'61230.0 165530.0'
p149
aS'http://www.opengis.net/def/crs/EPSG/0/31370'
p150
assS'BELTS12'
p151
(dp152
sS'BETWOL1'
p153
(dp154
g30
(lp155
S'154010.0 171800.0'
p156
aS'http://www.opengis.net/def/crs/EPSG/0/31370'
p157
assS'BETWOL2'
p158
(dp159
sS'BETN121'
p160
(dp161
g30
(lp162
S'209920.0 63190.0'
p163
aS'http://www.opengis.net/def/crs/EPSG/0/31370'
p164
assS'BELWZ01'
p165
(dp166
sS'BELWZ02'
p167
(dp168
g30
(lp169
S'209614.0 209545.0'
p170
aS'http://www.opengis.net/def/crs/EPSG/0/31370'
p171
assS'BELBE06'
p172
(dp173
sS'BETN035'
p174
(dp175
g30
(lp176
S'182928.0 185359.0'
p177
aS'http://www.opengis.net/def/crs/EPSG/0/31370'
p178
assS'BETR811'
p179
(dp180
g30
(lp181
S'158560.0 215807.0'
p182
aS'http://www.opengis.net/def/crs/EPSG/0/31370'
p183
assS'BELZL01'
p184
(dp185
g30
(lp186
S'110836.0 210500.0'
p187
aS'http://www.opengis.net/def/crs/EPSG/0/31370'
p188
assS'BETR815'
p189
(dp190
g30
(lp191
S'147446.0 211639.0'
p192
aS'http://www.opengis.net/def/crs/EPSG/0/31370'
p193
assS'BETR012'
p194
(dp195
g30
(lp196
S'149280.0 165130.0'
p197
aS'http://www.opengis.net/def/crs/EPSG/0/31370'
p198
assS'BETR010'
p199
(dp200
g30
(lp201
S'154201.0 172749.0'
p202
aS'http://www.opengis.net/def/crs/EPSG/0/31370'
p203
assS'BELRL01'
p204
(dp205
g30
(lp206
S'62340.0 183280.0'
p207
aS'http://www.opengis.net/def/crs/EPSG/0/31370'
p208
assS'BETR740'
p209
(dp210
g30
(lp211
S'110815.0 204603.0'
p212
aS'http://www.opengis.net/def/crs/EPSG/0/31370'
p213
assS'BETN132'
p214
(dp215
g30
(lp216
S'240980.0 46070.0'
p217
aS'http://www.opengis.net/def/crs/EPSG/0/31370'
p218
assS'BETN029'
p219
(dp220
g30
(lp221
S'24655.0 191071.0'
p222
aS'http://www.opengis.net/def/crs/EPSG/0/31370'
p223
assS'BETN027'
p224
(dp225
g30
(lp226
S'236644.0 203352.0'
p227
aS'http://www.opengis.net/def/crs/EPSG/0/31370'
p228
assS'BETM702'
p229
(dp230
g30
(lp231
S'107569.0 206396.0'
p232
aS'http://www.opengis.net/def/crs/EPSG/0/31370'
p233
assS'BETR701'
p234
(dp235
g30
(lp236
S'105169.0 194435.0'
p237
aS'http://www.opengis.net/def/crs/EPSG/0/31370'
p238
assS'BETM802'
p239
(dp240
g30
(lp241
S'153884.0 216790.0'
p242
aS'http://www.opengis.net/def/crs/EPSG/0/31370'
p243
assS'BETR801'
p244
(dp245
g30
(lp246
S'154407.0 211080.0'
p247
aS'http://www.opengis.net/def/crs/EPSG/0/31370'
p248
assS'BETR802'
p249
(dp250
g30
(lp251
S'154405.0 211064.0'
p252
aS'http://www.opengis.net/def/crs/EPSG/0/31370'
p253
assS'BETR001'
p254
(dp255
g30
(lp256
S'147540.0 171030.0'
p257
aS'http://www.opengis.net/def/crs/EPSG/0/31370'
p258
assS'BETR002'
p259
(dp260
g30
(lp261
S'151125.0 168300.0'
p262
aS'http://www.opengis.net/def/crs/EPSG/0/31370'
p263
assS'BETR893'
p264
(dp265
g30
(lp266
S'151187.0 219057.0'
p267
aS'http://www.opengis.net/def/crs/EPSG/0/31370'
p268
assS'BETR892'
p269
(dp270
g30
(lp271
S'143727.0 217020.0'
p272
aS'http://www.opengis.net/def/crs/EPSG/0/31370'
p273
assS'BETR891'
p274
(dp275
g30
(lp276
S'151159.0 216212.0'
p277
aS'http://www.opengis.net/def/crs/EPSG/0/31370'
p278
assS'BETR897'
p279
(dp280
g30
(lp281
S'148139.0 215578.0'
p282
aS'http://www.opengis.net/def/crs/EPSG/0/31370'
p283
assS'BETR894'
p284
(dp285
g30
(lp286
S'148656.0 219293.0'
p287
aS'http://www.opengis.net/def/crs/EPSG/0/31370'
p288
assS'BETN100'
p289
(dp290
g30
(lp291
S'166172.0 87187.0'
p292
aS'http://www.opengis.net/def/crs/EPSG/0/31370'
p293
assS'BELAL01'
p294
(dp295
g30
(lp296
S'151150.0 214030.0'
p297
aS'http://www.opengis.net/def/crs/EPSG/0/31370'
p298
assS'BETE808'
p299
(dp300
sS'BELAL03'
p301
(dp302
g30
(lp303
S'138320.0 216020.0'
p304
aS'http://www.opengis.net/def/crs/EPSG/0/31370'
p305
assS'BELAL02'
p306
(dp307
g30
(lp308
S'140660.0 221640.0'
p309
aS'http://www.opengis.net/def/crs/EPSG/0/31370'
p310
assS'BELAL05'
p311
(dp312
g30
(lp313
S'143727.0 217029.0'
p314
aS'http://www.opengis.net/def/crs/EPSG/0/31370'
p315
assS'BELAL04'
p316
(dp317
sS'BETN052'
p318
(dp319
g30
(lp320
S'76269.0 167678.0'
p321
aS'http://www.opengis.net/def/crs/EPSG/0/31370'
p322
assS'BETN051'
p323
(dp324
g30
(lp325
S'119090.0 165475.0'
p326
aS'http://www.opengis.net/def/crs/EPSG/0/31370'
p327
assS'BETR710'
p328
(dp329
g30
(lp330
S'108394.0 194736.0'
p331
aS'http://www.opengis.net/def/crs/EPSG/0/31370'
p332
assS'BETE812'
p333
(dp334
g30
(lp335
S'232111.0 184838.0'
p336
aS'http://www.opengis.net/def/crs/EPSG/0/31370'
p337
assS'BETR240'
p338
(dp339
g30
(lp340
S'222850.0 141940.0'
p341
aS'http://www.opengis.net/def/crs/EPSG/0/31370'
p342
assS'BETN054'
p343
(dp344
g30
(lp345
S'201869.0 155940.0'
p346
aS'http://www.opengis.net/def/crs/EPSG/0/31370'
p347
assS'BELHB23'
p348
(dp349
g30
(lp350
S'148059.0 206699.0'
p351
aS'http://www.opengis.net/def/crs/EPSG/0/31370'
p352
assS'BETM705'
p353
(dp354
g30
(lp355
S'64521.0 182374.0'
p356
aS'http://www.opengis.net/def/crs/EPSG/0/31370'
p357
assS'BELOB01'
p358
(dp359
g30
(lp360
S'75367.0 179078.0'
p361
aS'http://www.opengis.net/def/crs/EPSG/0/31370'
p362
assS'BETB004'
p363
(dp364
g30
(lp365
S'148580.0 171157.0'
p366
aS'http://www.opengis.net/def/crs/EPSG/0/31370'
p367
assS'BETE810'
p368
(dp369
sS'BETN113'
p370
(dp371
g30
(lp372
S'237720.0 80250.0'
p373
aS'http://www.opengis.net/def/crs/EPSG/0/31370'
p374
assS'BETMEU1'
p375
(dp376
g30
(lp377
S'151686.0 176084.0'
p378
aS'http://www.opengis.net/def/crs/EPSG/0/31370'
p379
assS'BETGK11'
p380
(dp381
sS'BETN040'
p382
(dp383
g30
(lp384
S'139873.0 161970.0'
p385
aS'http://www.opengis.net/def/crs/EPSG/0/31370'
p386
assS'BETN041'
p387
(dp388
sS'BETN043'
p389
(dp390
g30
(lp391
S'151000.0 174800.0'
p392
aS'http://www.opengis.net/def/crs/EPSG/0/31370'
p393
assS'BETN045'
p394
(dp395
g30
(lp396
S'220258.0 181520.0'
p397
aS'http://www.opengis.net/def/crs/EPSG/0/31370'
p398
assS'BETN046'
p399
(dp400
g30
(lp401
S'237970.0 175401.0'
p402
aS'http://www.opengis.net/def/crs/EPSG/0/31370'
p403
assS'BELR801'
p404
(dp405
g30
(lp406
S'154407.0 211080.0'
p407
aS'http://www.opengis.net/def/crs/EPSG/0/31370'
p408
assS'BETE007'
p409
(dp410
g30
(lp411
S'141813.0 164988.0'
p412
aS'http://www.opengis.net/def/crs/EPSG/0/31370'
p413
assS'BETE009'
p414
(dp415
g30
(lp416
S'154684.0 182740.0'
p417
aS'http://www.opengis.net/def/crs/EPSG/0/31370'
p418
assS'BETE008'
p419
(dp420
g30
(lp421
S'151910.0 179532.0'
p422
aS'http://www.opengis.net/def/crs/EPSG/0/31370'
p423
assS'BETR020'
p424
(dp425
g30
(lp426
S'154777.0 181235.0'
p427
aS'http://www.opengis.net/def/crs/EPSG/0/31370'
p428
assS'BETR502'
p429
(dp430
g30
(lp431
S'156390.0 124240.0'
p432
aS'http://www.opengis.net/def/crs/EPSG/0/31370'
p433
assS'BELLD02'
p434
(dp435
g30
(lp436
S'195705.0 201347.0'
p437
aS'http://www.opengis.net/def/crs/EPSG/0/31370'
p438
assS'BETB011'
p439
(dp440
g30
(lp441
S'144338.0 171963.0'
p442
aS'http://www.opengis.net/def/crs/EPSG/0/31370'
p443
assS'BETN070'
p444
(dp445
g30
(lp446
S'119540.0 128350.0'
p447
aS'http://www.opengis.net/def/crs/EPSG/0/31370'
p448
assS'BETN073'
p449
(dp450
g30
(lp451
S'193960.0 132620.0'
p452
aS'http://www.opengis.net/def/crs/EPSG/0/31370'
p453
assS'BETR731'
p454
(dp455
g30
(lp456
S'105947.0 201811.0'
p457
aS'http://www.opengis.net/def/crs/EPSG/0/31370'
p458
assS'BETE809'
p459
(dp460
sS'BETR834'
p461
(dp462
g30
(lp463
S'150795.0 197988.0'
p464
aS'http://www.opengis.net/def/crs/EPSG/0/31370'
p465
assS'BELLD01'
p466
(dp467
g30
(lp468
S'194547.0 200179.0'
p469
aS'http://www.opengis.net/def/crs/EPSG/0/31370'
p470
assS'BETR831'
p471
(dp472
g30
(lp473
S'147976.0 226558.0'
p474
aS'http://www.opengis.net/def/crs/EPSG/0/31370'
p475
assS'BETR830'
p476
(dp477
g30
(lp478
S'142601.0 223162.0'
p479
aS'http://www.opengis.net/def/crs/EPSG/0/31370'
p480
assS'BETR221'
p481
(dp482
g30
(lp483
S'239023.0 150514.0'
p484
aS'http://www.opengis.net/def/crs/EPSG/0/31370'
p485
assS'BETR222'
p486
(dp487
g30
(lp488
S'235031.0 145438.0'
p489
aS'http://www.opengis.net/def/crs/EPSG/0/31370'
p490
assS'BETR223'
p491
(dp492
g30
(lp493
S'231210.0 146185.0'
p494
aS'http://www.opengis.net/def/crs/EPSG/0/31370'
p495
assS'BETE805'
p496
(dp497
sS'BETE804'
p498
(dp499
g30
(lp500
S'145702.0 219060.0'
p501
aS'http://www.opengis.net/def/crs/EPSG/0/31370'
p502
assS'BETE807'
p503
(dp504
sS'BETE806'
p505
(dp506
sS'BELR833'
p507
(dp508
g30
(lp509
S'149547.0 224206.0'
p510
aS'http://www.opengis.net/def/crs/EPSG/0/31370'
p511
assS'BETE013'
p512
(dp513
g30
(lp514
S'147155.0 166807.0'
p515
aS'http://www.opengis.net/def/crs/EPSG/0/31370'
p516
assS'BETN063'
p517
(dp518
g30
(lp519
S'171181.0 149467.0'
p520
aS'http://www.opengis.net/def/crs/EPSG/0/31370'
p521
assS'BETN060'
p522
(dp523
g30
(lp524
S'85521.0 145512.0'
p525
aS'http://www.opengis.net/def/crs/EPSG/0/31370'
p526
assS'BETB003'
p527
(dp528
sS'BETN066'
p529
(dp530
g30
(lp531
S'265570.0 147740.0'
p532
aS'http://www.opengis.net/def/crs/EPSG/0/31370'
p533
assS'BETN067'
p534
(dp535
g30
(lp536
S'264933.0 145881.0'
p537
aS'http://www.opengis.net/def/crs/EPSG/0/31370'
p538
assS'BETB006'
p539
(dp540
g30
(lp541
S'150397.0 169802.0'
p542
aS'http://www.opengis.net/def/crs/EPSG/0/31370'
p543
assS'BETE811'
p544
(dp545
g30
(lp546
S'223827.0 176810.0'
p547
aS'http://www.opengis.net/def/crs/EPSG/0/31370'
p548
assS'BETB008'
p549
(dp550
g30
(lp551
S'150521.0 170042.0'
p552
aS'http://www.opengis.net/def/crs/EPSG/0/31370'
p553
assS'BELTS20'
p554
(dp555
sS'BETR501'
p556
(dp557
g30
(lp558
S'155930.0 122050.0'
p559
aS'http://www.opengis.net/def/crs/EPSG/0/31370'
p560
assS'BETR702'
p561
(dp562
g30
(lp563
S'105550.0 192469.0'
p564
aS'http://www.opengis.net/def/crs/EPSG/0/31370'
p565
assS'BETR822'
p566
(dp567
g30
(lp568
S'148082.0 217156.0'
p569
aS'http://www.opengis.net/def/crs/EPSG/0/31370'
p570
assS'BETR820'
p571
(dp572
g30
(lp573
S'155302.0 223403.0'
p574
aS'http://www.opengis.net/def/crs/EPSG/0/31370'
p575
assS'BETR821'
p576
(dp577
g30
(lp578
S'141724.0 211734.0'
p579
aS'http://www.opengis.net/def/crs/EPSG/0/31370'
p580
assS'BELSZ01'
p581
(dp582
g30
(lp583
S'159524.0 178259.0'
p584
aS'http://www.opengis.net/def/crs/EPSG/0/31370'
p585
assS'BELSZ02'
p586
(dp587
g30
(lp588
S'160087.0 178087.0'
p589
aS'http://www.opengis.net/def/crs/EPSG/0/31370'
p590
assS'BELML01'
p591
(dp592
ssS'procedure'
p593
(dp594
S'6723'
p595
(dp596
S'offerings'
p597
(lp598
S'42101 - CO_._6723'
p599
asS'FOI'
p600
g9
((ltRp601
sS'obsProperty'
p602
S'42101 - CO'
p603
ssS'6722'
p604
(dp605
g597
(lp606
S'44201 - O3_._6722'
p607
asg600
g9
((ltRp608
sg602
S'44201 - O3'
p609
ssS'6726'
p610
(dp611
g597
(lp612
S'42602 - NO2_._6726'
p613
asg600
g9
((lp614
S'BETN045'
p615
atRp616
sg602
S'42602 - NO2'
p617
ssS'6725'
p618
(dp619
g597
(lp620
S'42601 - NO_._6725'
p621
asg600
g9
((lp622
S'BETN045'
p623
atRp624
sg602
S'42601 - NO'
p625
ssS'6724'
p626
(dp627
g597
(lp628
S'42401 - SO2_._6724'
p629
asg600
g9
((lp630
S'BETN045'
p631
atRp632
sg602
S'42401 - SO2'
p633
ssS'6842'
p634
(dp635
g597
(lp636
S'45201 - C6H6_._6842'
p637
asg600
g9
((lp638
S'BELR833'
p639
atRp640
sg602
S'45201 - C6H6'
p641
ssS'7003'
p642
(dp643
g597
(lp644
S'42101 - CO_._7003'
p645
asg600
g9
((lp646
S'BETR223'
p647
atRp648
sg602
S'42101 - CO'
p649
ssS'6954'
p650
(dp651
g597
(lp652
S'42601 - NO_._6954'
p653
asg600
g9
((lp654
S'BETN113'
p655
atRp656
sg602
S'42601 - NO'
p657
ssS'6955'
p658
(dp659
g597
(lp660
S'42602 - NO2_._6955'
p661
asg600
g9
((lp662
S'BETN113'
p663
atRp664
sg602
S'42602 - NO2'
p665
ssS'99904'
p666
(dp667
g597
(lp668
S'61110 - WSP-SCA_._99904'
p669
asg600
g9
((lp670
S'BETM705'
p671
atRp672
sg602
S'61110 - WSP-SCA'
p673
ssS'7045'
p674
(dp675
g597
(lp676
S'42401 - SO2_._7045'
p677
asg600
g9
((lp678
S'BETN029'
p679
atRp680
sg602
S'42401 - SO2'
p681
ssS'6151'
p682
(dp683
g597
(lp684
S'16111 - Black Carbon_._6151'
p685
asg600
g9
((lp686
S'BELAL01'
p687
atRp688
sg602
S'16111 - Black Carbon'
p689
ssS'6152'
p690
(dp691
g597
(lp692
S'81102 - PM10_._6152'
p693
asg600
g9
((lp694
S'BELAL01'
p695
atRp696
sg602
S'81102 - PM10'
p697
ssS'6153'
p698
(dp699
g597
(lp700
S'81102 - PM10_._6153'
p701
asg600
g9
((lp702
S'BELAL02'
p703
atRp704
sg602
S'81102 - PM10'
p705
ssS'6154'
p706
(dp707
g597
(lp708
S'81104 - PM2.5_._6154'
p709
asg600
g9
((ltRp710
sg602
S'81104 - PM2.5'
p711
ssS'6155'
p712
(dp713
g597
(lp714
S'81104 - PM2.5_._6155'
p715
asg600
g9
((lp716
S'BELAL03'
p717
atRp718
sg602
S'81104 - PM2.5'
p719
ssS'6156'
p720
(dp721
g597
(lp722
S'81104 - PM2.5_._6156'
p723
asg600
g9
((ltRp724
sg602
S'81104 - PM2.5'
p725
ssS'6157'
p726
(dp727
g597
(lp728
S'81102 - PM10_._6157'
p729
asg600
g9
((lp730
S'BELAL05'
p731
atRp732
sg602
S'81102 - PM10'
p733
ssS'6158'
p734
(dp735
g597
(lp736
S'81104 - PM2.5_._6158'
p737
asg600
g9
((ltRp738
sg602
S'81104 - PM2.5'
p739
ssS'6843'
p740
(dp741
g597
(lp742
S'45202 - C6H5-CH3_._6843'
p743
asg600
g9
((ltRp744
sg602
S'45202 - C6H5-CH3'
p745
ssS'6840'
p746
(dp747
g597
(lp748
S'16111 - Black Carbon_._6840'
p749
asg600
g9
((lp750
S'BELR833'
p751
atRp752
sg602
S'16111 - Black Carbon'
p753
ssS'6841'
p754
(dp755
g597
(lp756
S'45109 - m,p-C6H4(CH3)2_._6841'
p757
asg600
g9
((ltRp758
sg602
S'45109 - m,p-C6H4(CH3)2'
p759
ssS'7049'
p760
(dp761
g597
(lp762
S'45109 - m,p-C6H4(CH3)2_._7049'
p763
asg600
g9
((ltRp764
sg602
S'45109 - m,p-C6H4(CH3)2'
p765
ssS'7048'
p766
(dp767
g597
(lp768
S'44201 - O3_._7048'
p769
asg600
g9
((lp770
S'BETN029'
p771
atRp772
sg602
S'44201 - O3'
p773
ssS'6844'
p774
(dp775
g597
(lp776
S'45203 - C6H5-C2H5_._6844'
p777
asg600
g9
((ltRp778
sg602
S'45203 - C6H5-C2H5'
p779
ssS'6845'
p780
(dp781
g597
(lp782
S'45204 - o-C6H4-(CH3)2_._6845'
p783
asg600
g9
((ltRp784
sg602
S'45204 - o-C6H4-(CH3)2'
p785
ssS'6794'
p786
(dp787
g597
(lp788
S'81102 - PM10_._6794'
p789
asg600
g9
((lp790
S'BETR811'
p791
atRp792
sg602
S'81102 - PM10'
p793
ssS'6792'
p794
(dp795
g597
(lp796
S'42602 - NO2_._6792'
p797
asg600
g9
((lp798
S'BETR811'
p799
atRp800
sg602
S'42602 - NO2'
p801
ssS'6793'
p802
(dp803
g597
(lp804
S'44201 - O3_._6793'
p805
asg600
g9
((lp806
S'BETR811'
p807
atRp808
sg602
S'44201 - O3'
p809
ssS'6791'
p810
(dp811
g597
(lp812
S'42601 - NO_._6791'
p813
asg600
g9
((lp814
S'BETR811'
p815
atRp816
sg602
S'42601 - NO'
p817
ssS'99999'
p818
(dp819
g597
(lp820
S'81104 - PM2.5_._99999'
p821
asg600
g9
((lp822
S'BELHB23'
p823
atRp824
sg602
S'81104 - PM2.5'
p825
ssS'99998'
p826
(dp827
g597
(lp828
S'81104 - PM2.5_._99998'
p829
asg600
g9
((lp830
S'BETR710'
p831
atRp832
sg602
S'81104 - PM2.5'
p833
ssS'6988'
p834
(dp835
g597
(lp836
S'16111 - Black Carbon_._6988'
p837
asg600
g9
((lp838
S'BETR221'
p839
atRp840
sg602
S'16111 - Black Carbon'
p841
ssS'99993'
p842
(dp843
g597
(lp844
S'90500 - PN1'
p845
asg600
g9
((lp846
S'BELR801'
p847
atRp848
sg602
S'90500 - PN1'
p849
ssS'99995'
p850
(dp851
g597
(lp852
S'81104 - PM2.5_._99995'
p853
asg600
g9
((lp854
S'BETR815'
p855
atRp856
sg602
S'81104 - PM2.5'
p857
ssS'99994'
p858
(dp859
g597
(lp860
S'81104 - PM2.5_._99994'
p861
asg600
g9
((lp862
S'BETM802'
p863
atRp864
sg602
S'81104 - PM2.5'
p865
ssS'99997'
p866
(dp867
g597
(lp868
S'81104 - PM2.5_._99997'
p869
asg600
g9
((lp870
S'BETN012'
p871
atRp872
sg602
S'81104 - PM2.5'
p873
ssS'99996'
p874
(dp875
g597
(lp876
S'81104 - PM2.5_._99996'
p877
asg600
g9
((lp878
S'BETM705'
p879
atRp880
sg602
S'81104 - PM2.5'
p881
ssS'6386'
p882
(dp883
g597
(lp884
S'42242 - Hg_._6386'
p885
asg600
g9
((ltRp886
sg602
S'42242 - Hg'
p887
ssS'100016'
p888
(dp889
g597
(lp890
S'81104 - PM2.5_._100016'
p891
asg600
g9
((lp892
S'BETR020'
p893
atRp894
sg602
S'81104 - PM2.5'
p895
ssS'100017'
p896
(dp897
g597
(lp898
S'81104 - PM2.5_._100017'
p899
asg600
g9
((lp900
S'BETR811'
p901
atRp902
sg602
S'81104 - PM2.5'
p903
ssS'100014'
p904
(dp905
g597
(lp906
S'81104 - PM2.5_._100014'
p907
asg600
g9
((lp908
S'BETN035'
p909
atRp910
sg602
S'81104 - PM2.5'
p911
ssS'100015'
p912
(dp913
g597
(lp914
S'81104 - PM2.5_._100015'
p915
asg600
g9
((lp916
S'BETR831'
p917
atRp918
sg602
S'81104 - PM2.5'
p919
ssS'100012'
p920
(dp921
g597
(lp922
S'81104 - PM2.5_._100012'
p923
asg600
g9
((lp924
S'BETR750'
p925
atRp926
sg602
S'81104 - PM2.5'
p927
ssS'100013'
p928
(dp929
g597
(lp930
S'81104 - PM2.5_._100013'
p931
asg600
g9
((lp932
S'BETN054'
p933
atRp934
sg602
S'81104 - PM2.5'
p935
ssS'100010'
p936
(dp937
g597
(lp938
S'81104 - PM2.5_._100010'
p939
asg600
g9
((lp940
S'BETN052'
p941
atRp942
sg602
S'81104 - PM2.5'
p943
ssS'100011'
p944
(dp945
g597
(lp946
S'81104 - PM2.5_._100011'
p947
asg600
g9
((lp948
S'BETR834'
p949
atRp950
sg602
S'81104 - PM2.5'
p951
ssS'100018'
p952
(dp953
g597
(lp954
S'81104 - PM2.5_._100018'
p955
asg600
g9
((lp956
S'BETN016'
p957
atRp958
sg602
S'81104 - PM2.5'
p959
ssS'10703'
p960
(dp961
g597
(lp962
S'42602 - NO2_._10703'
p963
asg600
g9
((lp964
S'BETR702'
p965
atRp966
sg602
S'42602 - NO2'
p967
ssS'10702'
p968
(dp969
g597
(lp970
S'42601 - NO_._10702'
p971
asg600
g9
((lp972
S'BETR702'
p973
atRp974
sg602
S'42601 - NO'
p975
ssS'10701'
p976
(dp977
g597
(lp978
S'44201 - O3_._10701'
p979
asg600
g9
((lp980
S'BETR221'
p981
atRp982
sg602
S'44201 - O3'
p983
ssS'10700'
p984
(dp985
g597
(lp986
S'42602 - NO2_._10700'
p987
asg600
g9
((lp988
S'BETR221'
p989
atRp990
sg602
S'42602 - NO2'
p991
ssS'10706'
p992
(dp993
g597
(lp994
S'16111 - Black Carbon_._10706'
p995
asg600
g9
((lp996
S'BETR702'
p997
atRp998
sg602
S'16111 - Black Carbon'
p999
ssS'10705'
p1000
(dp1001
g597
(lp1002
S'81104 - PM2.5_._10705'
p1003
asg600
g9
((lp1004
S'BETR702'
p1005
atRp1006
sg602
S'81104 - PM2.5'
p1007
ssS'10704'
p1008
(dp1009
g597
(lp1010
S'81102 - PM10_._10704'
p1011
asg600
g9
((lp1012
S'BETR702'
p1013
atRp1014
sg602
S'81102 - PM10'
p1015
ssS'6932'
p1016
(dp1017
g597
(lp1018
S'42401 - SO2_._6932'
p1019
asg600
g9
((lp1020
S'BETN085'
p1021
atRp1022
sg602
S'42401 - SO2'
p1023
ssS'6933'
p1024
(dp1025
g597
(lp1026
S'42601 - NO_._6933'
p1027
asg600
g9
((lp1028
S'BETN085'
p1029
atRp1030
sg602
S'42601 - NO'
p1031
ssS'6930'
p1032
(dp1033
g597
(lp1034
S'42101 - CO_._6930'
p1035
asg600
g9
((lp1036
S'BETN085'
p1037
atRp1038
sg602
S'42101 - CO'
p1039
ssS'6931'
p1040
(dp1041
g597
(lp1042
S'42242 - Hg_._6931'
p1043
asg600
g9
((lp1044
S'BETN085'
p1045
atRp1046
sg602
S'42242 - Hg'
p1047
ssS'6936'
p1048
(dp1049
g597
(lp1050
S'81102 - PM10_._6936'
p1051
asg600
g9
((lp1052
S'BETN085'
p1053
atRp1054
sg602
S'81102 - PM10'
p1055
ssS'6937'
p1056
(dp1057
g597
(lp1058
S'81104 - PM2.5_._6937'
p1059
asg600
g9
((lp1060
S'BETN085'
p1061
atRp1062
sg602
S'81104 - PM2.5'
p1063
ssS'6934'
p1064
(dp1065
g597
(lp1066
S'42602 - NO2_._6934'
p1067
asg600
g9
((lp1068
S'BETN085'
p1069
atRp1070
sg602
S'42602 - NO2'
p1071
ssS'6935'
p1072
(dp1073
g597
(lp1074
S'44201 - O3_._6935'
p1075
asg600
g9
((lp1076
S'BETN085'
p1077
atRp1078
sg602
S'44201 - O3'
p1079
ssS'6938'
p1080
(dp1081
g597
(lp1082
S'89101 - PM1_._6938'
p1083
asg600
g9
((ltRp1084
sg602
S'89101 - PM1'
p1085
ssS'6939'
p1086
(dp1087
g597
(lp1088
S'42401 - SO2_._6939'
p1089
asg600
g9
((lp1090
S'BETN093'
p1091
atRp1092
sg602
S'42401 - SO2'
p1093
ssS'6271'
p1094
(dp1095
g597
(lp1096
S'42601 - NO_._6271'
p1097
asg600
g9
((lp1098
S'BELLD01'
p1099
atRp1100
sg602
S'42601 - NO'
p1101
ssS'6273'
p1102
(dp1103
g597
(lp1104
S'45109 - m,p-C6H4(CH3)2_._6273'
p1105
asg600
g9
((ltRp1106
sg602
S'45109 - m,p-C6H4(CH3)2'
p1107
ssS'6272'
p1108
(dp1109
g597
(lp1110
S'42602 - NO2_._6272'
p1111
asg600
g9
((lp1112
S'BELLD01'
p1113
atRp1114
sg602
S'42602 - NO2'
p1115
ssS'6275'
p1116
(dp1117
g597
(lp1118
S'45202 - C6H5-CH3_._6275'
p1119
asg600
g9
((ltRp1120
sg602
S'45202 - C6H5-CH3'
p1121
ssS'6274'
p1122
(dp1123
g597
(lp1124
S'45201 - C6H6_._6274'
p1125
asg600
g9
((lp1126
S'BELLD01'
p1127
atRp1128
sg602
S'45201 - C6H6'
p1129
ssS'6277'
p1130
(dp1131
g597
(lp1132
S'45204 - o-C6H4-(CH3)2_._6277'
p1133
asg600
g9
((ltRp1134
sg602
S'45204 - o-C6H4-(CH3)2'
p1135
ssS'6276'
p1136
(dp1137
g597
(lp1138
S'45203 - C6H5-C2H5_._6276'
p1139
asg600
g9
((ltRp1140
sg602
S'45203 - C6H5-C2H5'
p1141
ssS'6503'
p1142
(dp1143
g597
(lp1144
S'42601 - NO_._6503'
p1145
asg600
g9
((ltRp1146
sg602
S'42601 - NO'
p1147
ssS'6502'
p1148
(dp1149
g597
(lp1150
S'42401 - SO2_._6502'
p1151
asg600
g9
((ltRp1152
sg602
S'42401 - SO2'
p1153
ssS'6501'
p1154
(dp1155
g597
(lp1156
S'42102 - CO2_._6501'
p1157
asg600
g9
((ltRp1158
sg602
S'42102 - CO2'
p1159
ssS'6500'
p1160
(dp1161
g597
(lp1162
S'42101 - CO_._6500'
p1163
asg600
g9
((ltRp1164
sg602
S'42101 - CO'
p1165
ssS'6507'
p1166
(dp1167
g597
(lp1168
S'42601 - NO_._6507'
p1169
asg600
g9
((lp1170
S'BETB004'
p1171
atRp1172
sg602
S'42601 - NO'
p1173
ssS'6506'
p1174
(dp1175
g597
(lp1176
S'42101 - CO_._6506'
p1177
asg600
g9
((lp1178
S'BETB004'
p1179
atRp1180
sg602
S'42101 - CO'
p1181
ssS'6504'
p1182
(dp1183
g597
(lp1184
S'42602 - NO2_._6504'
p1185
asg600
g9
((ltRp1186
sg602
S'42602 - NO2'
p1187
ssS'7009'
p1188
(dp1189
g597
(lp1190
S'81104 - PM2.5_._7009'
p1191
asg600
g9
((lp1192
S'BETR223'
p1193
atRp1194
sg602
S'81104 - PM2.5'
p1195
ssS'99925'
p1196
(dp1197
g597
(lp1198
S'61110 - WSP-SCA_._99925'
p1199
asg600
g9
((ltRp1200
sg602
S'61110 - WSP-SCA'
p1201
ssS'99937'
p1202
(dp1203
g597
(lp1204
S'61110 - WSP-SCA_._99937'
p1205
asg600
g9
((ltRp1206
sg602
S'61110 - WSP-SCA'
p1207
ssS'6430'
p1208
(dp1209
g597
(lp1210
S'42401 - SO2_._6430'
p1211
asg600
g9
((lp1212
S'BELWZ02'
p1213
atRp1214
sg602
S'42401 - SO2'
p1215
ssS'6204'
p1216
(dp1217
g597
(lp1218
S'45203 - C6H5-C2H5_._6204'
p1219
asg600
g9
((ltRp1220
sg602
S'45203 - C6H5-C2H5'
p1221
ssS'6205'
p1222
(dp1223
g597
(lp1224
S'45204 - o-C6H4-(CH3)2_._6205'
p1225
asg600
g9
((ltRp1226
sg602
S'45204 - o-C6H4-(CH3)2'
p1227
ssS'6206'
p1228
(dp1229
g597
(lp1230
S'81102 - PM10_._6206'
p1231
asg600
g9
((ltRp1232
sg602
S'81102 - PM10'
p1233
ssS'6207'
p1234
(dp1235
g597
(lp1236
S'42242 - Hg_._6207'
p1237
asg600
g9
((ltRp1238
sg602
S'42242 - Hg'
p1239
ssS'6200'
p1240
(dp1241
g597
(lp1242
S'42602 - NO2_._6200'
p1243
asg600
g9
((lp1244
S'BELGK09'
p1245
atRp1246
sg602
S'42602 - NO2'
p1247
ssS'6201'
p1248
(dp1249
g597
(lp1250
S'45109 - m,p-C6H4(CH3)2_._6201'
p1251
asg600
g9
((ltRp1252
sg602
S'45109 - m,p-C6H4(CH3)2'
p1253
ssS'6202'
p1254
(dp1255
g597
(lp1256
S'45201 - C6H6_._6202'
p1257
asg600
g9
((lp1258
S'BELGK09'
p1259
atRp1260
sg602
S'45201 - C6H6'
p1261
ssS'6203'
p1262
(dp1263
g597
(lp1264
S'45202 - C6H5-CH3_._6203'
p1265
asg600
g9
((ltRp1266
sg602
S'45202 - C6H5-CH3'
p1267
ssS'6809'
p1268
(dp1269
g597
(lp1270
S'42401 - SO2_._6809'
p1271
asg600
g9
((lp1272
S'BETR820'
p1273
atRp1274
sg602
S'42401 - SO2'
p1275
ssS'6804'
p1276
(dp1277
g597
(lp1278
S'81102 - PM10_._6804'
p1279
asg600
g9
((lp1280
S'BETR815'
p1281
atRp1282
sg602
S'81102 - PM10'
p1283
ssS'6802'
p1284
(dp1285
g597
(lp1286
S'42601 - NO_._6802'
p1287
asg600
g9
((lp1288
S'BETR815'
p1289
atRp1290
sg602
S'42601 - NO'
p1291
ssS'6803'
p1292
(dp1293
g597
(lp1294
S'42602 - NO2_._6803'
p1295
asg600
g9
((lp1296
S'BETR815'
p1297
atRp1298
sg602
S'42602 - NO2'
p1299
ssS'6800'
p1300
(dp1301
g597
(lp1302
S'16111 - Black Carbon_._6800'
p1303
asg600
g9
((lp1304
S'BETR815'
p1305
atRp1306
sg602
S'16111 - Black Carbon'
p1307
ssS'6801'
p1308
(dp1309
g597
(lp1310
S'42401 - SO2_._6801'
p1311
asg600
g9
((lp1312
S'BETR815'
p1313
atRp1314
sg602
S'42401 - SO2'
p1315
ssS'6613'
p1316
(dp1317
g597
(lp1318
S'42401 - SO2_._6613'
p1319
asg600
g9
((lp1320
S'BETR002'
p1321
atRp1322
sg602
S'42401 - SO2'
p1323
ssS'6612'
p1324
(dp1325
g597
(lp1326
S'42102 - CO2_._6612'
p1327
asg600
g9
((lp1328
S'BETR002'
p1329
atRp1330
sg602
S'42102 - CO2'
p1331
ssS'6611'
p1332
(dp1333
g597
(lp1334
S'42101 - CO_._6611'
p1335
asg600
g9
((lp1336
S'BETR002'
p1337
atRp1338
sg602
S'42101 - CO'
p1339
ssS'99927'
p1340
(dp1341
g597
(lp1342
S'61102 - DD_._99927'
p1343
asg600
g9
((ltRp1344
sg602
S'61102 - DD'
p1345
ssS'6615'
p1346
(dp1347
g597
(lp1348
S'42602 - NO2_._6615'
p1349
asg600
g9
((lp1350
S'BETR002'
p1351
atRp1352
sg602
S'42602 - NO2'
p1353
ssS'6614'
p1354
(dp1355
g597
(lp1356
S'42601 - NO_._6614'
p1357
asg600
g9
((lp1358
S'BETR002'
p1359
atRp1360
sg602
S'42601 - NO'
p1361
ssS'7001'
p1362
(dp1363
g597
(lp1364
S'81104 - PM2.5_._7001'
p1365
asg600
g9
((lp1366
S'BETR222'
p1367
atRp1368
sg602
S'81104 - PM2.5'
p1369
ssS'7000'
p1370
(dp1371
g597
(lp1372
S'81102 - PM10_._7000'
p1373
asg600
g9
((lp1374
S'BETR222'
p1375
atRp1376
sg602
S'81102 - PM10'
p1377
ssS'6619'
p1378
(dp1379
g597
(lp1380
S'42102 - CO2_._6619'
p1381
asg600
g9
((lp1382
S'BETR012'
p1383
atRp1384
sg602
S'42102 - CO2'
p1385
ssS'7005'
p1386
(dp1387
g597
(lp1388
S'42601 - NO_._7005'
p1389
asg600
g9
((lp1390
S'BETR223'
p1391
atRp1392
sg602
S'42601 - NO'
p1393
ssS'7004'
p1394
(dp1395
g597
(lp1396
S'42401 - SO2_._7004'
p1397
asg600
g9
((lp1398
S'BETR223'
p1399
atRp1400
sg602
S'42401 - SO2'
p1401
ssS'7006'
p1402
(dp1403
g597
(lp1404
S'42602 - NO2_._7006'
p1405
asg600
g9
((lp1406
S'BETR223'
p1407
atRp1408
sg602
S'42602 - NO2'
p1409
ssS'6752'
p1410
(dp1411
g597
(lp1412
S'42601 - NO_._6752'
p1413
asg600
g9
((lp1414
S'BETR010'
p1415
atRp1416
sg602
S'42601 - NO'
p1417
ssS'6753'
p1418
(dp1419
g597
(lp1420
S'42602 - NO2_._6753'
p1421
asg600
g9
((lp1422
S'BETR010'
p1423
atRp1424
sg602
S'42602 - NO2'
p1425
ssS'6750'
p1426
(dp1427
g597
(lp1428
S'42101 - CO_._6750'
p1429
asg600
g9
((lp1430
S'BETR010'
p1431
atRp1432
sg602
S'42101 - CO'
p1433
ssS'99916'
p1434
(dp1435
g597
(lp1436
S'61110 - WSP-SCA_._99916'
p1437
asg600
g9
((lp1438
S'BETR001'
p1439
atRp1440
sg602
S'61110 - WSP-SCA'
p1441
ssS'7177'
p1442
(dp1443
g597
(lp1444
S'42602 - NO2_._7177'
p1445
asg600
g9
((lp1446
S'BETE007'
p1447
atRp1448
sg602
S'42602 - NO2'
p1449
ssS'99919'
p1450
(dp1451
g597
(lp1452
S'61110 - WSP-SCA_._99919'
p1453
asg600
g9
((ltRp1454
sg602
S'61110 - WSP-SCA'
p1455
ssS'7176'
p1456
(dp1457
g597
(lp1458
S'42601 - NO_._7176'
p1459
asg600
g9
((lp1460
S'BETE007'
p1461
atRp1462
sg602
S'42601 - NO'
p1463
ssS'99940'
p1464
(dp1465
g597
(lp1466
S'61110 - WSP-SCA_._99940'
p1467
asg600
g9
((lp1468
S'BETR012'
p1469
atRp1470
sg602
S'61110 - WSP-SCA'
p1471
ssS'99918'
p1472
(dp1473
g597
(lp1474
S'61102 - DD_._99918'
p1475
asg600
g9
((ltRp1476
sg602
S'61102 - DD'
p1477
ssS'99941'
p1478
(dp1479
g597
(lp1480
S'62101 - TT_._99941'
p1481
asg600
g9
((lp1482
S'BETR012'
p1483
atRp1484
sg602
S'62101 - TT'
p1485
ssS'99915'
p1486
(dp1487
g597
(lp1488
S'61102 - DD_._99915'
p1489
asg600
g9
((lp1490
S'BETR001'
p1491
atRp1492
sg602
S'61102 - DD'
p1493
ssS'6891'
p1494
(dp1495
g597
(lp1496
S'44201 - O3_._6891'
p1497
asg600
g9
((lp1498
S'BETN060'
p1499
atRp1500
sg602
S'44201 - O3'
p1501
ssS'6890'
p1502
(dp1503
g597
(lp1504
S'42602 - NO2_._6890'
p1505
asg600
g9
((lp1506
S'BETN060'
p1507
atRp1508
sg602
S'42602 - NO2'
p1509
ssS'6893'
p1510
(dp1511
g597
(lp1512
S'81104 - PM2.5_._6893'
p1513
asg600
g9
((lp1514
S'BETN060'
p1515
atRp1516
sg602
S'81104 - PM2.5'
p1517
ssS'6892'
p1518
(dp1519
g597
(lp1520
S'81102 - PM10_._6892'
p1521
asg600
g9
((lp1522
S'BETN060'
p1523
atRp1524
sg602
S'81102 - PM10'
p1525
ssS'6895'
p1526
(dp1527
g597
(lp1528
S'42101 - CO_._6895'
p1529
asg600
g9
((lp1530
S'BETN063'
p1531
atRp1532
sg602
S'42101 - CO'
p1533
ssS'6894'
p1534
(dp1535
g597
(lp1536
S'89101 - PM1_._6894'
p1537
asg600
g9
((ltRp1538
sg602
S'89101 - PM1'
p1539
ssS'6897'
p1540
(dp1541
g597
(lp1542
S'42601 - NO_._6897'
p1543
asg600
g9
((lp1544
S'BETN063'
p1545
atRp1546
sg602
S'42601 - NO'
p1547
ssS'6896'
p1548
(dp1549
g597
(lp1550
S'42401 - SO2_._6896'
p1551
asg600
g9
((lp1552
S'BETN063'
p1553
atRp1554
sg602
S'42401 - SO2'
p1555
ssS'6899'
p1556
(dp1557
g597
(lp1558
S'44201 - O3_._6899'
p1559
asg600
g9
((lp1560
S'BETN063'
p1561
atRp1562
sg602
S'44201 - O3'
p1563
ssS'6898'
p1564
(dp1565
g597
(lp1566
S'42602 - NO2_._6898'
p1567
asg600
g9
((lp1568
S'BETN063'
p1569
atRp1570
sg602
S'42602 - NO2'
p1571
ssS'7179'
p1572
(dp1573
g597
(lp1574
S'42601 - NO_._7179'
p1575
asg600
g9
((lp1576
S'BETE008'
p1577
atRp1578
sg602
S'42601 - NO'
p1579
ssS'99928'
p1580
(dp1581
g597
(lp1582
S'61110 - WSP-SCA_._99928'
p1583
asg600
g9
((ltRp1584
sg602
S'61110 - WSP-SCA'
p1585
ssS'99929'
p1586
(dp1587
g597
(lp1588
S'62101 - TT_._99929'
p1589
asg600
g9
((lp1590
S'BETM204'
p1591
atRp1592
sg602
S'62101 - TT'
p1593
ssS'7078'
p1594
(dp1595
g597
(lp1596
S'44201 - O3_._7078'
p1597
asg600
g9
((lp1598
S'BETR701'
p1599
atRp1600
sg602
S'44201 - O3'
p1601
ssS'7079'
p1602
(dp1603
g597
(lp1604
S'45109 - m,p-C6H4(CH3)2_._7079'
p1605
asg600
g9
((ltRp1606
sg602
S'45109 - m,p-C6H4(CH3)2'
p1607
ssS'7074'
p1608
(dp1609
g597
(lp1610
S'42602 - NO2_._7074'
p1611
asg600
g9
((lp1612
S'BETR701'
p1613
atRp1614
sg602
S'42602 - NO2'
p1615
ssS'99921'
p1616
(dp1617
g597
(lp1618
S'61102 - DD_._99921'
p1619
asg600
g9
((ltRp1620
sg602
S'61102 - DD'
p1621
ssS'99922'
p1622
(dp1623
g597
(lp1624
S'61110 - WSP-SCA_._99922'
p1625
asg600
g9
((ltRp1626
sg602
S'61110 - WSP-SCA'
p1627
ssS'99923'
p1628
(dp1629
g597
(lp1630
S'62101 - TT_._99923'
p1631
asg600
g9
((ltRp1632
sg602
S'62101 - TT'
p1633
ssS'99924'
p1634
(dp1635
g597
(lp1636
S'61102 - DD_._99924'
p1637
asg600
g9
((ltRp1638
sg602
S'61102 - DD'
p1639
ssS'7071'
p1640
(dp1641
g597
(lp1642
S'42101 - CO_._7071'
p1643
asg600
g9
((lp1644
S'BETR701'
p1645
atRp1646
sg602
S'42101 - CO'
p1647
ssS'7072'
p1648
(dp1649
g597
(lp1650
S'42401 - SO2_._7072'
p1651
asg600
g9
((lp1652
S'BETR701'
p1653
atRp1654
sg602
S'42401 - SO2'
p1655
ssS'7073'
p1656
(dp1657
g597
(lp1658
S'42601 - NO_._7073'
p1659
asg600
g9
((lp1660
S'BETR701'
p1661
atRp1662
sg602
S'42601 - NO'
p1663
ssS'6972'
p1664
(dp1665
g597
(lp1666
S'89101 - PM1_._6972'
p1667
asg600
g9
((ltRp1668
sg602
S'89101 - PM1'
p1669
ssS'6970'
p1670
(dp1671
g597
(lp1672
S'81102 - PM10_._6970'
p1673
asg600
g9
((lp1674
S'BETN132'
p1675
atRp1676
sg602
S'81102 - PM10'
p1677
ssS'6971'
p1678
(dp1679
g597
(lp1680
S'81104 - PM2.5_._6971'
p1681
asg600
g9
((lp1682
S'BETN132'
p1683
atRp1684
sg602
S'81104 - PM2.5'
p1685
ssS'6508'
p1686
(dp1687
g597
(lp1688
S'42602 - NO2_._6508'
p1689
asg600
g9
((lp1690
S'BETB004'
p1691
atRp1692
sg602
S'42602 - NO2'
p1693
ssS'10688'
p1694
(dp1695
g597
(lp1696
S'42601 - NO_._10688'
p1697
asg600
g9
((lp1698
S'BELR833'
p1699
atRp1700
sg602
S'42601 - NO'
p1701
ssS'99920'
p1702
(dp1703
g597
(lp1704
S'62101 - TT_._99920'
p1705
asg600
g9
((ltRp1706
sg602
S'62101 - TT'
p1707
ssS'10689'
p1708
(dp1709
g597
(lp1710
S'42602 - NO2_._10689'
p1711
asg600
g9
((lp1712
S'BELR833'
p1713
atRp1714
sg602
S'42602 - NO2'
p1715
ssS'7180'
p1716
(dp1717
g597
(lp1718
S'42602 - NO2_._7180'
p1719
asg600
g9
((lp1720
S'BETE008'
p1721
atRp1722
sg602
S'42602 - NO2'
p1723
ssS'7041'
p1724
(dp1725
g597
(lp1726
S'44201 - O3_._7041'
p1727
asg600
g9
((lp1728
S'BETN012'
p1729
atRp1730
sg602
S'44201 - O3'
p1731
ssS'7182'
p1732
(dp1733
g597
(lp1734
S'42601 - NO_._7182'
p1735
asg600
g9
((lp1736
S'BETE009'
p1737
atRp1738
sg602
S'42601 - NO'
p1739
ssS'7183'
p1740
(dp1741
g597
(lp1742
S'42602 - NO2_._7183'
p1743
asg600
g9
((lp1744
S'BETE009'
p1745
atRp1746
sg602
S'42602 - NO2'
p1747
ssS'7185'
p1748
(dp1749
g597
(lp1750
S'42601 - NO_._7185'
p1751
asg600
g9
((lp1752
S'BETE013'
p1753
atRp1754
sg602
S'42601 - NO'
p1755
ssS'7186'
p1756
(dp1757
g597
(lp1758
S'42602 - NO2_._7186'
p1759
asg600
g9
((lp1760
S'BETE013'
p1761
atRp1762
sg602
S'42602 - NO2'
p1763
ssS'7040'
p1764
(dp1765
g597
(lp1766
S'42602 - NO2_._7040'
p1767
asg600
g9
((lp1768
S'BETN012'
p1769
atRp1770
sg602
S'42602 - NO2'
p1771
ssS'7207'
p1772
(dp1773
g597
(lp1774
S'42602 - NO2_._7207'
p1775
asg600
g9
((lp1776
S'BETE716'
p1777
atRp1778
sg602
S'42602 - NO2'
p1779
ssS'7042'
p1780
(dp1781
g597
(lp1782
S'81102 - PM10_._7042'
p1783
asg600
g9
((lp1784
S'BETN012'
p1785
atRp1786
sg602
S'81102 - PM10'
p1787
ssS'7206'
p1788
(dp1789
g597
(lp1790
S'42601 - NO_._7206'
p1791
asg600
g9
((lp1792
S'BETE716'
p1793
atRp1794
sg602
S'42601 - NO'
p1795
ssS'10699'
p1796
(dp1797
g597
(lp1798
S'42601 - NO_._10699'
p1799
asg600
g9
((lp1800
S'BETR221'
p1801
atRp1802
sg602
S'42601 - NO'
p1803
ssS'10698'
p1804
(dp1805
g597
(lp1806
S'42602 - NO2_._10698'
p1807
asg600
g9
((lp1808
S'BETR820'
p1809
atRp1810
sg602
S'42602 - NO2'
p1811
ssS'7223'
p1812
(dp1813
g597
(lp1814
S'42401 - SO2_._7223'
p1815
asg600
g9
((ltRp1816
sg602
S'42401 - SO2'
p1817
ssS'7222'
p1818
(dp1819
g597
(lp1820
S'42602 - NO2_._7222'
p1821
asg600
g9
((ltRp1822
sg602
S'42602 - NO2'
p1823
ssS'7225'
p1824
(dp1825
g597
(lp1826
S'42602 - NO2_._7225'
p1827
asg600
g9
((ltRp1828
sg602
S'42602 - NO2'
p1829
ssS'7224'
p1830
(dp1831
g597
(lp1832
S'42601 - NO_._7224'
p1833
asg600
g9
((ltRp1834
sg602
S'42601 - NO'
p1835
ssS'7227'
p1836
(dp1837
g597
(lp1838
S'42601 - NO_._7227'
p1839
asg600
g9
((ltRp1840
sg602
S'42601 - NO'
p1841
ssS'7226'
p1842
(dp1843
g597
(lp1844
S'42401 - SO2_._7226'
p1845
asg600
g9
((ltRp1846
sg602
S'42401 - SO2'
p1847
ssS'10691'
p1848
(dp1849
g597
(lp1850
S'81102 - PM10_._10691'
p1851
asg600
g9
((lp1852
S'BELSA04'
p1853
atRp1854
sg602
S'81102 - PM10'
p1855
ssS'10690'
p1856
(dp1857
g597
(lp1858
S'16111 - Black Carbon_._10690'
p1859
asg600
g9
((lp1860
S'BELSA04'
p1861
atRp1862
sg602
S'16111 - Black Carbon'
p1863
ssS'10693'
p1864
(dp1865
g597
(lp1866
S'16111 - Black Carbon_._10693'
p1867
asg600
g9
((lp1868
S'BETN043'
p1869
atRp1870
sg602
S'16111 - Black Carbon'
p1871
ssS'10692'
p1872
(dp1873
g597
(lp1874
S'81104 - PM2.5_._10692'
p1875
asg600
g9
((lp1876
S'BELSA04'
p1877
atRp1878
sg602
S'81104 - PM2.5'
p1879
ssS'10697'
p1880
(dp1881
g597
(lp1882
S'42601 - NO_._10697'
p1883
asg600
g9
((lp1884
S'BETR820'
p1885
atRp1886
sg602
S'42601 - NO'
p1887
ssS'10696'
p1888
(dp1889
g597
(lp1890
S'42601 - NO_._10696'
p1891
asg600
g9
((lp1892
S'BETR802'
p1893
atRp1894
sg602
S'42601 - NO'
p1895
ssS'6572'
p1896
(dp1897
g597
(lp1898
S'42401 - SO2_._6572'
p1899
asg600
g9
((lp1900
S'BETR001'
p1901
atRp1902
sg602
S'42401 - SO2'
p1903
ssS'6573'
p1904
(dp1905
g597
(lp1906
S'42601 - NO_._6573'
p1907
asg600
g9
((lp1908
S'BETR001'
p1909
atRp1910
sg602
S'42601 - NO'
p1911
ssS'6571'
p1912
(dp1913
g597
(lp1914
S'42101 - CO_._6571'
p1915
asg600
g9
((lp1916
S'BETR001'
p1917
atRp1918
sg602
S'42101 - CO'
p1919
ssS'6577'
p1920
(dp1921
g597
(lp1922
S'44201 - O3_._6577'
p1923
asg600
g9
((lp1924
S'BETR001'
p1925
atRp1926
sg602
S'44201 - O3'
p1927
ssS'6574'
p1928
(dp1929
g597
(lp1930
S'42602 - NO2_._6574'
p1931
asg600
g9
((lp1932
S'BETR001'
p1933
atRp1934
sg602
S'42602 - NO2'
p1935
ssS'7122'
p1936
(dp1937
g597
(lp1938
S'42602 - NO2_._7122'
p1939
asg600
g9
((lp1940
S'BETR750'
p1941
atRp1942
sg602
S'42602 - NO2'
p1943
ssS'6578'
p1944
(dp1945
g597
(lp1946
S'81102 - PM10_._6578'
p1947
asg600
g9
((lp1948
S'BETR001'
p1949
atRp1950
sg602
S'81102 - PM10'
p1951
ssS'6579'
p1952
(dp1953
g597
(lp1954
S'81104 - PM2.5_._6579'
p1955
asg600
g9
((lp1956
S'BETR001'
p1957
atRp1958
sg602
S'81104 - PM2.5'
p1959
ssS'6324'
p1960
(dp1961
g597
(lp1962
S'81102 - PM10_._6324'
p1963
asg600
g9
((lp1964
S'BELOB01'
p1965
atRp1966
sg602
S'81102 - PM10'
p1967
ssS'6323'
p1968
(dp1969
g597
(lp1970
S'42602 - NO2_._6323'
p1971
asg600
g9
((lp1972
S'BELOB01'
p1973
atRp1974
sg602
S'42602 - NO2'
p1975
ssS'6322'
p1976
(dp1977
g597
(lp1978
S'42601 - NO_._6322'
p1979
asg600
g9
((lp1980
S'BELOB01'
p1981
atRp1982
sg602
S'42601 - NO'
p1983
ssS'7121'
p1984
(dp1985
g597
(lp1986
S'42601 - NO_._7121'
p1987
asg600
g9
((lp1988
S'BETR750'
p1989
atRp1990
sg602
S'42601 - NO'
p1991
ssS'6718'
p1992
(dp1993
g597
(lp1994
S'42602 - NO2_._6718'
p1995
asg600
g9
((lp1996
S'BETN040'
p1997
atRp1998
sg602
S'42602 - NO2'
p1999
ssS'6719'
p2000
(dp2001
g597
(lp2002
S'44201 - O3_._6719'
p2003
asg600
g9
((lp2004
S'BETN040'
p2005
atRp2006
sg602
S'44201 - O3'
p2007
ssS'6716'
p2008
(dp2009
g597
(lp2010
S'81102 - PM10_._6716'
p2011
asg600
g9
((lp2012
S'BETN035'
p2013
atRp2014
sg602
S'81102 - PM10'
p2015
ssS'6717'
p2016
(dp2017
g597
(lp2018
S'42601 - NO_._6717'
p2019
asg600
g9
((lp2020
S'BETN040'
p2021
atRp2022
sg602
S'42601 - NO'
p2023
ssS'6714'
p2024
(dp2025
g597
(lp2026
S'42602 - NO2_._6714'
p2027
asg600
g9
((lp2028
S'BETN035'
p2029
atRp2030
sg602
S'42602 - NO2'
p2031
ssS'6715'
p2032
(dp2033
g597
(lp2034
S'44201 - O3_._6715'
p2035
asg600
g9
((lp2036
S'BETN035'
p2037
atRp2038
sg602
S'44201 - O3'
p2039
ssS'6712'
p2040
(dp2041
g597
(lp2042
S'42401 - SO2_._6712'
p2043
asg600
g9
((lp2044
S'BETN035'
p2045
atRp2046
sg602
S'42401 - SO2'
p2047
ssS'6713'
p2048
(dp2049
g597
(lp2050
S'42601 - NO_._6713'
p2051
asg600
g9
((lp2052
S'BETN035'
p2053
atRp2054
sg602
S'42601 - NO'
p2055
ssS'6710'
p2056
(dp2057
g597
(lp2058
S'42602 - NO2_._6710'
p2059
asg600
g9
((lp2060
S'BETN027'
p2061
atRp2062
sg602
S'42602 - NO2'
p2063
ssS'6711'
p2064
(dp2065
g597
(lp2066
S'44201 - O3_._6711'
p2067
asg600
g9
((lp2068
S'BETN027'
p2069
atRp2070
sg602
S'44201 - O3'
p2071
ssS'6855'
p2072
(dp2073
g597
(lp2074
S'81104 - PM2.5_._6855'
p2075
asg600
g9
((lp2076
S'BETR841'
p2077
atRp2078
sg602
S'81104 - PM2.5'
p2079
ssS'6854'
p2080
(dp2081
g597
(lp2082
S'81102 - PM10_._6854'
p2083
asg600
g9
((lp2084
S'BETR841'
p2085
atRp2086
sg602
S'81102 - PM10'
p2087
ssS'6857'
p2088
(dp2089
g597
(lp2090
S'42601 - NO_._6857'
p2091
asg600
g9
((lp2092
S'BETR891'
p2093
atRp2094
sg602
S'42601 - NO'
p2095
ssS'6856'
p2096
(dp2097
g597
(lp2098
S'42401 - SO2_._6856'
p2099
asg600
g9
((lp2100
S'BETR891'
p2101
atRp2102
sg602
S'42401 - SO2'
p2103
ssS'6851'
p2104
(dp2105
g597
(lp2106
S'42601 - NO_._6851'
p2107
asg600
g9
((lp2108
S'BETR841'
p2109
atRp2110
sg602
S'42601 - NO'
p2111
ssS'6853'
p2112
(dp2113
g597
(lp2114
S'44201 - O3_._6853'
p2115
asg600
g9
((lp2116
S'BETR841'
p2117
atRp2118
sg602
S'44201 - O3'
p2119
ssS'6852'
p2120
(dp2121
g597
(lp2122
S'42602 - NO2_._6852'
p2123
asg600
g9
((lp2124
S'BETR841'
p2125
atRp2126
sg602
S'42602 - NO2'
p2127
ssS'6858'
p2128
(dp2129
g597
(lp2130
S'42602 - NO2_._6858'
p2131
asg600
g9
((lp2132
S'BETR891'
p2133
atRp2134
sg602
S'42602 - NO2'
p2135
ssS'7031'
p2136
(dp2137
g597
(lp2138
S'42601 - NO_._7031'
p2139
asg600
g9
((lp2140
S'BETM705'
p2141
atRp2142
sg602
S'42601 - NO'
p2143
ssS'7032'
p2144
(dp2145
g597
(lp2146
S'42602 - NO2_._7032'
p2147
asg600
g9
((lp2148
S'BETM705'
p2149
atRp2150
sg602
S'42602 - NO2'
p2151
ssS'7033'
p2152
(dp2153
g597
(lp2154
S'44201 - O3_._7033'
p2155
asg600
g9
((lp2156
S'BETM705'
p2157
atRp2158
sg602
S'44201 - O3'
p2159
ssS'6147'
p2160
(dp2161
g597
(lp2162
S'16111 - Black Carbon_._6147'
p2163
asg600
g9
((lp2164
S'BELAB01'
p2165
atRp2166
sg602
S'16111 - Black Carbon'
p2167
ssS'7017'
p2168
(dp2169
g597
(lp2170
S'42602 - NO2_._7017'
p2171
asg600
g9
((lp2172
S'BETR240'
p2173
atRp2174
sg602
S'42602 - NO2'
p2175
ssS'7131'
p2176
(dp2177
g597
(lp2178
S'42601 - NO_._7131'
p2179
asg600
g9
((lp2180
S'BETR501'
p2181
atRp2182
sg602
S'42601 - NO'
p2183
ssS'7039'
p2184
(dp2185
g597
(lp2186
S'42601 - NO_._7039'
p2187
asg600
g9
((lp2188
S'BETN012'
p2189
atRp2190
sg602
S'42601 - NO'
p2191
ssS'6149'
p2192
(dp2193
g597
(lp2194
S'81102 - PM10_._6149'
p2195
asg600
g9
((lp2196
S'BELAB02'
p2197
atRp2198
sg602
S'81102 - PM10'
p2199
ssS'6148'
p2200
(dp2201
g597
(lp2202
S'81102 - PM10_._6148'
p2203
asg600
g9
((lp2204
S'BELAB01'
p2205
atRp2206
sg602
S'81102 - PM10'
p2207
ssS'7135'
p2208
(dp2209
g597
(lp2210
S'81102 - PM10_._7135'
p2211
asg600
g9
((lp2212
S'BETR501'
p2213
atRp2214
sg602
S'81102 - PM10'
p2215
ssS'7137'
p2216
(dp2217
g597
(lp2218
S'89101 - PM1_._7137'
p2219
asg600
g9
((ltRp2220
sg602
S'89101 - PM1'
p2221
ssS'7136'
p2222
(dp2223
g597
(lp2224
S'81104 - PM2.5_._7136'
p2225
asg600
g9
((lp2226
S'BETR501'
p2227
atRp2228
sg602
S'81104 - PM2.5'
p2229
ssS'6781'
p2230
(dp2231
g597
(lp2232
S'45202 - C6H5-CH3_._6781'
p2233
asg600
g9
((ltRp2234
sg602
S'45202 - C6H5-CH3'
p2235
ssS'6780'
p2236
(dp2237
g597
(lp2238
S'45201 - C6H6_._6780'
p2239
asg600
g9
((lp2240
S'BETR801'
p2241
atRp2242
sg602
S'45201 - C6H6'
p2243
ssS'6783'
p2244
(dp2245
g597
(lp2246
S'45204 - o-C6H4-(CH3)2_._6783'
p2247
asg600
g9
((ltRp2248
sg602
S'45204 - o-C6H4-(CH3)2'
p2249
ssS'6782'
p2250
(dp2251
g597
(lp2252
S'45203 - C6H5-C2H5_._6782'
p2253
asg600
g9
((ltRp2254
sg602
S'45203 - C6H5-C2H5'
p2255
ssS'6787'
p2256
(dp2257
g597
(lp2258
S'81104 - PM2.5_._6787'
p2259
asg600
g9
((lp2260
S'BETR801'
p2261
atRp2262
sg602
S'81104 - PM2.5'
p2263
ssS'6786'
p2264
(dp2265
g597
(lp2266
S'81102 - PM10_._6786'
p2267
asg600
g9
((lp2268
S'BETR801'
p2269
atRp2270
sg602
S'81102 - PM10'
p2271
ssS'6789'
p2272
(dp2273
g597
(lp2274
S'81104 - PM2.5_._6789'
p2275
asg600
g9
((lp2276
S'BETR802'
p2277
atRp2278
sg602
S'81104 - PM2.5'
p2279
ssS'6788'
p2280
(dp2281
g597
(lp2282
S'81102 - PM10_._6788'
p2283
asg600
g9
((lp2284
S'BETR802'
p2285
atRp2286
sg602
S'81102 - PM10'
p2287
ssS'7044'
p2288
(dp2289
g597
(lp2290
S'42242 - Hg_._7044'
p2291
asg600
g9
((ltRp2292
sg602
S'42242 - Hg'
p2293
ssS'99911'
p2294
(dp2295
g597
(lp2296
S'62101 - TT_._99911'
p2297
asg600
g9
((lp2298
S'BETM802'
p2299
atRp2300
sg602
S'62101 - TT'
p2301
ssS'99910'
p2302
(dp2303
g597
(lp2304
S'61110 - WSP-SCA_._99910'
p2305
asg600
g9
((lp2306
S'BETM802'
p2307
atRp2308
sg602
S'61110 - WSP-SCA'
p2309
ssS'99913'
p2310
(dp2311
g597
(lp2312
S'61110 - WSP-SCA_._99913'
p2313
asg600
g9
((ltRp2314
sg602
S'61110 - WSP-SCA'
p2315
ssS'99912'
p2316
(dp2317
g597
(lp2318
S'61102 - DD_._99912'
p2319
asg600
g9
((ltRp2320
sg602
S'61102 - DD'
p2321
ssS'7047'
p2322
(dp2323
g597
(lp2324
S'42602 - NO2_._7047'
p2325
asg600
g9
((lp2326
S'BETN029'
p2327
atRp2328
sg602
S'42602 - NO2'
p2329
ssS'7149'
p2330
(dp2331
g597
(lp2332
S'81104 - PM2.5_._7149'
p2333
asg600
g9
((lp2334
S'BETR510'
p2335
atRp2336
sg602
S'81104 - PM2.5'
p2337
ssS'99917'
p2338
(dp2339
g597
(lp2340
S'62101 - TT_._99917'
p2341
asg600
g9
((lp2342
S'BETR001'
p2343
atRp2344
sg602
S'62101 - TT'
p2345
ssS'6638'
p2346
(dp2347
g597
(lp2348
S'42601 - NO_._6638'
p2349
asg600
g9
((lp2350
S'BETWOL1'
p2351
atRp2352
sg602
S'42601 - NO'
p2353
ssS'7144'
p2354
(dp2355
g597
(lp2356
S'81104 - PM2.5_._7144'
p2357
asg600
g9
((lp2358
S'BETR502'
p2359
atRp2360
sg602
S'81104 - PM2.5'
p2361
ssS'7145'
p2362
(dp2363
g597
(lp2364
S'89101 - PM1_._7145'
p2365
asg600
g9
((ltRp2366
sg602
S'89101 - PM1'
p2367
ssS'7147'
p2368
(dp2369
g597
(lp2370
S'42401 - SO2_._7147'
p2371
asg600
g9
((lp2372
S'BETR510'
p2373
atRp2374
sg602
S'42401 - SO2'
p2375
ssS'7140'
p2376
(dp2377
g597
(lp2378
S'42601 - NO_._7140'
p2379
asg600
g9
((lp2380
S'BETR502'
p2381
atRp2382
sg602
S'42601 - NO'
p2383
ssS'7141'
p2384
(dp2385
g597
(lp2386
S'42602 - NO2_._7141'
p2387
asg600
g9
((lp2388
S'BETR502'
p2389
atRp2390
sg602
S'42602 - NO2'
p2391
ssS'7142'
p2392
(dp2393
g597
(lp2394
S'44201 - O3_._7142'
p2395
asg600
g9
((lp2396
S'BETR502'
p2397
atRp2398
sg602
S'44201 - O3'
p2399
ssS'7143'
p2400
(dp2401
g597
(lp2402
S'81102 - PM10_._7143'
p2403
asg600
g9
((lp2404
S'BETR502'
p2405
atRp2406
sg602
S'81102 - PM10'
p2407
ssS'100005'
p2408
(dp2409
g597
(lp2410
S'81104 - PM2.5_._100005'
p2411
asg600
g9
((lp2412
S'BELRL01'
p2413
atRp2414
sg602
S'81104 - PM2.5'
p2415
ssS'100004'
p2416
(dp2417
g597
(lp2418
S'81104 - PM2.5_._100004'
p2419
asg600
g9
((ltRp2420
sg602
S'81104 - PM2.5'
p2421
ssS'100006'
p2422
(dp2423
g597
(lp2424
S'81104 - PM2.5_._100006'
p2425
asg600
g9
((lp2426
S'BELOB01'
p2427
atRp2428
sg602
S'81104 - PM2.5'
p2429
ssS'100001'
p2430
(dp2431
g597
(lp2432
S'81104 - PM2.5_._100001'
p2433
asg600
g9
((ltRp2434
sg602
S'81104 - PM2.5'
p2435
ssS'100003'
p2436
(dp2437
g597
(lp2438
S'81104 - PM2.5_._100003'
p2439
asg600
g9
((lp2440
S'BELAB02'
p2441
atRp2442
sg602
S'81104 - PM2.5'
p2443
ssS'100002'
p2444
(dp2445
g597
(lp2446
S'81104 - PM2.5_._100002'
p2447
asg600
g9
((lp2448
S'BELAB01'
p2449
atRp2450
sg602
S'81104 - PM2.5'
p2451
ssS'7129'
p2452
(dp2453
g597
(lp2454
S'42101 - CO_._7129'
p2455
asg600
g9
((lp2456
S'BETR501'
p2457
atRp2458
sg602
S'42101 - CO'
p2459
ssS'100009'
p2460
(dp2461
g597
(lp2462
S'81104 - PM2.5_._100009'
p2463
asg600
g9
((lp2464
S'BELSZ02'
p2465
atRp2466
sg602
S'81104 - PM2.5'
p2467
ssS'100008'
p2468
(dp2469
g597
(lp2470
S'81104 - PM2.5_._100008'
p2471
asg600
g9
((lp2472
S'BELAL01'
p2473
atRp2474
sg602
S'81104 - PM2.5'
p2475
ssS'7046'
p2476
(dp2477
g597
(lp2478
S'42601 - NO_._7046'
p2479
asg600
g9
((lp2480
S'BETN029'
p2481
atRp2482
sg602
S'42601 - NO'
p2483
ssS'99936'
p2484
(dp2485
g597
(lp2486
S'61102 - DD_._99936'
p2487
asg600
g9
((ltRp2488
sg602
S'61102 - DD'
p2489
ssS'6532'
p2490
(dp2491
g597
(lp2492
S'81104 - PM2.5_._6532'
p2493
asg600
g9
((lp2494
S'BETB011'
p2495
atRp2496
sg602
S'81104 - PM2.5'
p2497
ssS'6928'
p2498
(dp2499
g597
(lp2500
S'16111 - Black Carbon_._6928'
p2501
asg600
g9
((lp2502
S'BETN085'
p2503
atRp2504
sg602
S'16111 - Black Carbon'
p2505
ssS'6530'
p2506
(dp2507
g597
(lp2508
S'44201 - O3_._6530'
p2509
asg600
g9
((lp2510
S'BETB011'
p2511
atRp2512
sg602
S'44201 - O3'
p2513
ssS'6531'
p2514
(dp2515
g597
(lp2516
S'81102 - PM10_._6531'
p2517
asg600
g9
((lp2518
S'BETB011'
p2519
atRp2520
sg602
S'81102 - PM10'
p2521
ssS'6925'
p2522
(dp2523
g597
(lp2524
S'44201 - O3_._6925'
p2525
asg600
g9
((lp2526
S'BETN073'
p2527
atRp2528
sg602
S'44201 - O3'
p2529
ssS'6924'
p2530
(dp2531
g597
(lp2532
S'42602 - NO2_._6924'
p2533
asg600
g9
((lp2534
S'BETN073'
p2535
atRp2536
sg602
S'42602 - NO2'
p2537
ssS'6927'
p2538
(dp2539
g597
(lp2540
S'81104 - PM2.5_._6927'
p2541
asg600
g9
((lp2542
S'BETN073'
p2543
atRp2544
sg602
S'81104 - PM2.5'
p2545
ssS'6926'
p2546
(dp2547
g597
(lp2548
S'81102 - PM10_._6926'
p2549
asg600
g9
((lp2550
S'BETN073'
p2551
atRp2552
sg602
S'81102 - PM10'
p2553
ssS'6921'
p2554
(dp2555
g597
(lp2556
S'89101 - PM1_._6921'
p2557
asg600
g9
((ltRp2558
sg602
S'89101 - PM1'
p2559
ssS'6920'
p2560
(dp2561
g597
(lp2562
S'81104 - PM2.5_._6920'
p2563
asg600
g9
((lp2564
S'BETN070'
p2565
atRp2566
sg602
S'81104 - PM2.5'
p2567
ssS'6923'
p2568
(dp2569
g597
(lp2570
S'42601 - NO_._6923'
p2571
asg600
g9
((lp2572
S'BETN073'
p2573
atRp2574
sg602
S'42601 - NO'
p2575
ssS'6284'
p2576
(dp2577
g597
(lp2578
S'45202 - C6H5-CH3_._6284'
p2579
asg600
g9
((ltRp2580
sg602
S'45202 - C6H5-CH3'
p2581
ssS'6285'
p2582
(dp2583
g597
(lp2584
S'45203 - C6H5-C2H5_._6285'
p2585
asg600
g9
((ltRp2586
sg602
S'45203 - C6H5-C2H5'
p2587
ssS'6286'
p2588
(dp2589
g597
(lp2590
S'45204 - o-C6H4-(CH3)2_._6286'
p2591
asg600
g9
((ltRp2592
sg602
S'45204 - o-C6H4-(CH3)2'
p2593
ssS'6280'
p2594
(dp2595
g597
(lp2596
S'42601 - NO_._6280'
p2597
asg600
g9
((lp2598
S'BELLD02'
p2599
atRp2600
sg602
S'42601 - NO'
p2601
ssS'6281'
p2602
(dp2603
g597
(lp2604
S'42602 - NO2_._6281'
p2605
asg600
g9
((lp2606
S'BELLD02'
p2607
atRp2608
sg602
S'42602 - NO2'
p2609
ssS'6282'
p2610
(dp2611
g597
(lp2612
S'45109 - m,p-C6H4(CH3)2_._6282'
p2613
asg600
g9
((ltRp2614
sg602
S'45109 - m,p-C6H4(CH3)2'
p2615
ssS'6283'
p2616
(dp2617
g597
(lp2618
S'45201 - C6H6_._6283'
p2619
asg600
g9
((lp2620
S'BELLD02'
p2621
atRp2622
sg602
S'45201 - C6H6'
p2623
ssS'6368'
p2624
(dp2625
g597
(lp2626
S'81102 - PM10_._6368'
p2627
asg600
g9
((lp2628
S'BELSZ02'
p2629
atRp2630
sg602
S'81102 - PM10'
p2631
ssS'6361'
p2632
(dp2633
g597
(lp2634
S'42602 - NO2_._6361'
p2635
asg600
g9
((lp2636
S'BELSZ02'
p2637
atRp2638
sg602
S'42602 - NO2'
p2639
ssS'6360'
p2640
(dp2641
g597
(lp2642
S'42601 - NO_._6360'
p2643
asg600
g9
((lp2644
S'BELSZ02'
p2645
atRp2646
sg602
S'42601 - NO'
p2647
ssS'7218'
p2648
(dp2649
g597
(lp2650
S'42601 - NO_._7218'
p2651
asg600
g9
((ltRp2652
sg602
S'42601 - NO'
p2653
ssS'7219'
p2654
(dp2655
g597
(lp2656
S'42602 - NO2_._7219'
p2657
asg600
g9
((ltRp2658
sg602
S'42602 - NO2'
p2659
ssS'6407'
p2660
(dp2661
g597
(lp2662
S'42401 - SO2_._6407'
p2663
asg600
g9
((lp2664
S'BETTS21'
p2665
atRp2666
sg602
S'42401 - SO2'
p2667
ssS'7210'
p2668
(dp2669
g597
(lp2670
S'42602 - NO2_._7210'
p2671
asg600
g9
((lp2672
S'BETE804'
p2673
atRp2674
sg602
S'42602 - NO2'
p2675
ssS'7217'
p2676
(dp2677
g597
(lp2678
S'42401 - SO2_._7217'
p2679
asg600
g9
((ltRp2680
sg602
S'42401 - SO2'
p2681
ssS'6217'
p2682
(dp2683
g597
(lp2684
S'42602 - NO2_._6217'
p2685
asg600
g9
((lp2686
S'BELHB23'
p2687
atRp2688
sg602
S'42602 - NO2'
p2689
ssS'6216'
p2690
(dp2691
g597
(lp2692
S'42601 - NO_._6216'
p2693
asg600
g9
((lp2694
S'BELHB23'
p2695
atRp2696
sg602
S'42601 - NO'
p2697
ssS'6215'
p2698
(dp2699
g597
(lp2700
S'42401 - SO2_._6215'
p2701
asg600
g9
((lp2702
S'BELHB23'
p2703
atRp2704
sg602
S'42401 - SO2'
p2705
ssS'6218'
p2706
(dp2707
g597
(lp2708
S'81102 - PM10_._6218'
p2709
asg600
g9
((lp2710
S'BELHB23'
p2711
atRp2712
sg602
S'81102 - PM10'
p2713
ssS'6813'
p2714
(dp2715
g597
(lp2716
S'42601 - NO_._6813'
p2717
asg600
g9
((lp2718
S'BETR821'
p2719
atRp2720
sg602
S'42601 - NO'
p2721
ssS'6812'
p2722
(dp2723
g597
(lp2724
S'42401 - SO2_._6812'
p2725
asg600
g9
((lp2726
S'BETR821'
p2727
atRp2728
sg602
S'42401 - SO2'
p2729
ssS'6815'
p2730
(dp2731
g597
(lp2732
S'42401 - SO2_._6815'
p2733
asg600
g9
((lp2734
S'BETR822'
p2735
atRp2736
sg602
S'42401 - SO2'
p2737
ssS'6814'
p2738
(dp2739
g597
(lp2740
S'42602 - NO2_._6814'
p2741
asg600
g9
((lp2742
S'BETR821'
p2743
atRp2744
sg602
S'42602 - NO2'
p2745
ssS'6817'
p2746
(dp2747
g597
(lp2748
S'42602 - NO2_._6817'
p2749
asg600
g9
((lp2750
S'BETR822'
p2751
atRp2752
sg602
S'42602 - NO2'
p2753
ssS'6816'
p2754
(dp2755
g597
(lp2756
S'42601 - NO_._6816'
p2757
asg600
g9
((lp2758
S'BETR822'
p2759
atRp2760
sg602
S'42601 - NO'
p2761
ssS'6744'
p2762
(dp2763
g597
(lp2764
S'44201 - O3_._6744'
p2765
asg600
g9
((lp2766
S'BETN046'
p2767
atRp2768
sg602
S'44201 - O3'
p2769
ssS'6747'
p2770
(dp2771
g597
(lp2772
S'42602 - NO2_._6747'
p2773
asg600
g9
((lp2774
S'BETN054'
p2775
atRp2776
sg602
S'42602 - NO2'
p2777
ssS'6746'
p2778
(dp2779
g597
(lp2780
S'42601 - NO_._6746'
p2781
asg600
g9
((lp2782
S'BETN054'
p2783
atRp2784
sg602
S'42601 - NO'
p2785
ssS'6740'
p2786
(dp2787
g597
(lp2788
S'81104 - PM2.5_._6740'
p2789
asg600
g9
((lp2790
S'BETN045'
p2791
atRp2792
sg602
S'81104 - PM2.5'
p2793
ssS'6743'
p2794
(dp2795
g597
(lp2796
S'42602 - NO2_._6743'
p2797
asg600
g9
((lp2798
S'BETN046'
p2799
atRp2800
sg602
S'42602 - NO2'
p2801
ssS'6742'
p2802
(dp2803
g597
(lp2804
S'42601 - NO_._6742'
p2805
asg600
g9
((lp2806
S'BETN046'
p2807
atRp2808
sg602
S'42601 - NO'
p2809
ssS'6626'
p2810
(dp2811
g597
(lp2812
S'81102 - PM10_._6626'
p2813
asg600
g9
((lp2814
S'BETR012'
p2815
atRp2816
sg602
S'81102 - PM10'
p2817
ssS'6627'
p2818
(dp2819
g597
(lp2820
S'81104 - PM2.5_._6627'
p2821
asg600
g9
((lp2822
S'BETR012'
p2823
atRp2824
sg602
S'81104 - PM2.5'
p2825
ssS'6625'
p2826
(dp2827
g597
(lp2828
S'44201 - O3_._6625'
p2829
asg600
g9
((lp2830
S'BETR012'
p2831
atRp2832
sg602
S'44201 - O3'
p2833
ssS'6749'
p2834
(dp2835
g597
(lp2836
S'81102 - PM10_._6749'
p2837
asg600
g9
((lp2838
S'BETN054'
p2839
atRp2840
sg602
S'81102 - PM10'
p2841
ssS'6748'
p2842
(dp2843
g597
(lp2844
S'44201 - O3_._6748'
p2845
asg600
g9
((lp2846
S'BETN054'
p2847
atRp2848
sg602
S'44201 - O3'
p2849
ssS'6620'
p2850
(dp2851
g597
(lp2852
S'42401 - SO2_._6620'
p2853
asg600
g9
((lp2854
S'BETR012'
p2855
atRp2856
sg602
S'42401 - SO2'
p2857
ssS'6621'
p2858
(dp2859
g597
(lp2860
S'42601 - NO_._6621'
p2861
asg600
g9
((lp2862
S'BETR012'
p2863
atRp2864
sg602
S'42601 - NO'
p2865
ssS'7120'
p2866
(dp2867
g597
(lp2868
S'42401 - SO2_._7120'
p2869
asg600
g9
((lp2870
S'BETR750'
p2871
atRp2872
sg602
S'42401 - SO2'
p2873
ssS'7103'
p2874
(dp2875
g597
(lp2876
S'42401 - SO2_._7103'
p2877
asg600
g9
((lp2878
S'BETR731'
p2879
atRp2880
sg602
S'42401 - SO2'
p2881
ssS'6868'
p2882
(dp2883
g597
(lp2884
S'42401 - SO2_._6868'
p2885
asg600
g9
((lp2886
S'BETR894'
p2887
atRp2888
sg602
S'42401 - SO2'
p2889
ssS'6869'
p2890
(dp2891
g597
(lp2892
S'42601 - NO_._6869'
p2893
asg600
g9
((lp2894
S'BETR894'
p2895
atRp2896
sg602
S'42601 - NO'
p2897
ssS'7106'
p2898
(dp2899
g597
(lp2900
S'81102 - PM10_._7106'
p2901
asg600
g9
((lp2902
S'BETR731'
p2903
atRp2904
sg602
S'81102 - PM10'
p2905
ssS'7107'
p2906
(dp2907
g597
(lp2908
S'81104 - PM2.5_._7107'
p2909
asg600
g9
((lp2910
S'BETR731'
p2911
atRp2912
sg602
S'81104 - PM2.5'
p2913
ssS'6864'
p2914
(dp2915
g597
(lp2916
S'42401 - SO2_._6864'
p2917
asg600
g9
((lp2918
S'BETR893'
p2919
atRp2920
sg602
S'42401 - SO2'
p2921
ssS'6865'
p2922
(dp2923
g597
(lp2924
S'42601 - NO_._6865'
p2925
asg600
g9
((lp2926
S'BETR893'
p2927
atRp2928
sg602
S'42601 - NO'
p2929
ssS'6866'
p2930
(dp2931
g597
(lp2932
S'42602 - NO2_._6866'
p2933
asg600
g9
((lp2934
S'BETR893'
p2935
atRp2936
sg602
S'42602 - NO2'
p2937
ssS'6860'
p2938
(dp2939
g597
(lp2940
S'42401 - SO2_._6860'
p2941
asg600
g9
((lp2942
S'BETR892'
p2943
atRp2944
sg602
S'42401 - SO2'
p2945
ssS'6861'
p2946
(dp2947
g597
(lp2948
S'42601 - NO_._6861'
p2949
asg600
g9
((lp2950
S'BETR892'
p2951
atRp2952
sg602
S'42601 - NO'
p2953
ssS'6862'
p2954
(dp2955
g597
(lp2956
S'42602 - NO2_._6862'
p2957
asg600
g9
((lp2958
S'BETR892'
p2959
atRp2960
sg602
S'42602 - NO2'
p2961
ssS'7069'
p2962
(dp2963
g597
(lp2964
S'81102 - PM10_._7069'
p2965
asg600
g9
((lp2966
S'BETN052'
p2967
atRp2968
sg602
S'81102 - PM10'
p2969
ssS'7068'
p2970
(dp2971
g597
(lp2972
S'44201 - O3_._7068'
p2973
asg600
g9
((lp2974
S'BETN052'
p2975
atRp2976
sg602
S'44201 - O3'
p2977
ssS'7067'
p2978
(dp2979
g597
(lp2980
S'42602 - NO2_._7067'
p2981
asg600
g9
((lp2982
S'BETN052'
p2983
atRp2984
sg602
S'42602 - NO2'
p2985
ssS'7066'
p2986
(dp2987
g597
(lp2988
S'42601 - NO_._7066'
p2989
asg600
g9
((lp2990
S'BETN052'
p2991
atRp2992
sg602
S'42601 - NO'
p2993
ssS'7065'
p2994
(dp2995
g597
(lp2996
S'42401 - SO2_._7065'
p2997
asg600
g9
((lp2998
S'BETN052'
p2999
atRp3000
sg602
S'42401 - SO2'
p3001
ssS'7064'
p3002
(dp3003
g597
(lp3004
S'44201 - O3_._7064'
p3005
asg600
g9
((lp3006
S'BETN051'
p3007
atRp3008
sg602
S'44201 - O3'
p3009
ssS'7063'
p3010
(dp3011
g597
(lp3012
S'42602 - NO2_._7063'
p3013
asg600
g9
((lp3014
S'BETN051'
p3015
atRp3016
sg602
S'42602 - NO2'
p3017
ssS'7062'
p3018
(dp3019
g597
(lp3020
S'42601 - NO_._7062'
p3021
asg600
g9
((lp3022
S'BETN051'
p3023
atRp3024
sg602
S'42601 - NO'
p3025
ssS'6961'
p3026
(dp3027
g597
(lp3028
S'42602 - NO2_._6961'
p3029
asg600
g9
((lp3030
S'BETN121'
p3031
atRp3032
sg602
S'42602 - NO2'
p3033
ssS'6960'
p3034
(dp3035
g597
(lp3036
S'42601 - NO_._6960'
p3037
asg600
g9
((lp3038
S'BETN121'
p3039
atRp3040
sg602
S'42601 - NO'
p3041
ssS'6963'
p3042
(dp3043
g597
(lp3044
S'81102 - PM10_._6963'
p3045
asg600
g9
((lp3046
S'BETN121'
p3047
atRp3048
sg602
S'81102 - PM10'
p3049
ssS'6962'
p3050
(dp3051
g597
(lp3052
S'44201 - O3_._6962'
p3053
asg600
g9
((lp3054
S'BETN121'
p3055
atRp3056
sg602
S'44201 - O3'
p3057
ssS'6965'
p3058
(dp3059
g597
(lp3060
S'42101 - CO_._6965'
p3061
asg600
g9
((lp3062
S'BETN132'
p3063
atRp3064
sg602
S'42101 - CO'
p3065
ssS'6964'
p3066
(dp3067
g597
(lp3068
S'81104 - PM2.5_._6964'
p3069
asg600
g9
((lp3070
S'BETN121'
p3071
atRp3072
sg602
S'81104 - PM2.5'
p3073
ssS'6967'
p3074
(dp3075
g597
(lp3076
S'42601 - NO_._6967'
p3077
asg600
g9
((lp3078
S'BETN132'
p3079
atRp3080
sg602
S'42601 - NO'
p3081
ssS'6966'
p3082
(dp3083
g597
(lp3084
S'42401 - SO2_._6966'
p3085
asg600
g9
((lp3086
S'BETN132'
p3087
atRp3088
sg602
S'42401 - SO2'
p3089
ssS'6969'
p3090
(dp3091
g597
(lp3092
S'44201 - O3_._6969'
p3093
asg600
g9
((lp3094
S'BETN132'
p3095
atRp3096
sg602
S'44201 - O3'
p3097
ssS'6968'
p3098
(dp3099
g597
(lp3100
S'42602 - NO2_._6968'
p3101
asg600
g9
((lp3102
S'BETN132'
p3103
atRp3104
sg602
S'42602 - NO2'
p3105
ssS'7193'
p3106
(dp3107
g597
(lp3108
S'42401 - SO2_._7193'
p3109
asg600
g9
((lp3110
S'BETE703'
p3111
atRp3112
sg602
S'42401 - SO2'
p3113
ssS'7192'
p3114
(dp3115
g597
(lp3116
S'42602 - NO2_._7192'
p3117
asg600
g9
((lp3118
S'BETE702'
p3119
atRp3120
sg602
S'42602 - NO2'
p3121
ssS'7191'
p3122
(dp3123
g597
(lp3124
S'42601 - NO_._7191'
p3125
asg600
g9
((lp3126
S'BETE702'
p3127
atRp3128
sg602
S'42601 - NO'
p3129
ssS'7195'
p3130
(dp3131
g597
(lp3132
S'42602 - NO2_._7195'
p3133
asg600
g9
((lp3134
S'BETE703'
p3135
atRp3136
sg602
S'42602 - NO2'
p3137
ssS'7194'
p3138
(dp3139
g597
(lp3140
S'42601 - NO_._7194'
p3141
asg600
g9
((lp3142
S'BETE703'
p3143
atRp3144
sg602
S'42601 - NO'
p3145
ssS'99926'
p3146
(dp3147
g597
(lp3148
S'62101 - TT_._99926'
p3149
asg600
g9
((ltRp3150
sg602
S'62101 - TT'
p3151
ssS'6914'
p3152
(dp3153
g597
(lp3154
S'42101 - CO_._6914'
p3155
asg600
g9
((lp3156
S'BETN070'
p3157
atRp3158
sg602
S'42101 - CO'
p3159
ssS'6915'
p3160
(dp3161
g597
(lp3162
S'42401 - SO2_._6915'
p3163
asg600
g9
((lp3164
S'BETN070'
p3165
atRp3166
sg602
S'42401 - SO2'
p3167
ssS'6916'
p3168
(dp3169
g597
(lp3170
S'42601 - NO_._6916'
p3171
asg600
g9
((lp3172
S'BETN070'
p3173
atRp3174
sg602
S'42601 - NO'
p3175
ssS'6917'
p3176
(dp3177
g597
(lp3178
S'42602 - NO2_._6917'
p3179
asg600
g9
((lp3180
S'BETN070'
p3181
atRp3182
sg602
S'42602 - NO2'
p3183
ssS'6910'
p3184
(dp3185
g597
(lp3186
S'89101 - PM1_._6910'
p3187
asg600
g9
((ltRp3188
sg602
S'89101 - PM1'
p3189
ssS'6911'
p3190
(dp3191
g597
(lp3192
S'81102 - PM10_._6911'
p3193
asg600
g9
((lp3194
S'BETN067'
p3195
atRp3196
sg602
S'81102 - PM10'
p3197
ssS'6912'
p3198
(dp3199
g597
(lp3200
S'81104 - PM2.5_._6912'
p3201
asg600
g9
((lp3202
S'BETN067'
p3203
atRp3204
sg602
S'81104 - PM2.5'
p3205
ssS'6913'
p3206
(dp3207
g597
(lp3208
S'89101 - PM1_._6913'
p3209
asg600
g9
((lp3210
S'BETN067'
p3211
atRp3212
sg602
S'89101 - PM1'
p3213
ssS'6918'
p3214
(dp3215
g597
(lp3216
S'44201 - O3_._6918'
p3217
asg600
g9
((lp3218
S'BETN070'
p3219
atRp3220
sg602
S'44201 - O3'
p3221
ssS'6919'
p3222
(dp3223
g597
(lp3224
S'81102 - PM10_._6919'
p3225
asg600
g9
((lp3226
S'BETN070'
p3227
atRp3228
sg602
S'81102 - PM10'
p3229
ssS'7221'
p3230
(dp3231
g597
(lp3232
S'42601 - NO_._7221'
p3233
asg600
g9
((ltRp3234
sg602
S'42601 - NO'
p3235
ssS'6569'
p3236
(dp3237
g597
(lp3238
S'16111 - Black Carbon_._6569'
p3239
asg600
g9
((lp3240
S'BETR001'
p3241
atRp3242
sg602
S'16111 - Black Carbon'
p3243
ssS'99939'
p3244
(dp3245
g597
(lp3246
S'61102 - DD_._99939'
p3247
asg600
g9
((lp3248
S'BETR012'
p3249
atRp3250
sg602
S'61102 - DD'
p3251
ssS'7220'
p3252
(dp3253
g597
(lp3254
S'42401 - SO2_._7220'
p3255
asg600
g9
((ltRp3256
sg602
S'42401 - SO2'
p3257
ssS'6564'
p3258
(dp3259
g597
(lp3260
S'81104 - PM2.5_._6564'
p3261
asg600
g9
((lp3262
S'BETN043'
p3263
atRp3264
sg602
S'81104 - PM2.5'
p3265
ssS'99938'
p3266
(dp3267
g597
(lp3268
S'62101 - TT_._99938'
p3269
asg600
g9
((ltRp3270
sg602
S'62101 - TT'
p3271
ssS'6561'
p3272
(dp3273
g597
(lp3274
S'42602 - NO2_._6561'
p3275
asg600
g9
((lp3276
S'BETN043'
p3277
atRp3278
sg602
S'42602 - NO2'
p3279
ssS'6560'
p3280
(dp3281
g597
(lp3282
S'42601 - NO_._6560'
p3283
asg600
g9
((lp3284
S'BETN043'
p3285
atRp3286
sg602
S'42601 - NO'
p3287
ssS'6563'
p3288
(dp3289
g597
(lp3290
S'81102 - PM10_._6563'
p3291
asg600
g9
((lp3292
S'BETN043'
p3293
atRp3294
sg602
S'81102 - PM10'
p3295
ssS'6562'
p3296
(dp3297
g597
(lp3298
S'44201 - O3_._6562'
p3299
asg600
g9
((lp3300
S'BETN043'
p3301
atRp3302
sg602
S'44201 - O3'
p3303
ssS'10611'
p3304
(dp3305
g597
(lp3306
S'42602 - NO2_._10611'
p3307
asg600
g9
((lp3308
S'BETR834'
p3309
atRp3310
sg602
S'42602 - NO2'
p3311
ssS'10610'
p3312
(dp3313
g597
(lp3314
S'81102 - PM10_._10610'
p3315
asg600
g9
((lp3316
S'BETR834'
p3317
atRp3318
sg602
S'81102 - PM10'
p3319
ssS'10613'
p3320
(dp3321
g597
(lp3322
S'42601 - NO_._10613'
p3323
asg600
g9
((lp3324
S'BETB008'
p3325
atRp3326
sg602
S'42601 - NO'
p3327
ssS'10612'
p3328
(dp3329
g597
(lp3330
S'42601 - NO_._10612'
p3331
asg600
g9
((lp3332
S'BETR834'
p3333
atRp3334
sg602
S'42601 - NO'
p3335
ssS'10615'
p3336
(dp3337
g597
(lp3338
S'42401 - SO2_._10615'
p3339
asg600
g9
((lp3340
S'BETB008'
p3341
atRp3342
sg602
S'42401 - SO2'
p3343
ssS'10614'
p3344
(dp3345
g597
(lp3346
S'42602 - NO2_._10614'
p3347
asg600
g9
((lp3348
S'BETB008'
p3349
atRp3350
sg602
S'42602 - NO2'
p3351
ssS'10616'
p3352
(dp3353
g597
(lp3354
S'42101 - CO_._10616'
p3355
asg600
g9
((lp3356
S'BETB008'
p3357
atRp3358
sg602
S'42101 - CO'
p3359
ssS'99935'
p3360
(dp3361
g597
(lp3362
S'62101 - TT_._99935'
p3363
asg600
g9
((lp3364
S'BETR223'
p3365
atRp3366
sg602
S'62101 - TT'
p3367
ssS'7115'
p3368
(dp3369
g597
(lp3370
S'44201 - O3_._7115'
p3371
asg600
g9
((lp3372
S'BETR740'
p3373
atRp3374
sg602
S'44201 - O3'
p3375
ssS'6709'
p3376
(dp3377
g597
(lp3378
S'42601 - NO_._6709'
p3379
asg600
g9
((lp3380
S'BETN027'
p3381
atRp3382
sg602
S'42601 - NO'
p3383
ssS'7229'
p3384
(dp3385
g597
(lp3386
S'42401 - SO2_._7229'
p3387
asg600
g9
((lp3388
S'BETE811'
p3389
atRp3390
sg602
S'42401 - SO2'
p3391
ssS'99931'
p3392
(dp3393
g597
(lp3394
S'61110 - WSP-SCA_._99931'
p3395
asg600
g9
((ltRp3396
sg602
S'61110 - WSP-SCA'
p3397
ssS'7228'
p3398
(dp3399
g597
(lp3400
S'42602 - NO2_._7228'
p3401
asg600
g9
((ltRp3402
sg602
S'42602 - NO2'
p3403
ssS'6701'
p3404
(dp3405
g597
(lp3406
S'42601 - NO_._6701'
p3407
asg600
g9
((lp3408
S'BETN016'
p3409
atRp3410
sg602
S'42601 - NO'
p3411
ssS'6700'
p3412
(dp3413
g597
(lp3414
S'42401 - SO2_._6700'
p3415
asg600
g9
((lp3416
S'BETN016'
p3417
atRp3418
sg602
S'42401 - SO2'
p3419
ssS'6703'
p3420
(dp3421
g597
(lp3422
S'44201 - O3_._6703'
p3423
asg600
g9
((lp3424
S'BETN016'
p3425
atRp3426
sg602
S'44201 - O3'
p3427
ssS'6702'
p3428
(dp3429
g597
(lp3430
S'42602 - NO2_._6702'
p3431
asg600
g9
((lp3432
S'BETN016'
p3433
atRp3434
sg602
S'42602 - NO2'
p3435
ssS'6704'
p3436
(dp3437
g597
(lp3438
S'81102 - PM10_._6704'
p3439
asg600
g9
((lp3440
S'BETN016'
p3441
atRp3442
sg602
S'81102 - PM10'
p3443
ssS'6824'
p3444
(dp3445
g597
(lp3446
S'42401 - SO2_._6824'
p3447
asg600
g9
((lp3448
S'BETR830'
p3449
atRp3450
sg602
S'42401 - SO2'
p3451
ssS'6825'
p3452
(dp3453
g597
(lp3454
S'42601 - NO_._6825'
p3455
asg600
g9
((lp3456
S'BETR830'
p3457
atRp3458
sg602
S'42601 - NO'
p3459
ssS'6826'
p3460
(dp3461
g597
(lp3462
S'42602 - NO2_._6826'
p3463
asg600
g9
((lp3464
S'BETR830'
p3465
atRp3466
sg602
S'42602 - NO2'
p3467
ssS'6828'
p3468
(dp3469
g597
(lp3470
S'42401 - SO2_._6828'
p3471
asg600
g9
((lp3472
S'BETR831'
p3473
atRp3474
sg602
S'42401 - SO2'
p3475
ssS'6829'
p3476
(dp3477
g597
(lp3478
S'42601 - NO_._6829'
p3479
asg600
g9
((lp3480
S'BETR831'
p3481
atRp3482
sg602
S'42601 - NO'
p3483
ssS'6675'
p3484
(dp3485
g597
(lp3486
S'45204 - o-C6H4-(CH3)2_._6675'
p3487
asg600
g9
((ltRp3488
sg602
S'45204 - o-C6H4-(CH3)2'
p3489
ssS'6674'
p3490
(dp3491
g597
(lp3492
S'45203 - C6H5-C2H5_._6674'
p3493
asg600
g9
((ltRp3494
sg602
S'45203 - C6H5-C2H5'
p3495
ssS'7021'
p3496
(dp3497
g597
(lp3498
S'81102 - PM10_._7021'
p3499
asg600
g9
((lp3500
S'BETR240'
p3501
atRp3502
sg602
S'81102 - PM10'
p3503
ssS'7020'
p3504
(dp3505
g597
(lp3506
S'44201 - O3_._7020'
p3507
asg600
g9
((lp3508
S'BETR240'
p3509
atRp3510
sg602
S'44201 - O3'
p3511
ssS'6671'
p3512
(dp3513
g597
(lp3514
S'45109 - m,p-C6H4(CH3)2_._6671'
p3515
asg600
g9
((ltRp3516
sg602
S'45109 - m,p-C6H4(CH3)2'
p3517
ssS'7026'
p3518
(dp3519
g597
(lp3520
S'42602 - NO2_._7026'
p3521
asg600
g9
((lp3522
S'BETM702'
p3523
atRp3524
sg602
S'42602 - NO2'
p3525
ssS'6673'
p3526
(dp3527
g597
(lp3528
S'45202 - C6H5-CH3_._6673'
p3529
asg600
g9
((ltRp3530
sg602
S'45202 - C6H5-CH3'
p3531
ssS'6672'
p3532
(dp3533
g597
(lp3534
S'45201 - C6H6_._6672'
p3535
asg600
g9
((ltRp3536
sg602
S'45201 - C6H6'
p3537
ssS'7029'
p3538
(dp3539
g597
(lp3540
S'16111 - Black Carbon_._7029'
p3541
asg600
g9
((lp3542
S'BETM705'
p3543
atRp3544
sg602
S'16111 - Black Carbon'
p3545
ssS'7023'
p3546
(dp3547
g597
(lp3548
S'89101 - PM1_._7023'
p3549
asg600
g9
((ltRp3550
sg602
S'89101 - PM1'
p3551
ssS'6778'
p3552
(dp3553
g597
(lp3554
S'44201 - O3_._6778'
p3555
asg600
g9
((lp3556
S'BETR801'
p3557
atRp3558
sg602
S'44201 - O3'
p3559
ssS'6779'
p3560
(dp3561
g597
(lp3562
S'45109 - m,p-C6H4(CH3)2_._6779'
p3563
asg600
g9
((ltRp3564
sg602
S'45109 - m,p-C6H4(CH3)2'
p3565
ssS'7022'
p3566
(dp3567
g597
(lp3568
S'81104 - PM2.5_._7022'
p3569
asg600
g9
((lp3570
S'BETR240'
p3571
atRp3572
sg602
S'81104 - PM2.5'
p3573
ssS'6774'
p3574
(dp3575
g597
(lp3576
S'42401 - SO2_._6774'
p3577
asg600
g9
((lp3578
S'BETR801'
p3579
atRp3580
sg602
S'42401 - SO2'
p3581
ssS'6775'
p3582
(dp3583
g597
(lp3584
S'42601 - NO_._6775'
p3585
asg600
g9
((lp3586
S'BETR801'
p3587
atRp3588
sg602
S'42601 - NO'
p3589
ssS'6776'
p3590
(dp3591
g597
(lp3592
S'42602 - NO2_._6776'
p3593
asg600
g9
((lp3594
S'BETR801'
p3595
atRp3596
sg602
S'42602 - NO2'
p3597
ssS'6771'
p3598
(dp3599
g597
(lp3600
S'81102 - PM10_._6771'
p3601
asg600
g9
((lp3602
S'BETR020'
p3603
atRp3604
sg602
S'81102 - PM10'
p3605
ssS'6773'
p3606
(dp3607
g597
(lp3608
S'42101 - CO_._6773'
p3609
asg600
g9
((lp3610
S'BETR801'
p3611
atRp3612
sg602
S'42101 - CO'
p3613
ssS'7025'
p3614
(dp3615
g597
(lp3616
S'42601 - NO_._7025'
p3617
asg600
g9
((lp3618
S'BETM702'
p3619
atRp3620
sg602
S'42601 - NO'
p3621
ssS'7054'
p3622
(dp3623
g597
(lp3624
S'81102 - PM10_._7054'
p3625
asg600
g9
((lp3626
S'BETN029'
p3627
atRp3628
sg602
S'81102 - PM10'
p3629
ssS'7055'
p3630
(dp3631
g597
(lp3632
S'81104 - PM2.5_._7055'
p3633
asg600
g9
((lp3634
S'BETN029'
p3635
atRp3636
sg602
S'81104 - PM2.5'
p3637
ssS'7096'
p3638
(dp3639
g597
(lp3640
S'42601 - NO_._7096'
p3641
asg600
g9
((lp3642
S'BETR721'
p3643
atRp3644
sg602
S'42601 - NO'
p3645
ssS'7097'
p3646
(dp3647
g597
(lp3648
S'42602 - NO2_._7097'
p3649
asg600
g9
((lp3650
S'BETR721'
p3651
atRp3652
sg602
S'42602 - NO2'
p3653
ssS'99900'
p3654
(dp3655
g597
(lp3656
S'61102 - DD_._99900'
p3657
asg600
g9
((lp3658
S'BETN029'
p3659
atRp3660
sg602
S'61102 - DD'
p3661
ssS'7095'
p3662
(dp3663
g597
(lp3664
S'42401 - SO2_._7095'
p3665
asg600
g9
((lp3666
S'BETR721'
p3667
atRp3668
sg602
S'42401 - SO2'
p3669
ssS'7092'
p3670
(dp3671
g597
(lp3672
S'81102 - PM10_._7092'
p3673
asg600
g9
((lp3674
S'BETR710'
p3675
atRp3676
sg602
S'81102 - PM10'
p3677
ssS'99907'
p3678
(dp3679
g597
(lp3680
S'61110 - WSP-SCA_._99907'
p3681
asg600
g9
((lp3682
S'BETR701'
p3683
atRp3684
sg602
S'61110 - WSP-SCA'
p3685
ssS'7090'
p3686
(dp3687
g597
(lp3688
S'42602 - NO2_._7090'
p3689
asg600
g9
((lp3690
S'BETR710'
p3691
atRp3692
sg602
S'42602 - NO2'
p3693
ssS'7091'
p3694
(dp3695
g597
(lp3696
S'44201 - O3_._7091'
p3697
asg600
g9
((lp3698
S'BETR710'
p3699
atRp3700
sg602
S'44201 - O3'
p3701
ssS'7157'
p3702
(dp3703
g597
(lp3704
S'42101 - CO_._7157'
p3705
asg600
g9
((lp3706
S'BETR512'
p3707
atRp3708
sg602
S'42101 - CO'
p3709
ssS'7155'
p3710
(dp3711
g597
(lp3712
S'16111 - Black Carbon_._7155'
p3713
asg600
g9
((lp3714
S'BETR512'
p3715
atRp3716
sg602
S'16111 - Black Carbon'
p3717
ssS'99909'
p3718
(dp3719
g597
(lp3720
S'61102 - DD_._99909'
p3721
asg600
g9
((lp3722
S'BETM802'
p3723
atRp3724
sg602
S'61102 - DD'
p3725
ssS'7153'
p3726
(dp3727
g597
(lp3728
S'89101 - PM1_._7153'
p3729
asg600
g9
((ltRp3730
sg602
S'89101 - PM1'
p3731
ssS'7152'
p3732
(dp3733
g597
(lp3734
S'81104 - PM2.5_._7152'
p3735
asg600
g9
((lp3736
S'BETR511'
p3737
atRp3738
sg602
S'81104 - PM2.5'
p3739
ssS'7151'
p3740
(dp3741
g597
(lp3742
S'81102 - PM10_._7151'
p3743
asg600
g9
((lp3744
S'BETR511'
p3745
atRp3746
sg602
S'81102 - PM10'
p3747
ssS'6688'
p3748
(dp3749
g597
(lp3750
S'42401 - SO2_._6688'
p3751
asg600
g9
((lp3752
S'BETM802'
p3753
atRp3754
sg602
S'42401 - SO2'
p3755
ssS'6689'
p3756
(dp3757
g597
(lp3758
S'42601 - NO_._6689'
p3759
asg600
g9
((lp3760
S'BETM802'
p3761
atRp3762
sg602
S'42601 - NO'
p3763
ssS'6687'
p3764
(dp3765
g597
(lp3766
S'16111 - Black Carbon_._6687'
p3767
asg600
g9
((lp3768
S'BETM802'
p3769
atRp3770
sg602
S'16111 - Black Carbon'
p3771
ssS'99905'
p3772
(dp3773
g597
(lp3774
S'62101 - TT_._99905'
p3775
asg600
g9
((lp3776
S'BETM705'
p3777
atRp3778
sg602
S'62101 - TT'
p3779
ssS'6509'
p3780
(dp3781
g597
(lp3782
S'44201 - O3_._6509'
p3783
asg600
g9
((lp3784
S'BETB004'
p3785
atRp3786
sg602
S'44201 - O3'
p3787
ssS'6521'
p3788
(dp3789
g597
(lp3790
S'45203 - C6H5-C2H5_._6521'
p3791
asg600
g9
((lp3792
S'BETB006'
p3793
atRp3794
sg602
S'45203 - C6H5-C2H5'
p3795
ssS'6520'
p3796
(dp3797
g597
(lp3798
S'45202 - C6H5-CH3_._6520'
p3799
asg600
g9
((lp3800
S'BETB006'
p3801
atRp3802
sg602
S'45202 - C6H5-CH3'
p3803
ssS'6488'
p3804
(dp3805
g597
(lp3806
S'45202 - C6H5-CH3_._6488'
p3807
asg600
g9
((ltRp3808
sg602
S'45202 - C6H5-CH3'
p3809
ssS'6522'
p3810
(dp3811
g597
(lp3812
S'45204 - o-C6H4-(CH3)2_._6522'
p3813
asg600
g9
((lp3814
S'BETB006'
p3815
atRp3816
sg602
S'45204 - o-C6H4-(CH3)2'
p3817
ssS'6527'
p3818
(dp3819
g597
(lp3820
S'42601 - NO_._6527'
p3821
asg600
g9
((lp3822
S'BETB011'
p3823
atRp3824
sg602
S'42601 - NO'
p3825
ssS'6950'
p3826
(dp3827
g597
(lp3828
S'81102 - PM10_._6950'
p3829
asg600
g9
((lp3830
S'BETN100'
p3831
atRp3832
sg602
S'81102 - PM10'
p3833
ssS'6528'
p3834
(dp3835
g597
(lp3836
S'42602 - NO2_._6528'
p3837
asg600
g9
((lp3838
S'BETB011'
p3839
atRp3840
sg602
S'42602 - NO2'
p3841
ssS'6952'
p3842
(dp3843
g597
(lp3844
S'89101 - PM1_._6952'
p3845
asg600
g9
((ltRp3846
sg602
S'89101 - PM1'
p3847
ssS'6486'
p3848
(dp3849
g597
(lp3850
S'45109 - m,p-C6H4(CH3)2_._6486'
p3851
asg600
g9
((ltRp3852
sg602
S'45109 - m,p-C6H4(CH3)2'
p3853
ssS'6487'
p3854
(dp3855
g597
(lp3856
S'45201 - C6H6_._6487'
p3857
asg600
g9
((lp3858
S'BELZL01'
p3859
atRp3860
sg602
S'45201 - C6H6'
p3861
ssS'6956'
p3862
(dp3863
g597
(lp3864
S'44201 - O3_._6956'
p3865
asg600
g9
((lp3866
S'BETN113'
p3867
atRp3868
sg602
S'44201 - O3'
p3869
ssS'6957'
p3870
(dp3871
g597
(lp3872
S'81102 - PM10_._6957'
p3873
asg600
g9
((lp3874
S'BETN113'
p3875
atRp3876
sg602
S'81102 - PM10'
p3877
ssS'6356'
p3878
(dp3879
g597
(lp3880
S'81104 - PM2.5_._6356'
p3881
asg600
g9
((lp3882
S'BELSZ01'
p3883
atRp3884
sg602
S'81104 - PM2.5'
p3885
ssS'6196'
p3886
(dp3887
g597
(lp3888
S'81102 - PM10_._6196'
p3889
asg600
g9
((lp3890
S'BELGK06'
p3891
atRp3892
sg602
S'81102 - PM10'
p3893
ssS'6198'
p3894
(dp3895
g597
(lp3896
S'42401 - SO2_._6198'
p3897
asg600
g9
((lp3898
S'BELGK09'
p3899
atRp3900
sg602
S'42401 - SO2'
p3901
ssS'6199'
p3902
(dp3903
g597
(lp3904
S'42601 - NO_._6199'
p3905
asg600
g9
((lp3906
S'BELGK09'
p3907
atRp3908
sg602
S'42601 - NO'
p3909
ssS'7148'
p3910
(dp3911
g597
(lp3912
S'81102 - PM10_._7148'
p3913
asg600
g9
((lp3914
S'BETR510'
p3915
atRp3916
sg602
S'81102 - PM10'
p3917
ssS'6951'
p3918
(dp3919
g597
(lp3920
S'81104 - PM2.5_._6951'
p3921
asg600
g9
((lp3922
S'BETN100'
p3923
atRp3924
sg602
S'81104 - PM2.5'
p3925
ssS'7209'
p3926
(dp3927
g597
(lp3928
S'42601 - NO_._7209'
p3929
asg600
g9
((lp3930
S'BETE804'
p3931
atRp3932
sg602
S'42601 - NO'
p3933
ssS'7208'
p3934
(dp3935
g597
(lp3936
S'42401 - SO2_._7208'
p3937
asg600
g9
((ltRp3938
sg602
S'42401 - SO2'
p3939
ssS'6550'
p3940
(dp3941
g597
(lp3942
S'42601 - NO_._6550'
p3943
asg600
g9
((lp3944
S'BETMEU1'
p3945
atRp3946
sg602
S'42601 - NO'
p3947
ssS'6551'
p3948
(dp3949
g597
(lp3950
S'42602 - NO2_._6551'
p3951
asg600
g9
((lp3952
S'BETMEU1'
p3953
atRp3954
sg602
S'42602 - NO2'
p3955
ssS'6552'
p3956
(dp3957
g597
(lp3958
S'81102 - PM10_._6552'
p3959
asg600
g9
((lp3960
S'BETMEU1'
p3961
atRp3962
sg602
S'81102 - PM10'
p3963
ssS'6553'
p3964
(dp3965
g597
(lp3966
S'81104 - PM2.5_._6553'
p3967
asg600
g9
((lp3968
S'BETMEU1'
p3969
atRp3970
sg602
S'81104 - PM2.5'
p3971
ssS'7203'
p3972
(dp3973
g597
(lp3974
S'42601 - NO_._7203'
p3975
asg600
g9
((lp3976
S'BETE715'
p3977
atRp3978
sg602
S'42601 - NO'
p3979
ssS'6622'
p3980
(dp3981
g597
(lp3982
S'42602 - NO2_._6622'
p3983
asg600
g9
((lp3984
S'BETR012'
p3985
atRp3986
sg602
S'42602 - NO2'
p3987
ssS'7201'
p3988
(dp3989
g597
(lp3990
S'42602 - NO2_._7201'
p3991
asg600
g9
((lp3992
S'BETE714'
p3993
atRp3994
sg602
S'42602 - NO2'
p3995
ssS'7200'
p3996
(dp3997
g597
(lp3998
S'42601 - NO_._7200'
p3999
asg600
g9
((lp4000
S'BETE714'
p4001
atRp4002
sg602
S'42601 - NO'
p4003
ssS'6558'
p4004
(dp4005
g597
(lp4006
S'42101 - CO_._6558'
p4007
asg600
g9
((lp4008
S'BETN043'
p4009
atRp4010
sg602
S'42101 - CO'
p4011
ssS'6559'
p4012
(dp4013
g597
(lp4014
S'42401 - SO2_._6559'
p4015
asg600
g9
((lp4016
S'BETN043'
p4017
atRp4018
sg602
S'42401 - SO2'
p4019
ssS'7204'
p4020
(dp4021
g597
(lp4022
S'42602 - NO2_._7204'
p4023
asg600
g9
((lp4024
S'BETE715'
p4025
atRp4026
sg602
S'42602 - NO2'
p4027
ssS'7119'
p4028
(dp4029
g597
(lp4030
S'42101 - CO_._7119'
p4031
asg600
g9
((lp4032
S'BETR750'
p4033
atRp4034
sg602
S'42101 - CO'
p4035
ssS'6639'
p4036
(dp4037
g597
(lp4038
S'42602 - NO2_._6639'
p4039
asg600
g9
((lp4040
S'BETWOL1'
p4041
atRp4042
sg602
S'42602 - NO2'
p4043
ssS'6731'
p4044
(dp4045
g597
(lp4046
S'44201 - O3_._6731'
p4047
asg600
g9
((lp4048
S'BETN045'
p4049
atRp4050
sg602
S'44201 - O3'
p4051
ssS'6732'
p4052
(dp4053
g597
(lp4054
S'45109 - m,p-C6H4(CH3)2_._6732'
p4055
asg600
g9
((ltRp4056
sg602
S'45109 - m,p-C6H4(CH3)2'
p4057
ssS'6733'
p4058
(dp4059
g597
(lp4060
S'45201 - C6H6_._6733'
p4061
asg600
g9
((lp4062
S'BETN045'
p4063
atRp4064
sg602
S'45201 - C6H6'
p4065
ssS'6734'
p4066
(dp4067
g597
(lp4068
S'45202 - C6H5-CH3_._6734'
p4069
asg600
g9
((ltRp4070
sg602
S'45202 - C6H5-CH3'
p4071
ssS'6735'
p4072
(dp4073
g597
(lp4074
S'45203 - C6H5-C2H5_._6735'
p4075
asg600
g9
((ltRp4076
sg602
S'45203 - C6H5-C2H5'
p4077
ssS'6736'
p4078
(dp4079
g597
(lp4080
S'45204 - o-C6H4-(CH3)2_._6736'
p4081
asg600
g9
((ltRp4082
sg602
S'45204 - o-C6H4-(CH3)2'
p4083
ssS'6739'
p4084
(dp4085
g597
(lp4086
S'81102 - PM10_._6739'
p4087
asg600
g9
((lp4088
S'BETN045'
p4089
atRp4090
sg602
S'81102 - PM10'
p4091
ssS'6633'
p4092
(dp4093
g597
(lp4094
S'16111 - Black Carbon_._6633'
p4095
asg600
g9
((lp4096
S'BETWOL1'
p4097
atRp4098
sg602
S'16111 - Black Carbon'
p4099
ssS'6635'
p4100
(dp4101
g597
(lp4102
S'42101 - CO_._6635'
p4103
asg600
g9
((lp4104
S'BETWOL1'
p4105
atRp4106
sg602
S'42101 - CO'
p4107
ssS'6637'
p4108
(dp4109
g597
(lp4110
S'42401 - SO2_._6637'
p4111
asg600
g9
((lp4112
S'BETWOL1'
p4113
atRp4114
sg602
S'42401 - SO2'
p4115
ssS'6636'
p4116
(dp4117
g597
(lp4118
S'42102 - CO2_._6636'
p4119
asg600
g9
((lp4120
S'BETWOL1'
p4121
atRp4122
sg602
S'42102 - CO2'
p4123
ssS'7111'
p4124
(dp4125
g597
(lp4126
S'42602 - NO2_._7111'
p4127
asg600
g9
((lp4128
S'BETR740'
p4129
atRp4130
sg602
S'42602 - NO2'
p4131
ssS'7110'
p4132
(dp4133
g597
(lp4134
S'42601 - NO_._7110'
p4135
asg600
g9
((lp4136
S'BETR740'
p4137
atRp4138
sg602
S'42601 - NO'
p4139
ssS'7117'
p4140
(dp4141
g597
(lp4142
S'81102 - PM10_._7117'
p4143
asg600
g9
((lp4144
S'BETR740'
p4145
atRp4146
sg602
S'81102 - PM10'
p4147
ssS'6879'
p4148
(dp4149
g597
(lp4150
S'42401 - SO2_._6879'
p4151
asg600
g9
((lp4152
S'BETH201'
p4153
atRp4154
sg602
S'42401 - SO2'
p4155
ssS'6875'
p4156
(dp4157
g597
(lp4158
S'42602 - NO2_._6875'
p4159
asg600
g9
((lp4160
S'BETR897'
p4161
atRp4162
sg602
S'42602 - NO2'
p4163
ssS'6874'
p4164
(dp4165
g597
(lp4166
S'42601 - NO_._6874'
p4167
asg600
g9
((lp4168
S'BETR897'
p4169
atRp4170
sg602
S'42601 - NO'
p4171
ssS'6873'
p4172
(dp4173
g597
(lp4174
S'42401 - SO2_._6873'
p4175
asg600
g9
((lp4176
S'BETR897'
p4177
atRp4178
sg602
S'42401 - SO2'
p4179
ssS'6870'
p4180
(dp4181
g597
(lp4182
S'42602 - NO2_._6870'
p4183
asg600
g9
((lp4184
S'BETR894'
p4185
atRp4186
sg602
S'42602 - NO2'
p4187
ssS'7052'
p4188
(dp4189
g597
(lp4190
S'45203 - C6H5-C2H5_._7052'
p4191
asg600
g9
((ltRp4192
sg602
S'45203 - C6H5-C2H5'
p4193
ssS'7053'
p4194
(dp4195
g597
(lp4196
S'45204 - o-C6H4-(CH3)2_._7053'
p4197
asg600
g9
((ltRp4198
sg602
S'45204 - o-C6H4-(CH3)2'
p4199
ssS'7050'
p4200
(dp4201
g597
(lp4202
S'45201 - C6H6_._7050'
p4203
asg600
g9
((lp4204
S'BETN029'
p4205
atRp4206
sg602
S'45201 - C6H6'
p4207
ssS'7051'
p4208
(dp4209
g597
(lp4210
S'45202 - C6H5-CH3_._7051'
p4211
asg600
g9
((ltRp4212
sg602
S'45202 - C6H5-CH3'
p4213
ssS'6642'
p4214
(dp4215
g597
(lp4216
S'44201 - O3_._6642'
p4217
asg600
g9
((lp4218
S'BETWOL1'
p4219
atRp4220
sg602
S'44201 - O3'
p4221
ssS'6643'
p4222
(dp4223
g597
(lp4224
S'81102 - PM10_._6643'
p4225
asg600
g9
((lp4226
S'BETWOL1'
p4227
atRp4228
sg602
S'81102 - PM10'
p4229
ssS'7125'
p4230
(dp4231
g597
(lp4232
S'81102 - PM10_._7125'
p4233
asg600
g9
((lp4234
S'BETR750'
p4235
atRp4236
sg602
S'81102 - PM10'
p4237
ssS'6998'
p4238
(dp4239
g597
(lp4240
S'42602 - NO2_._6998'
p4241
asg600
g9
((lp4242
S'BETR222'
p4243
atRp4244
sg602
S'42602 - NO2'
p4245
ssS'6999'
p4246
(dp4247
g597
(lp4248
S'44201 - O3_._6999'
p4249
asg600
g9
((lp4250
S'BETR222'
p4251
atRp4252
sg602
S'44201 - O3'
p4253
ssS'6994'
p4254
(dp4255
g597
(lp4256
S'81104 - PM2.5_._6994'
p4257
asg600
g9
((lp4258
S'BETR221'
p4259
atRp4260
sg602
S'81104 - PM2.5'
p4261
ssS'6995'
p4262
(dp4263
g597
(lp4264
S'42101 - CO_._6995'
p4265
asg600
g9
((lp4266
S'BETR222'
p4267
atRp4268
sg602
S'42101 - CO'
p4269
ssS'6996'
p4270
(dp4271
g597
(lp4272
S'42401 - SO2_._6996'
p4273
asg600
g9
((lp4274
S'BETR222'
p4275
atRp4276
sg602
S'42401 - SO2'
p4277
ssS'6997'
p4278
(dp4279
g597
(lp4280
S'42601 - NO_._6997'
p4281
asg600
g9
((lp4282
S'BETR222'
p4283
atRp4284
sg602
S'42601 - NO'
p4285
ssS'6990'
p4286
(dp4287
g597
(lp4288
S'42401 - SO2_._6990'
p4289
asg600
g9
((lp4290
S'BETR221'
p4291
atRp4292
sg602
S'42401 - SO2'
p4293
ssS'6993'
p4294
(dp4295
g597
(lp4296
S'81102 - PM10_._6993'
p4297
asg600
g9
((lp4298
S'BETR221'
p4299
atRp4300
sg602
S'81102 - PM10'
p4301
ssS'6392'
p4302
(dp4303
g597
(lp4304
S'45201 - C6H6_._6392'
p4305
asg600
g9
((ltRp4306
sg602
S'45201 - C6H6'
p4307
ssS'6393'
p4308
(dp4309
g597
(lp4310
S'45202 - C6H5-CH3_._6393'
p4311
asg600
g9
((ltRp4312
sg602
S'45202 - C6H5-CH3'
p4313
ssS'6391'
p4314
(dp4315
g597
(lp4316
S'45109 - m,p-C6H4(CH3)2_._6391'
p4317
asg600
g9
((ltRp4318
sg602
S'45109 - m,p-C6H4(CH3)2'
p4319
ssS'6394'
p4320
(dp4321
g597
(lp4322
S'45203 - C6H5-C2H5_._6394'
p4323
asg600
g9
((ltRp4324
sg602
S'45203 - C6H5-C2H5'
p4325
ssS'6395'
p4326
(dp4327
g597
(lp4328
S'45204 - o-C6H4-(CH3)2_._6395'
p4329
asg600
g9
((ltRp4330
sg602
S'45204 - o-C6H4-(CH3)2'
p4331
ssS'10739'
p4332
(dp4333
g597
(lp4334
S'42101 - CO_._10739'
p4335
asg600
g9
((lp4336
S'BETR802'
p4337
atRp4338
sg602
S'42101 - CO'
p4339
ssS'6907'
p4340
(dp4341
g597
(lp4342
S'44201 - O3_._6907'
p4343
asg600
g9
((lp4344
S'BETN066'
p4345
atRp4346
sg602
S'44201 - O3'
p4347
ssS'6906'
p4348
(dp4349
g597
(lp4350
S'42602 - NO2_._6906'
p4351
asg600
g9
((lp4352
S'BETN066'
p4353
atRp4354
sg602
S'42602 - NO2'
p4355
ssS'6905'
p4356
(dp4357
g597
(lp4358
S'42601 - NO_._6905'
p4359
asg600
g9
((lp4360
S'BETN066'
p4361
atRp4362
sg602
S'42601 - NO'
p4363
ssS'6904'
p4364
(dp4365
g597
(lp4366
S'42401 - SO2_._6904'
p4367
asg600
g9
((lp4368
S'BETN066'
p4369
atRp4370
sg602
S'42401 - SO2'
p4371
ssS'6902'
p4372
(dp4373
g597
(lp4374
S'89101 - PM1_._6902'
p4375
asg600
g9
((ltRp4376
sg602
S'89101 - PM1'
p4377
ssS'6901'
p4378
(dp4379
g597
(lp4380
S'81104 - PM2.5_._6901'
p4381
asg600
g9
((lp4382
S'BETN063'
p4383
atRp4384
sg602
S'81104 - PM2.5'
p4385
ssS'6900'
p4386
(dp4387
g597
(lp4388
S'81102 - PM10_._6900'
p4389
asg600
g9
((lp4390
S'BETN063'
p4391
atRp4392
sg602
S'81102 - PM10'
p4393
ssS'6909'
p4394
(dp4395
g597
(lp4396
S'81104 - PM2.5_._6909'
p4397
asg600
g9
((ltRp4398
sg602
S'81104 - PM2.5'
p4399
ssS'6908'
p4400
(dp4401
g597
(lp4402
S'81102 - PM10_._6908'
p4403
asg600
g9
((ltRp4404
sg602
S'81102 - PM10'
p4405
ssS'6518'
p4406
(dp4407
g597
(lp4408
S'45109 - m,p-C6H4(CH3)2_._6518'
p4409
asg600
g9
((ltRp4410
sg602
S'45109 - m,p-C6H4(CH3)2'
p4411
ssS'6519'
p4412
(dp4413
g597
(lp4414
S'45201 - C6H6_._6519'
p4415
asg600
g9
((lp4416
S'BETB006'
p4417
atRp4418
sg602
S'45201 - C6H6'
p4419
ssS'6514'
p4420
(dp4421
g597
(lp4422
S'42101 - CO_._6514'
p4423
asg600
g9
((lp4424
S'BETB006'
p4425
atRp4426
sg602
S'42101 - CO'
p4427
ssS'6515'
p4428
(dp4429
g597
(lp4430
S'42601 - NO_._6515'
p4431
asg600
g9
((lp4432
S'BETB006'
p4433
atRp4434
sg602
S'42601 - NO'
p4435
ssS'6516'
p4436
(dp4437
g597
(lp4438
S'42602 - NO2_._6516'
p4439
asg600
g9
((lp4440
S'BETB006'
p4441
atRp4442
sg602
S'42602 - NO2'
p4443
ssS'6517'
p4444
(dp4445
g597
(lp4446
S'44201 - O3_._6517'
p4447
asg600
g9
((lp4448
S'BETB006'
p4449
atRp4450
sg602
S'44201 - O3'
p4451
ssS'10602'
p4452
(dp4453
g597
(lp4454
S'16111 - Black Carbon_._10602'
p4455
asg600
g9
((lp4456
S'BETR701'
p4457
atRp4458
sg602
S'16111 - Black Carbon'
p4459
ssS'10603'
p4460
(dp4461
g597
(lp4462
S'16111 - Black Carbon_._10603'
p4463
asg600
g9
((lp4464
S'BETR801'
p4465
atRp4466
sg602
S'16111 - Black Carbon'
p4467
ssS'10600'
p4468
(dp4469
g597
(lp4470
S'81102 - PM10_._10600'
p4471
asg600
g9
((lp4472
S'BETR831'
p4473
atRp4474
sg602
S'81102 - PM10'
p4475
ssS'10601'
p4476
(dp4477
g597
(lp4478
S'42602 - NO2_._10601'
p4479
asg600
g9
((lp4480
S'BETR802'
p4481
atRp4482
sg602
S'42602 - NO2'
p4483
ssS'10606'
p4484
(dp4485
g597
(lp4486
S'16111 - Black Carbon_._10606'
p4487
asg600
g9
((lp4488
S'BETN029'
p4489
atRp4490
sg602
S'16111 - Black Carbon'
p4491
ssS'10607'
p4492
(dp4493
g597
(lp4494
S'16111 - Black Carbon_._10607'
p4495
asg600
g9
((lp4496
S'BETR012'
p4497
atRp4498
sg602
S'16111 - Black Carbon'
p4499
ssS'10604'
p4500
(dp4501
g597
(lp4502
S'16111 - Black Carbon_._10604'
p4503
asg600
g9
((lp4504
S'BETR802'
p4505
atRp4506
sg602
S'16111 - Black Carbon'
p4507
ssS'10605'
p4508
(dp4509
g597
(lp4510
S'16111 - Black Carbon_._10605'
p4511
asg600
g9
((lp4512
S'BETR750'
p4513
atRp4514
sg602
S'16111 - Black Carbon'
p4515
ssS'10608'
p4516
(dp4517
g597
(lp4518
S'16111 - Black Carbon_._10608'
p4519
asg600
g9
((lp4520
S'BETN045'
p4521
atRp4522
sg602
S'16111 - Black Carbon'
p4523
ssS'10609'
p4524
(dp4525
g597
(lp4526
S'16111 - Black Carbon_._10609'
p4527
asg600
g9
((lp4528
S'BETN016'
p4529
atRp4530
sg602
S'16111 - Black Carbon'
p4531
ssS'6301'
p4532
(dp4533
g597
(lp4534
S'81102 - PM10_._6301'
p4535
asg600
g9
((lp4536
S'BELMN01'
p4537
atRp4538
sg602
S'81102 - PM10'
p4539
ssS'99902'
p4540
(dp4541
g597
(lp4542
S'62101 - TT_._99902'
p4543
asg600
g9
((lp4544
S'BETN029'
p4545
atRp4546
sg602
S'62101 - TT'
p4547
ssS'99903'
p4548
(dp4549
g597
(lp4550
S'61102 - DD_._99903'
p4551
asg600
g9
((lp4552
S'BETM705'
p4553
atRp4554
sg602
S'61102 - DD'
p4555
ssS'99901'
p4556
(dp4557
g597
(lp4558
S'61110 - WSP-SCA_._99901'
p4559
asg600
g9
((lp4560
S'BETN029'
p4561
atRp4562
sg602
S'61110 - WSP-SCA'
p4563
ssS'99906'
p4564
(dp4565
g597
(lp4566
S'61102 - DD_._99906'
p4567
asg600
g9
((lp4568
S'BETR701'
p4569
atRp4570
sg602
S'61102 - DD'
p4571
ssS'7159'
p4572
(dp4573
g597
(lp4574
S'42601 - NO_._7159'
p4575
asg600
g9
((lp4576
S'BETR512'
p4577
atRp4578
sg602
S'42601 - NO'
p4579
ssS'7158'
p4580
(dp4581
g597
(lp4582
S'42401 - SO2_._7158'
p4583
asg600
g9
((lp4584
S'BETR512'
p4585
atRp4586
sg602
S'42401 - SO2'
p4587
ssS'7104'
p4588
(dp4589
g597
(lp4590
S'42601 - NO_._7104'
p4591
asg600
g9
((lp4592
S'BETR731'
p4593
atRp4594
sg602
S'42601 - NO'
p4595
ssS'99908'
p4596
(dp4597
g597
(lp4598
S'62101 - TT_._99908'
p4599
asg600
g9
((lp4600
S'BETR701'
p4601
atRp4602
sg602
S'62101 - TT'
p4603
ssS'7105'
p4604
(dp4605
g597
(lp4606
S'42602 - NO2_._7105'
p4607
asg600
g9
((lp4608
S'BETR731'
p4609
atRp4610
sg602
S'42602 - NO2'
p4611
ssS'6832'
p4612
(dp4613
g597
(lp4614
S'44201 - O3_._6832'
p4615
asg600
g9
((lp4616
S'BETR831'
p4617
atRp4618
sg602
S'44201 - O3'
p4619
ssS'6830'
p4620
(dp4621
g597
(lp4622
S'42602 - NO2_._6830'
p4623
asg600
g9
((lp4624
S'BETR831'
p4625
atRp4626
sg602
S'42602 - NO2'
p4627
ssS'7109'
p4628
(dp4629
g597
(lp4630
S'42401 - SO2_._7109'
p4631
asg600
g9
((lp4632
S'BETR740'
p4633
atRp4634
sg602
S'42401 - SO2'
p4635
ssS'7016'
p4636
(dp4637
g597
(lp4638
S'42601 - NO_._7016'
p4639
asg600
g9
((lp4640
S'BETR240'
p4641
atRp4642
sg602
S'42601 - NO'
p4643
ssS'6609'
p4644
(dp4645
g597
(lp4646
S'16111 - Black Carbon_._6609'
p4647
asg600
g9
((lp4648
S'BETR002'
p4649
atRp4650
sg602
S'16111 - Black Carbon'
p4651
ssS'7014'
p4652
(dp4653
g597
(lp4654
S'42401 - SO2_._7014'
p4655
asg600
g9
((lp4656
S'BETR240'
p4657
atRp4658
sg602
S'42401 - SO2'
p4659
ssS'7010'
p4660
(dp4661
g597
(lp4662
S'89101 - PM1_._7010'
p4663
asg600
g9
((ltRp4664
sg602
S'89101 - PM1'
p4665
ssS'6769'
p4666
(dp4667
g597
(lp4668
S'42602 - NO2_._6769'
p4669
asg600
g9
((lp4670
S'BETR020'
p4671
atRp4672
sg602
S'42602 - NO2'
p4673
ssS'6768'
p4674
(dp4675
g597
(lp4676
S'42601 - NO_._6768'
p4677
asg600
g9
((lp4678
S'BETR020'
p4679
atRp4680
sg602
S'42601 - NO'
p4681
ssS'6767'
p4682
(dp4683
g597
(lp4684
S'42401 - SO2_._6767'
p4685
asg600
g9
((lp4686
S'BETR020'
p4687
atRp4688
sg602
S'42401 - SO2'
p4689
ssS'6766'
p4690
(dp4691
g597
(lp4692
S'42101 - CO_._6766'
p4693
asg600
g9
((lp4694
S'BETR020'
p4695
atRp4696
sg602
S'42101 - CO'
p4697
ssS'7162'
p4698
(dp4699
g597
(lp4700
S'81102 - PM10_._7162'
p4701
asg600
g9
((lp4702
S'BETR512'
p4703
atRp4704
sg602
S'81102 - PM10'
p4705
ssS'6887'
p4706
(dp4707
g597
(lp4708
S'42101 - CO_._6887'
p4709
asg600
g9
((lp4710
S'BETN060'
p4711
atRp4712
sg602
S'42101 - CO'
p4713
ssS'6884'
p4714
(dp4715
g597
(lp4716
S'81104 - PM2.5_._6884'
p4717
asg600
g9
((lp4718
S'BETM204'
p4719
atRp4720
sg602
S'81104 - PM2.5'
p4721
ssS'6885'
p4722
(dp4723
g597
(lp4724
S'89101 - PM1_._6885'
p4725
asg600
g9
((ltRp4726
sg602
S'89101 - PM1'
p4727
ssS'6883'
p4728
(dp4729
g597
(lp4730
S'81102 - PM10_._6883'
p4731
asg600
g9
((lp4732
S'BETM204'
p4733
atRp4734
sg602
S'81102 - PM10'
p4735
ssS'6880'
p4736
(dp4737
g597
(lp4738
S'81102 - PM10_._6880'
p4739
asg600
g9
((lp4740
S'BETH201'
p4741
atRp4742
sg602
S'81102 - PM10'
p4743
ssS'6881'
p4744
(dp4745
g597
(lp4746
S'81104 - PM2.5_._6881'
p4747
asg600
g9
((lp4748
S'BETH201'
p4749
atRp4750
sg602
S'81104 - PM2.5'
p4751
ssS'6888'
p4752
(dp4753
g597
(lp4754
S'42401 - SO2_._6888'
p4755
asg600
g9
((lp4756
S'BETN060'
p4757
atRp4758
sg602
S'42401 - SO2'
p4759
ssS'6889'
p4760
(dp4761
g597
(lp4762
S'42601 - NO_._6889'
p4763
asg600
g9
((lp4764
S'BETN060'
p4765
atRp4766
sg602
S'42601 - NO'
p4767
ssS'7081'
p4768
(dp4769
g597
(lp4770
S'45202 - C6H5-CH3_._7081'
p4771
asg600
g9
((ltRp4772
sg602
S'45202 - C6H5-CH3'
p4773
ssS'7080'
p4774
(dp4775
g597
(lp4776
S'45201 - C6H6_._7080'
p4777
asg600
g9
((lp4778
S'BETR701'
p4779
atRp4780
sg602
S'45201 - C6H6'
p4781
ssS'7083'
p4782
(dp4783
g597
(lp4784
S'45204 - o-C6H4-(CH3)2_._7083'
p4785
asg600
g9
((ltRp4786
sg602
S'45204 - o-C6H4-(CH3)2'
p4787
ssS'7082'
p4788
(dp4789
g597
(lp4790
S'45203 - C6H5-C2H5_._7082'
p4791
asg600
g9
((ltRp4792
sg602
S'45203 - C6H5-C2H5'
p4793
ssS'7087'
p4794
(dp4795
g597
(lp4796
S'81104 - PM2.5_._7087'
p4797
asg600
g9
((lp4798
S'BETR701'
p4799
atRp4800
sg602
S'81104 - PM2.5'
p4801
ssS'7086'
p4802
(dp4803
g597
(lp4804
S'81102 - PM10_._7086'
p4805
asg600
g9
((lp4806
S'BETR701'
p4807
atRp4808
sg602
S'81102 - PM10'
p4809
ssS'7089'
p4810
(dp4811
g597
(lp4812
S'42601 - NO_._7089'
p4813
asg600
g9
((lp4814
S'BETR710'
p4815
atRp4816
sg602
S'42601 - NO'
p4817
ssS'7163'
p4818
(dp4819
g597
(lp4820
S'81104 - PM2.5_._7163'
p4821
asg600
g9
((lp4822
S'BETR512'
p4823
atRp4824
sg602
S'81104 - PM2.5'
p4825
ssS'7160'
p4826
(dp4827
g597
(lp4828
S'42602 - NO2_._7160'
p4829
asg600
g9
((lp4830
S'BETR512'
p4831
atRp4832
sg602
S'42602 - NO2'
p4833
ssS'99934'
p4834
(dp4835
g597
(lp4836
S'61110 - WSP-SCA_._99934'
p4837
asg600
g9
((ltRp4838
sg602
S'61110 - WSP-SCA'
p4839
ssS'99933'
p4840
(dp4841
g597
(lp4842
S'61102 - DD_._99933'
p4843
asg600
g9
((ltRp4844
sg602
S'61102 - DD'
p4845
ssS'99932'
p4846
(dp4847
g597
(lp4848
S'62101 - TT_._99932'
p4849
asg600
g9
((lp4850
S'BETR221'
p4851
atRp4852
sg602
S'62101 - TT'
p4853
ssS'7164'
p4854
(dp4855
g597
(lp4856
S'89101 - PM1_._7164'
p4857
asg600
g9
((ltRp4858
sg602
S'89101 - PM1'
p4859
ssS'99930'
p4860
(dp4861
g597
(lp4862
S'61102 - DD_._99930'
p4863
asg600
g9
((ltRp4864
sg602
S'61102 - DD'
p4865
ssS'99914'
p4866
(dp4867
g597
(lp4868
S'62101 - TT_._99914'
p4869
asg600
g9
((lp4870
S'BETB011'
p4871
atRp4872
sg602
S'62101 - TT'
p4873
ssS'6693'
p4874
(dp4875
g597
(lp4876
S'81102 - PM10_._6693'
p4877
asg600
g9
((lp4878
S'BETM802'
p4879
atRp4880
sg602
S'81102 - PM10'
p4881
ssS'7034'
p4882
(dp4883
g597
(lp4884
S'81102 - PM10_._7034'
p4885
asg600
g9
((lp4886
S'BETM705'
p4887
atRp4888
sg602
S'81102 - PM10'
p4889
ssS'6690'
p4890
(dp4891
g597
(lp4892
S'42602 - NO2_._6690'
p4893
asg600
g9
((lp4894
S'BETM802'
p4895
atRp4896
sg602
S'42602 - NO2'
p4897
ssS'6490'
p4898
(dp4899
g597
(lp4900
S'45204 - o-C6H4-(CH3)2_._6490'
p4901
asg600
g9
((ltRp4902
sg602
S'45204 - o-C6H4-(CH3)2'
p4903
ssS'6949'
p4904
(dp4905
g597
(lp4906
S'44201 - O3_._6949'
p4907
asg600
g9
((lp4908
S'BETN100'
p4909
atRp4910
sg602
S'44201 - O3'
p4911
ssS'6948'
p4912
(dp4913
g597
(lp4914
S'42602 - NO2_._6948'
p4915
asg600
g9
((lp4916
S'BETN100'
p4917
atRp4918
sg602
S'42602 - NO2'
p4919
ssS'7130'
p4920
(dp4921
g597
(lp4922
S'42401 - SO2_._7130'
p4923
asg600
g9
((lp4924
S'BETR501'
p4925
atRp4926
sg602
S'42401 - SO2'
p4927
ssS'6943'
p4928
(dp4929
g597
(lp4930
S'81102 - PM10_._6943'
p4931
asg600
g9
((lp4932
S'BETN093'
p4933
atRp4934
sg602
S'81102 - PM10'
p4935
ssS'6942'
p4936
(dp4937
g597
(lp4938
S'44201 - O3_._6942'
p4939
asg600
g9
((lp4940
S'BETN093'
p4941
atRp4942
sg602
S'44201 - O3'
p4943
ssS'6941'
p4944
(dp4945
g597
(lp4946
S'42602 - NO2_._6941'
p4947
asg600
g9
((lp4948
S'BETN093'
p4949
atRp4950
sg602
S'42602 - NO2'
p4951
ssS'6940'
p4952
(dp4953
g597
(lp4954
S'42601 - NO_._6940'
p4955
asg600
g9
((lp4956
S'BETN093'
p4957
atRp4958
sg602
S'42601 - NO'
p4959
ssS'6947'
p4960
(dp4961
g597
(lp4962
S'42601 - NO_._6947'
p4963
asg600
g9
((lp4964
S'BETN100'
p4965
atRp4966
sg602
S'42601 - NO'
p4967
ssS'6946'
p4968
(dp4969
g597
(lp4970
S'42401 - SO2_._6946'
p4971
asg600
g9
((lp4972
S'BETN100'
p4973
atRp4974
sg602
S'42401 - SO2'
p4975
ssS'6945'
p4976
(dp4977
g597
(lp4978
S'89101 - PM1_._6945'
p4979
asg600
g9
((ltRp4980
sg602
S'89101 - PM1'
p4981
ssS'6944'
p4982
(dp4983
g597
(lp4984
S'81104 - PM2.5_._6944'
p4985
asg600
g9
((lp4986
S'BETN093'
p4987
atRp4988
sg602
S'81104 - PM2.5'
p4989
ssS'6343'
p4990
(dp4991
g597
(lp4992
S'16111 - Black Carbon_._6343'
p4993
asg600
g9
((lp4994
S'BELSZ01'
p4995
atRp4996
sg602
S'16111 - Black Carbon'
p4997
ssS'7132'
p4998
(dp4999
g597
(lp5000
S'42602 - NO2_._7132'
p5001
asg600
g9
((lp5002
S'BETR501'
p5003
atRp5004
sg602
S'42602 - NO2'
p5005
ssS'6347'
p5006
(dp5007
g597
(lp5008
S'42601 - NO_._6347'
p5009
asg600
g9
((lp5010
S'BELSZ01'
p5011
atRp5012
sg602
S'42601 - NO'
p5013
ssS'6348'
p5014
(dp5015
g597
(lp5016
S'42602 - NO2_._6348'
p5017
asg600
g9
((lp5018
S'BELSZ01'
p5019
atRp5020
sg602
S'42602 - NO2'
p5021
ssS'6337'
p5022
(dp5023
g597
(lp5024
S'81104 - PM2.5_._6337'
p5025
asg600
g9
((ltRp5026
sg602
S'81104 - PM2.5'
p5027
ssS'7234'
p5028
(dp5029
g597
(lp5030
S'42602 - NO2_._7234'
p5031
asg600
g9
((lp5032
S'BETE812'
p5033
atRp5034
sg602
S'42602 - NO2'
p5035
ssS'7232'
p5036
(dp5037
g597
(lp5038
S'42401 - SO2_._7232'
p5039
asg600
g9
((lp5040
S'BETE812'
p5041
atRp5042
sg602
S'42401 - SO2'
p5043
ssS'7233'
p5044
(dp5045
g597
(lp5046
S'42601 - NO_._7233'
p5047
asg600
g9
((lp5048
S'BETE812'
p5049
atRp5050
sg602
S'42601 - NO'
p5051
ssS'7230'
p5052
(dp5053
g597
(lp5054
S'42601 - NO_._7230'
p5055
asg600
g9
((lp5056
S'BETE811'
p5057
atRp5058
sg602
S'42601 - NO'
p5059
ssS'7231'
p5060
(dp5061
g597
(lp5062
S'42602 - NO2_._7231'
p5063
asg600
g9
((lp5064
S'BETE811'
p5065
atRp5066
sg602
S'42602 - NO2'
p5067
ssS'6958'
p5068
(dp5069
g597
(lp5070
S'81104 - PM2.5_._6958'
p5071
asg600
g9
((lp5072
S'BETN113'
p5073
atRp5074
sg602
S'81104 - PM2.5'
p5075
ssS'7008'
p5076
(dp5077
g597
(lp5078
S'81102 - PM10_._7008'
p5079
asg600
g9
((lp5080
S'BETR223'
p5081
atRp5082
sg602
S'81102 - PM10'
p5083
ssS'6549'
p5084
(dp5085
g597
(lp5086
S'42401 - SO2_._6549'
p5087
asg600
g9
((lp5088
S'BETMEU1'
p5089
atRp5090
sg602
S'42401 - SO2'
p5091
ssS'6548'
p5092
(dp5093
g597
(lp5094
S'42242 - Hg_._6548'
p5095
asg600
g9
((lp5096
S'BETMEU1'
p5097
atRp5098
sg602
S'42242 - Hg'
p5099
ssS'6334'
p5100
(dp5101
g597
(lp5102
S'81102 - PM10_._6334'
p5103
asg600
g9
((lp5104
S'BELRL01'
p5105
atRp5106
sg602
S'81102 - PM10'
p5107
ssS'6335'
p5108
(dp5109
g597
(lp5110
S'16111 - Black Carbon_._6335'
p5111
asg600
g9
((ltRp5112
sg602
S'16111 - Black Carbon'
p5113
ssS'6489'
p5114
(dp5115
g597
(lp5116
S'45203 - C6H5-C2H5_._6489'
p5117
asg600
g9
((ltRp5118
sg602
S'45203 - C6H5-C2H5'
p5119
sssS'accesConstraints'
p5120
S'http://creativecommons.org/licenses/by-nc-nd/3.0/'
p5121
sb.