(i__main__
SOS
p1
(dp2
S'accessConstraints'
p3
S''
sS'name'
p4
S'RIVM SOS Service Air Quality'
p5
sS'url'
p6
S'http://inspire.rivm.nl/sos/eaq/service?'
p7
sS'responseFormat'
p8
c__builtin__
set
p9
((lp10
S'http://www.opengis.net/waterml/2.0'
p11
aS'application/json'
p12
aS'http://www.opengis.net/om/2.0'
p13
aS'http://dd.eionet.europa.eu/schemaset/id2011850eu-1.0'
p14
aS'http://www.opengis.net/waterml-dr/2.0'
p15
atRp16
sS'organisation'
p17
S'RIVM'
p18
sS'minTime'
p19
S'2015-08-21T01:00:00.000Z'
p20
sS'costs'
p21
S'NONE'
p22
sS'version'
p23
g9
((lp24
S'1.0.0'
p25
atRp26
sS'error'
p27
I00
sS'featureofinterest'
p28
(dp29
S'NL.RIVM.AQ/SPO_F-NL00131_00046_101_101'
p30
(dp31
S'coords'
p32
(lp33
S'51.540520037824535 5.853069999999999 28.0'
p34
aS'http://www.opengis.net/def/crs/EPSG/0/4326'
p35
assS'NL.RIVM.AQ/SPO_F-NL00445_00038_100_101'
p36
(dp37
g32
(lp38
S'52.075071037310146 4.315872 4.0'
p39
aS'http://www.opengis.net/def/crs/EPSG/0/4326'
p40
assS'NL.RIVM.AQ/SPO_F-NL00017_00021_100_100'
p41
(dp42
g32
(lp43
S'52.358039037023744 4.8997 4.0'
p44
aS'http://www.opengis.net/def/crs/EPSG/0/4326'
p45
assS'NL.RIVM.AQ/SPO_F-NL00230_06001_100_101'
p46
(dp47
g32
(lp48
S'51.518440037845004 5.1484499999999995 15.0'
p49
aS'http://www.opengis.net/def/crs/EPSG/0/4326'
p50
assS'NL.RIVM.AQ/SPO_F-NL00240_00008_100_100'
p51
(dp52
g32
(lp53
S'51.5935330377751 4.824944 4.0'
p54
aS'http://www.opengis.net/def/crs/EPSG/0/4326'
p55
assS'NL.RIVM.AQ/SPO_F-NL00245_00009_100_100'
p56
(dp57
g32
(lp58
S'51.69938903767535 4.623598000000001 1.0'
p59
aS'http://www.opengis.net/def/crs/EPSG/0/4326'
p60
assS'NL.RIVM.AQ/SPO_F-NL00641_06001_100_100'
p61
(dp62
g32
(lp63
S'52.20153003718333 4.987444000000001 -1.0'
p64
aS'http://www.opengis.net/def/crs/EPSG/0/4326'
p65
assS'NL.RIVM.AQ/SPO_F-NL00937_00038_100_101'
p66
(dp67
g32
(lp68
S'53.217796036096054 6.578900999999999 2.0'
p69
aS'http://www.opengis.net/def/crs/EPSG/0/4326'
p70
assS'NL.RIVM.AQ/SPO_F-NL00918_00007_101_102'
p71
(dp72
g32
(lp73
S'52.91691592643034 5.573491569999999 1.0'
p74
aS'http://www.opengis.net/def/crs/EPSG/0/4326'
p75
assS'NL.RIVM.AQ/SPO_F-NL00444_00005_100_101'
p76
(dp77
g32
(lp78
S'52.2965560370868 4.510817 4.0'
p79
aS'http://www.opengis.net/def/crs/EPSG/0/4326'
p80
assS'NL.RIVM.AQ/SPO_F-NL00627_00629_101_101'
p81
(dp82
g32
(lp83
S'52.12083303726448 5.195567 3.0'
p84
aS'http://www.opengis.net/def/crs/EPSG/0/4326'
p85
assS'NL.RIVM.AQ/SPO_F-NL00631_00007_111_112'
p86
(dp87
g32
(lp88
S'52.448710036929945 5.619210000000001 -4.0'
p89
aS'http://www.opengis.net/def/crs/EPSG/0/4326'
p90
assS'NL.RIVM.AQ/SPO_F-NL00643_00038_100_100'
p91
(dp92
g32
(lp93
S'52.101308037284014 5.128183 2.0'
p94
aS'http://www.opengis.net/def/crs/EPSG/0/4326'
p95
assS'NL.RIVM.AQ/SPO_F-NL00537_00038_101_102'
p96
(dp97
g32
(lp98
S'52.38104003700004 4.64759 1.0'
p99
aS'http://www.opengis.net/def/crs/EPSG/0/4326'
p100
assS'NL.RIVM.AQ/SPO_F-NL00631_00009_111_103'
p101
(dp102
g32
(lp103
S'52.448710036929945 5.619210000000001 -4.0'
p104
aS'http://www.opengis.net/def/crs/EPSG/0/4326'
p105
assS'NL.RIVM.AQ/SPO_F-NL00107_00007_101_102'
p106
(dp107
g32
(lp108
S'51.11919403820476 6.0423990000000005 32.0'
p109
aS'http://www.opengis.net/def/crs/EPSG/0/4326'
p110
assS'NL.RIVM.AQ/SPO_F-NL00014_00038_100_100'
p111
(dp112
g32
(lp113
S'52.359714037022016 4.866208 2.0'
p114
aS'http://www.opengis.net/def/crs/EPSG/0/4326'
p115
assS'NL.RIVM.AQ/SPO_F-NL00929_00045_101_101'
p116
(dp117
g32
(lp118
S'52.87572503647533 6.932432000000001 10.0'
p119
aS'http://www.opengis.net/def/crs/EPSG/0/4326'
p120
assS'NL.RIVM.AQ/SPO_F-NL00131_00659_100_100'
p121
(dp122
g32
(lp123
S'51.540520037824535 5.853069999999999 28.0'
p124
aS'http://www.opengis.net/def/crs/EPSG/0/4326'
p125
assS'NL.RIVM.AQ/SPO_F-NL00235_00007_111_112'
p126
(dp127
g32
(lp128
S'51.43444303792239 4.359835 18.0'
p129
aS'http://www.opengis.net/def/crs/EPSG/0/4326'
p130
assS'NL.RIVM.AQ/SPO_F-NL00631_00008_111_113'
p131
(dp132
g32
(lp133
S'52.448710036929945 5.619210000000001 -4.0'
p134
aS'http://www.opengis.net/def/crs/EPSG/0/4326'
p135
assS'NL.RIVM.AQ/SPO_F-NL00561_06001_100_100'
p136
(dp137
g32
(lp138
S'52.33400303704845 4.774006 1.0'
p139
aS'http://www.opengis.net/def/crs/EPSG/0/4326'
p140
assS'NL.RIVM.AQ/SPO_F-NL00131_00045_101_101'
p141
(dp142
g32
(lp143
S'51.540520037824535 5.853069999999999 28.0'
p144
aS'http://www.opengis.net/def/crs/EPSG/0/4326'
p145
assS'NL.RIVM.AQ/SPO_F-NL00012_00038_101_101'
p146
(dp147
g32
(lp148
S'52.38998303699083 4.887811 4.0'
p149
aS'http://www.opengis.net/def/crs/EPSG/0/4326'
p150
assS'NL.RIVM.AQ/SPO_F-NL00137_00008_100_101'
p151
(dp152
g32
(lp153
S'50.88487003840636 5.977283 115.0'
p154
aS'http://www.opengis.net/def/crs/EPSG/0/4326'
p155
assS'NL.RIVM.AQ/SPO_F-NL00807_00007_101_102'
p156
(dp157
g32
(lp158
S'52.388272036992596 6.402933000000001 7.0'
p159
aS'http://www.opengis.net/def/crs/EPSG/0/4326'
p160
assS'NL.RIVM.AQ/SPO_F-NL00496_00001_100_100'
p161
(dp162
g32
(lp163
S'51.97780303740636 4.121944000000001 0.0'
p164
aS'http://www.opengis.net/def/crs/EPSG/0/4326'
p165
assS'NL.RIVM.AQ/SPO_F-NL00738_00038_100_101'
p166
(dp167
g32
(lp168
S'52.111621037273686 5.708418999999999 18.0'
p169
aS'http://www.opengis.net/def/crs/EPSG/0/4326'
p170
assS'NL.RIVM.AQ/SPO_F-NL00627_00015_101_101'
p171
(dp172
g32
(lp173
S'52.12083303726448 5.195567 3.0'
p174
aS'http://www.opengis.net/def/crs/EPSG/0/4326'
p175
assS'NL.RIVM.AQ/SPO_F-NL00561_00010_100_100'
p176
(dp177
g32
(lp178
S'52.33400303704845 4.774006 1.0'
p179
aS'http://www.opengis.net/def/crs/EPSG/0/4326'
p180
assS'NL.RIVM.AQ/SPO_F-NL00487_00005_100_100'
p181
(dp182
g32
(lp183
S'51.89114703749109 4.480690000000001 0.0'
p184
aS'http://www.opengis.net/def/crs/EPSG/0/4326'
p185
assS'NL.RIVM.AQ/SPO_F-NL00485_00008_100_100'
p186
(dp187
g32
(lp188
S'51.867411037514145 4.355241999999999 1.0'
p189
aS'http://www.opengis.net/def/crs/EPSG/0/4326'
p190
assS'NL.RIVM.AQ/SPO_F-NL00230_00038_101_102'
p191
(dp192
g32
(lp193
S'51.518440037845004 5.1484499999999995 15.0'
p194
aS'http://www.opengis.net/def/crs/EPSG/0/4326'
p195
assS'NL.RIVM.AQ/SPO_F-NL00639_00005_100_101'
p196
(dp197
g32
(lp198
S'52.06774803731743 5.120507000000001 1.0'
p199
aS'http://www.opengis.net/def/crs/EPSG/0/4326'
p200
assS'NL.RIVM.AQ/SPO_F-NL00017_00038_101_101'
p201
(dp202
g32
(lp203
S'52.358039037023744 4.8997 4.0'
p204
aS'http://www.opengis.net/def/crs/EPSG/0/4326'
p205
assS'NL.RIVM.AQ/SPO_F-NL00437_00005_100_101'
p206
(dp207
g32
(lp208
S'51.78657903759214 4.450529000000001 -1.0'
p209
aS'http://www.opengis.net/def/crs/EPSG/0/4326'
p210
assS'NL.RIVM.AQ/SPO_F-NL00627_00014_102_102'
p211
(dp212
g32
(lp213
S'52.12083303726448 5.195567 3.0'
p214
aS'http://www.opengis.net/def/crs/EPSG/0/4326'
p215
assS'NL.RIVM.AQ/SPO_F-NL00236_00007_101_102'
p216
(dp217
g32
(lp218
S'51.46866203789098 5.47235 17.0'
p219
aS'http://www.opengis.net/def/crs/EPSG/0/4326'
p220
assS'NL.RIVM.AQ/SPO_F-NL00318_00008_111_112'
p221
(dp222
g32
(lp223
S'51.294498038049305 3.749483999999999 5.0'
p224
aS'http://www.opengis.net/def/crs/EPSG/0/4326'
p225
assS'NL.RIVM.AQ/SPO_F-NL00633_00482_102_102'
p226
(dp227
g32
(lp228
S'52.13795003724734 4.83819 -2.0'
p229
aS'http://www.opengis.net/def/crs/EPSG/0/4326'
p230
assS'NL.RIVM.AQ/SPO_F-NL00487_06001_100_100'
p231
(dp232
g32
(lp233
S'51.89114703749109 4.480690000000001 0.0'
p234
aS'http://www.opengis.net/def/crs/EPSG/0/4326'
p235
assS'NL.RIVM.AQ/SPO_F-NL00012_06001_100_100'
p236
(dp237
g32
(lp238
S'52.38998303699083 4.887811 4.0'
p239
aS'http://www.opengis.net/def/crs/EPSG/0/4326'
p240
assS'NL.RIVM.AQ/SPO_F-NL00014_00010_100_100'
p241
(dp242
g32
(lp243
S'52.359714037022016 4.866208 2.0'
p244
aS'http://www.opengis.net/def/crs/EPSG/0/4326'
p245
assS'NL.RIVM.AQ/SPO_F-NL00244_00035_100_100'
p246
(dp247
g32
(lp248
S'51.535901037828836 5.808593 1.0'
p249
aS'http://www.opengis.net/def/crs/EPSG/0/4326'
p250
assS'NL.RIVM.AQ/SPO_F-NL00020_00038_101_101'
p251
(dp252
g32
(lp253
S'52.3747860370065 4.860319 4.0'
p254
aS'http://www.opengis.net/def/crs/EPSG/0/4326'
p255
assS'NL.RIVM.AQ/SPO_F-NL00631_00038_111_113'
p256
(dp257
g32
(lp258
S'52.448710036929945 5.619210000000001 -4.0'
p259
aS'http://www.opengis.net/def/crs/EPSG/0/4326'
p260
assS'NL.RIVM.AQ/SPO_F-NL00433_00018_101_101'
p261
(dp262
g32
(lp263
S'51.910474037472305 4.326303 -1.0'
p264
aS'http://www.opengis.net/def/crs/EPSG/0/4326'
p265
assS'NL.RIVM.AQ/SPO_F-NL00639_00038_101_102'
p266
(dp267
g32
(lp268
S'52.06774803731743 5.120507000000001 1.0'
p269
aS'http://www.opengis.net/def/crs/EPSG/0/4326'
p270
assS'NL.RIVM.AQ/SPO_F-NL00418_00038_111_112'
p271
(dp272
g32
(lp273
S'51.914233037468634 4.479923 3.0'
p274
aS'http://www.opengis.net/def/crs/EPSG/0/4326'
p275
assS'NL.RIVM.AQ/SPO_F-NL00485_00038_100_100'
p276
(dp277
g32
(lp278
S'51.867411037514145 4.355241999999999 1.0'
p279
aS'http://www.opengis.net/def/crs/EPSG/0/4326'
p280
assS'NL.RIVM.AQ/SPO_F-NL00722_00008_111_112'
p281
(dp282
g32
(lp283
S'52.09180103729347 6.605367 19.0'
p284
aS'http://www.opengis.net/def/crs/EPSG/0/4326'
p285
assS'NL.RIVM.AQ/SPO_F-NL00444_00631_101_101'
p286
(dp287
g32
(lp288
S'52.2965560370868 4.510817 4.0'
p289
aS'http://www.opengis.net/def/crs/EPSG/0/4326'
p290
assS'NL.RIVM.AQ/SPO_F-NL00551_00038_100_100'
p291
(dp292
g32
(lp293
S'52.46303903691505 4.6018419999999995 1.0'
p294
aS'http://www.opengis.net/def/crs/EPSG/0/4326'
p295
assS'NL.RIVM.AQ/SPO_F-NL00703_00009_100_100'
p296
(dp297
g32
(lp298
S'52.39843703698208 4.728581 1.0'
p299
aS'http://www.opengis.net/def/crs/EPSG/0/4326'
p300
assS'NL.RIVM.AQ/SPO_F-NL00937_00008_100_101'
p301
(dp302
g32
(lp303
S'53.217796036096054 6.578900999999999 2.0'
p304
aS'http://www.opengis.net/def/crs/EPSG/0/4326'
p305
assS'NL.RIVM.AQ/SPO_F-NL00486_00038_100_100'
p306
(dp307
g32
(lp308
S'51.8878690374943 4.388808000000001 0.0'
p309
aS'http://www.opengis.net/def/crs/EPSG/0/4326'
p310
assS'NL.RIVM.AQ/SPO_F-NL00444_00038_100_101'
p311
(dp312
g32
(lp313
S'52.2965560370868 4.510817 4.0'
p314
aS'http://www.opengis.net/def/crs/EPSG/0/4326'
p315
assS'NL.RIVM.AQ/SPO_F-NL00448_00006_100_100'
p316
(dp317
g32
(lp318
S'51.927110037456046 4.461340000000001 2.0'
p319
aS'http://www.opengis.net/def/crs/EPSG/0/4326'
p320
assS'NL.RIVM.AQ/SPO_F-NL00237_00008_101_102'
p321
(dp322
g32
(lp323
S'51.44415703791349 5.444833000000001 18.0'
p324
aS'http://www.opengis.net/def/crs/EPSG/0/4326'
p325
assS'NL.RIVM.AQ/SPO_F-NL00496_00020_100_100'
p326
(dp327
g32
(lp328
S'51.97780303740636 4.121944000000001 0.0'
p329
aS'http://www.opengis.net/def/crs/EPSG/0/4326'
p330
assS'NL.RIVM.AQ/SPO_F-NL00488_06001_100_100'
p331
(dp332
g32
(lp333
S'51.893617037488696 4.487528 0.0'
p334
aS'http://www.opengis.net/def/crs/EPSG/0/4326'
p335
assS'NL.RIVM.AQ/SPO_F-NL00241_00038_100_101'
p336
(dp337
g32
(lp338
S'51.60308003776617 4.781016000000001 1.0'
p339
aS'http://www.opengis.net/def/crs/EPSG/0/4326'
p340
assS'NL.RIVM.AQ/SPO_F-NL00003_00038_101_101'
p341
(dp342
g32
(lp343
S'52.38931403699149 4.943822 1.0'
p344
aS'http://www.opengis.net/def/crs/EPSG/0/4326'
p345
assS'NL.RIVM.AQ/SPO_F-NL00107_00038_101_102'
p346
(dp347
g32
(lp348
S'51.11919403820476 6.0423990000000005 32.0'
p349
aS'http://www.opengis.net/def/crs/EPSG/0/4326'
p350
assS'NL.RIVM.AQ/SPO_F-NL00546_00005_100_100'
p351
(dp352
g32
(lp353
S'52.420230036959516 4.83206 1.0'
p354
aS'http://www.opengis.net/def/crs/EPSG/0/4326'
p355
assS'NL.RIVM.AQ/SPO_F-NL00131_00015_101_101'
p356
(dp357
g32
(lp358
S'51.540520037824535 5.853069999999999 28.0'
p359
aS'http://www.opengis.net/def/crs/EPSG/0/4326'
p360
assS'NL.RIVM.AQ/SPO_F-NL00929_00009_100_101'
p361
(dp362
g32
(lp363
S'52.87572503647533 6.932432000000001 10.0'
p364
aS'http://www.opengis.net/def/crs/EPSG/0/4326'
p365
assS'NL.RIVM.AQ/SPO_F-NL00546_00021_100_100'
p366
(dp367
g32
(lp368
S'52.420230036959516 4.83206 1.0'
p369
aS'http://www.opengis.net/def/crs/EPSG/0/4326'
p370
assS'NL.RIVM.AQ/SPO_F-NL00639_00008_101_102'
p371
(dp372
g32
(lp373
S'52.06774803731743 5.120507000000001 1.0'
p374
aS'http://www.opengis.net/def/crs/EPSG/0/4326'
p375
assS'NL.RIVM.AQ/SPO_F-NL00485_00007_100_100'
p376
(dp377
g32
(lp378
S'51.867411037514145 4.355241999999999 1.0'
p379
aS'http://www.opengis.net/def/crs/EPSG/0/4326'
p380
assS'NL.RIVM.AQ/SPO_F-NL00022_00009_101_101'
p381
(dp382
g32
(lp383
S'52.36681103701471 4.793344000000001 -1.0'
p384
aS'http://www.opengis.net/def/crs/EPSG/0/4326'
p385
assS'NL.RIVM.AQ/SPO_F-NL00538_00006_112_112'
p386
(dp387
g32
(lp388
S'52.803657036553524 5.050509 -4.0'
p389
aS'http://www.opengis.net/def/crs/EPSG/0/4326'
p390
assS'NL.RIVM.AQ/SPO_F-NL00631_00005_100_100'
p391
(dp392
g32
(lp393
S'52.448710036929945 5.619210000000001 -4.0'
p394
aS'http://www.opengis.net/def/crs/EPSG/0/4326'
p395
assS'NL.RIVM.AQ/SPO_F-NL00934_00001_101_101'
p396
(dp397
g32
(lp398
S'53.330425035968325 6.276815 1.0'
p399
aS'http://www.opengis.net/def/crs/EPSG/0/4326'
p400
assS'NL.RIVM.AQ/SPO_F-NL00131_00629_101_101'
p401
(dp402
g32
(lp403
S'51.540520037824535 5.853069999999999 28.0'
p404
aS'http://www.opengis.net/def/crs/EPSG/0/4326'
p405
assS'NL.RIVM.AQ/SPO_F-NL00131_00008_111_112'
p406
(dp407
g32
(lp408
S'51.540520037824535 5.853069999999999 28.0'
p409
aS'http://www.opengis.net/def/crs/EPSG/0/4326'
p410
assS'NL.RIVM.AQ/SPO_F-NL00131_00009_101_102'
p411
(dp412
g32
(lp413
S'51.540520037824535 5.853069999999999 28.0'
p414
aS'http://www.opengis.net/def/crs/EPSG/0/4326'
p415
assS'NL.RIVM.AQ/SPO_F-NL00012_00010_100_100'
p416
(dp417
g32
(lp418
S'52.38998303699083 4.887811 4.0'
p419
aS'http://www.opengis.net/def/crs/EPSG/0/4326'
p420
assS'NL.RIVM.AQ/SPO_F-NL00488_00008_100_100'
p421
(dp422
g32
(lp423
S'51.893617037488696 4.487528 0.0'
p424
aS'http://www.opengis.net/def/crs/EPSG/0/4326'
p425
assS'NL.RIVM.AQ/SPO_F-NL00488_00009_100_100'
p426
(dp427
g32
(lp428
S'51.893617037488696 4.487528 0.0'
p429
aS'http://www.opengis.net/def/crs/EPSG/0/4326'
p430
assS'NL.RIVM.AQ/SPO_F-NL00561_00038_100_100'
p431
(dp432
g32
(lp433
S'52.33400303704845 4.774006 1.0'
p434
aS'http://www.opengis.net/def/crs/EPSG/0/4326'
p435
assS'NL.RIVM.AQ/SPO_F-NL00537_00008_101_102'
p436
(dp437
g32
(lp438
S'52.38104003700004 4.64759 1.0'
p439
aS'http://www.opengis.net/def/crs/EPSG/0/4326'
p440
assS'NL.RIVM.AQ/SPO_F-NL00133_00038_101_102'
p441
(dp442
g32
(lp443
S'50.902281038391635 5.881748000000001 96.0'
p444
aS'http://www.opengis.net/def/crs/EPSG/0/4326'
p445
assS'NL.RIVM.AQ/SPO_F-NL00561_00008_100_100'
p446
(dp447
g32
(lp448
S'52.33400303704845 4.774006 1.0'
p449
aS'http://www.opengis.net/def/crs/EPSG/0/4326'
p450
assS'NL.RIVM.AQ/SPO_F-NL00241_00005_100_101'
p451
(dp452
g32
(lp453
S'51.60308003776617 4.781016000000001 1.0'
p454
aS'http://www.opengis.net/def/crs/EPSG/0/4326'
p455
assS'NL.RIVM.AQ/SPO_F-NL00495_00005_100_100'
p456
(dp457
g32
(lp458
S'51.932039037451226 4.228024999999998 0.0'
p459
aS'http://www.opengis.net/def/crs/EPSG/0/4326'
p460
assS'NL.RIVM.AQ/SPO_F-NL00131_00012_101_101'
p461
(dp462
g32
(lp463
S'51.540520037824535 5.853069999999999 28.0'
p464
aS'http://www.opengis.net/def/crs/EPSG/0/4326'
p465
assS'NL.RIVM.AQ/SPO_F-NL00491_00009_100_100'
p466
(dp467
g32
(lp468
S'51.93847203744493 4.430692 0.0'
p469
aS'http://www.opengis.net/def/crs/EPSG/0/4326'
p470
assS'NL.RIVM.AQ/SPO_F-NL00644_00010_100_100'
p471
(dp472
g32
(lp473
S'51.97448903740961 4.923301 1.0'
p474
aS'http://www.opengis.net/def/crs/EPSG/0/4326'
p475
assS'NL.RIVM.AQ/SPO_F-NL00538_06001_100_100'
p476
(dp477
g32
(lp478
S'52.803657036553524 5.050509 -4.0'
p479
aS'http://www.opengis.net/def/crs/EPSG/0/4326'
p480
assS'NL.RIVM.AQ/SPO_F-NL00444_00046_101_101'
p481
(dp482
g32
(lp483
S'52.2965560370868 4.510817 4.0'
p484
aS'http://www.opengis.net/def/crs/EPSG/0/4326'
p485
assS'NL.RIVM.AQ/SPO_F-NL00230_00009_101_102'
p486
(dp487
g32
(lp488
S'51.518440037845004 5.1484499999999995 15.0'
p489
aS'http://www.opengis.net/def/crs/EPSG/0/4326'
p490
assS'NL.RIVM.AQ/SPO_F-NL00564_00008_100_100'
p491
(dp492
g32
(lp493
S'52.28745003709609 4.766614000000001 1.0'
p494
aS'http://www.opengis.net/def/crs/EPSG/0/4326'
p495
assS'NL.RIVM.AQ/SPO_F-NL00546_00009_100_100'
p496
(dp497
g32
(lp498
S'52.420230036959516 4.83206 1.0'
p499
aS'http://www.opengis.net/def/crs/EPSG/0/4326'
p500
assS'NL.RIVM.AQ/SPO_F-NL00485_00005_100_100'
p501
(dp502
g32
(lp503
S'51.867411037514145 4.355241999999999 1.0'
p504
aS'http://www.opengis.net/def/crs/EPSG/0/4326'
p505
assS'NL.RIVM.AQ/SPO_F-NL00934_00007_111_112'
p506
(dp507
g32
(lp508
S'53.330425035968325 6.276815 1.0'
p509
aS'http://www.opengis.net/def/crs/EPSG/0/4326'
p510
assS'NL.RIVM.AQ/SPO_F-NL00934_00659_100_100'
p511
(dp512
g32
(lp513
S'53.330425035968325 6.276815 1.0'
p514
aS'http://www.opengis.net/def/crs/EPSG/0/4326'
p515
assS'NL.RIVM.AQ/SPO_F-NL00433_00007_101_102'
p516
(dp517
g32
(lp518
S'51.910474037472305 4.326303 -1.0'
p519
aS'http://www.opengis.net/def/crs/EPSG/0/4326'
p520
assS'NL.RIVM.AQ/SPO_F-NL00245_00038_100_100'
p521
(dp522
g32
(lp523
S'51.69938903767535 4.623598000000001 1.0'
p524
aS'http://www.opengis.net/def/crs/EPSG/0/4326'
p525
assS'NL.RIVM.AQ/SPO_F-NL00547_00008_100_100'
p526
(dp527
g32
(lp528
S'52.23508303714937 5.181552 1.0'
p529
aS'http://www.opengis.net/def/crs/EPSG/0/4326'
p530
assS'NL.RIVM.AQ/SPO_F-NL00014_00008_100_100'
p531
(dp532
g32
(lp533
S'52.359714037022016 4.866208 2.0'
p534
aS'http://www.opengis.net/def/crs/EPSG/0/4326'
p535
assS'NL.RIVM.AQ/SPO_F-NL00538_00009_101_102'
p536
(dp537
g32
(lp538
S'52.803657036553524 5.050509 -4.0'
p539
aS'http://www.opengis.net/def/crs/EPSG/0/4326'
p540
assS'NL.RIVM.AQ/SPO_F-NL00444_00008_100_101'
p541
(dp542
g32
(lp543
S'52.2965560370868 4.510817 4.0'
p544
aS'http://www.opengis.net/def/crs/EPSG/0/4326'
p545
assS'NL.RIVM.AQ/SPO_F-NL00633_00020_102_102'
p546
(dp547
g32
(lp548
S'52.13795003724734 4.83819 -2.0'
p549
aS'http://www.opengis.net/def/crs/EPSG/0/4326'
p550
assS'NL.RIVM.AQ/SPO_F-NL00241_00008_100_101'
p551
(dp552
g32
(lp553
S'51.60308003776617 4.781016000000001 1.0'
p554
aS'http://www.opengis.net/def/crs/EPSG/0/4326'
p555
assS'NL.RIVM.AQ/SPO_F-NL00938_06001_100_101'
p556
(dp557
g32
(lp558
S'53.2465350360636 6.608937 -1.0'
p559
aS'http://www.opengis.net/def/crs/EPSG/0/4326'
p560
assS'NL.RIVM.AQ/SPO_F-NL00003_00008_101_101'
p561
(dp562
g32
(lp563
S'52.38931403699149 4.943822 1.0'
p564
aS'http://www.opengis.net/def/crs/EPSG/0/4326'
p565
assS'NL.RIVM.AQ/SPO_F-NL00247_00008_100_100'
p566
(dp567
g32
(lp568
S'51.40736503794714 5.3933279999999995 22.0'
p569
aS'http://www.opengis.net/def/crs/EPSG/0/4326'
p570
assS'NL.RIVM.AQ/SPO_F-NL00017_00009_101_101'
p571
(dp572
g32
(lp573
S'52.358039037023744 4.8997 4.0'
p574
aS'http://www.opengis.net/def/crs/EPSG/0/4326'
p575
assS'NL.RIVM.AQ/SPO_F-NL00704_00001_100_100'
p576
(dp577
g32
(lp578
S'52.428017036951445 4.773478 4.0'
p579
aS'http://www.opengis.net/def/crs/EPSG/0/4326'
p580
assS'NL.RIVM.AQ/SPO_F-NL00131_00035_100_100'
p581
(dp582
g32
(lp583
S'51.540520037824535 5.853069999999999 28.0'
p584
aS'http://www.opengis.net/def/crs/EPSG/0/4326'
p585
assS'NL.RIVM.AQ/SPO_F-NL00741_00010_100_100'
p586
(dp587
g32
(lp588
S'51.841372037539365 5.857777 30.0'
p589
aS'http://www.opengis.net/def/crs/EPSG/0/4326'
p590
assS'NL.RIVM.AQ/SPO_F-NL00633_00007_111_112'
p591
(dp592
g32
(lp593
S'52.13795003724734 4.83819 -2.0'
p594
aS'http://www.opengis.net/def/crs/EPSG/0/4326'
p595
assS'NL.RIVM.AQ/SPO_F-NL00934_00629_101_101'
p596
(dp597
g32
(lp598
S'53.330425035968325 6.276815 1.0'
p599
aS'http://www.opengis.net/def/crs/EPSG/0/4326'
p600
assS'NL.RIVM.AQ/SPO_F-NL00495_06001_100_100'
p601
(dp602
g32
(lp603
S'51.932039037451226 4.228024999999998 0.0'
p604
aS'http://www.opengis.net/def/crs/EPSG/0/4326'
p605
assS'NL.RIVM.AQ/SPO_F-NL00131_00631_101_101'
p606
(dp607
g32
(lp608
S'51.540520037824535 5.853069999999999 28.0'
p609
aS'http://www.opengis.net/def/crs/EPSG/0/4326'
p610
assS'NL.RIVM.AQ/SPO_F-NL00003_00007_100_100'
p611
(dp612
g32
(lp613
S'52.38931403699149 4.943822 1.0'
p614
aS'http://www.opengis.net/def/crs/EPSG/0/4326'
p615
assS'NL.RIVM.AQ/SPO_F-NL00484_00001_100_100'
p616
(dp617
g32
(lp618
S'51.88888903749329 4.312500000000001 0.0'
p619
aS'http://www.opengis.net/def/crs/EPSG/0/4326'
p620
assS'NL.RIVM.AQ/SPO_F-NL00241_00007_100_101'
p621
(dp622
g32
(lp623
S'51.60308003776617 4.781016000000001 1.0'
p624
aS'http://www.opengis.net/def/crs/EPSG/0/4326'
p625
assS'NL.RIVM.AQ/SPO_F-NL00545_00005_100_100'
p626
(dp627
g32
(lp628
S'52.339496647042814 4.84102249 1.0'
p629
aS'http://www.opengis.net/def/crs/EPSG/0/4326'
p630
assS'NL.RIVM.AQ/SPO_F-NL00741_00005_100_101'
p631
(dp632
g32
(lp633
S'51.841372037539365 5.857777 30.0'
p634
aS'http://www.opengis.net/def/crs/EPSG/0/4326'
p635
assS'NL.RIVM.AQ/SPO_F-NL00486_00001_100_100'
p636
(dp637
g32
(lp638
S'51.8878690374943 4.388808000000001 0.0'
p639
aS'http://www.opengis.net/def/crs/EPSG/0/4326'
p640
assS'NL.RIVM.AQ/SPO_F-NL00491_06001_100_100'
p641
(dp642
g32
(lp643
S'51.93847203744493 4.430692 0.0'
p644
aS'http://www.opengis.net/def/crs/EPSG/0/4326'
p645
assS'NL.RIVM.AQ/SPO_F-NL00538_00005_100_101'
p646
(dp647
g32
(lp648
S'52.803657036553524 5.050509 -4.0'
p649
aS'http://www.opengis.net/def/crs/EPSG/0/4326'
p650
assS'NL.RIVM.AQ/SPO_F-NL00938_00008_100_101'
p651
(dp652
g32
(lp653
S'53.2465350360636 6.608937 -1.0'
p654
aS'http://www.opengis.net/def/crs/EPSG/0/4326'
p655
assS'NL.RIVM.AQ/SPO_F-NL00489_00038_100_100'
p656
(dp657
g32
(lp658
S'51.869431037512186 4.580058 0.0'
p659
aS'http://www.opengis.net/def/crs/EPSG/0/4326'
p660
assS'NL.RIVM.AQ/SPO_F-NL00448_06001_100_101'
p661
(dp662
g32
(lp663
S'51.927110037456046 4.461340000000001 2.0'
p664
aS'http://www.opengis.net/def/crs/EPSG/0/4326'
p665
assS'NL.RIVM.AQ/SPO_F-NL00003_00009_101_101'
p666
(dp667
g32
(lp668
S'52.38931403699149 4.943822 1.0'
p669
aS'http://www.opengis.net/def/crs/EPSG/0/4326'
p670
assS'NL.RIVM.AQ/SPO_F-NL00633_00021_101_101'
p671
(dp672
g32
(lp673
S'52.13795003724734 4.83819 -2.0'
p674
aS'http://www.opengis.net/def/crs/EPSG/0/4326'
p675
assS'NL.RIVM.AQ/SPO_F-NL00639_00021_100_101'
p676
(dp677
g32
(lp678
S'52.06774803731743 5.120507000000001 1.0'
p679
aS'http://www.opengis.net/def/crs/EPSG/0/4326'
p680
assS'NL.RIVM.AQ/SPO_F-NL00137_00009_100_101'
p681
(dp682
g32
(lp683
S'50.88487003840636 5.977283 115.0'
p684
aS'http://www.opengis.net/def/crs/EPSG/0/4326'
p685
assS'NL.RIVM.AQ/SPO_F-NL00012_00008_101_101'
p686
(dp687
g32
(lp688
S'52.38998303699083 4.887811 4.0'
p689
aS'http://www.opengis.net/def/crs/EPSG/0/4326'
p690
assS'NL.RIVM.AQ/SPO_F-NL00301_00038_101_102'
p691
(dp692
g32
(lp693
S'51.634706037736464 3.9166229999999995 -1.0'
p694
aS'http://www.opengis.net/def/crs/EPSG/0/4326'
p695
assS'NL.RIVM.AQ/SPO_F-NL00433_00629_101_101'
p696
(dp697
g32
(lp698
S'51.910474037472305 4.326303 -1.0'
p699
aS'http://www.opengis.net/def/crs/EPSG/0/4326'
p700
assS'NL.RIVM.AQ/SPO_F-NL00564_00007_100_100'
p701
(dp702
g32
(lp703
S'52.28745003709609 4.766614000000001 1.0'
p704
aS'http://www.opengis.net/def/crs/EPSG/0/4326'
p705
assS'NL.RIVM.AQ/SPO_F-NL00547_00009_100_100'
p706
(dp707
g32
(lp708
S'52.23508303714937 5.181552 1.0'
p709
aS'http://www.opengis.net/def/crs/EPSG/0/4326'
p710
assS'NL.RIVM.AQ/SPO_F-NL00131_00018_101_101'
p711
(dp712
g32
(lp713
S'51.540520037824535 5.853069999999999 28.0'
p714
aS'http://www.opengis.net/def/crs/EPSG/0/4326'
p715
assS'NL.RIVM.AQ/SPO_F-NL00442_00005_100_100'
p716
(dp717
g32
(lp718
S'51.80065803757861 4.708238999999999 1.0'
p719
aS'http://www.opengis.net/def/crs/EPSG/0/4326'
p720
assS'NL.RIVM.AQ/SPO_F-NL00741_00038_100_101'
p721
(dp722
g32
(lp723
S'51.841372037539365 5.857777 30.0'
p724
aS'http://www.opengis.net/def/crs/EPSG/0/4326'
p725
assS'NL.RIVM.AQ/SPO_F-NL00002_00038_101_101'
p726
(dp727
g32
(lp728
S'52.385422036995514 4.87575 4.0'
p729
aS'http://www.opengis.net/def/crs/EPSG/0/4326'
p730
assS'NL.RIVM.AQ/SPO_F-NL00494_00005_100_100'
p731
(dp732
g32
(lp733
S'51.92138903746164 4.401388999999999 3.0'
p734
aS'http://www.opengis.net/def/crs/EPSG/0/4326'
p735
assS'NL.RIVM.AQ/SPO_F-NL00633_00431_102_102'
p736
(dp737
g32
(lp738
S'52.13795003724734 4.83819 -2.0'
p739
aS'http://www.opengis.net/def/crs/EPSG/0/4326'
p740
assS'NL.RIVM.AQ/SPO_F-NL00131_06001_100_101'
p741
(dp742
g32
(lp743
S'51.540520037824535 5.853069999999999 28.0'
p744
aS'http://www.opengis.net/def/crs/EPSG/0/4326'
p745
assS'NL.RIVM.AQ/SPO_F-NL00538_00007_111_112'
p746
(dp747
g32
(lp748
S'52.803657036553524 5.050509 -4.0'
p749
aS'http://www.opengis.net/def/crs/EPSG/0/4326'
p750
assS'NL.RIVM.AQ/SPO_F-NL00918_00009_101_102'
p751
(dp752
g32
(lp753
S'52.91691592643034 5.573491569999999 1.0'
p754
aS'http://www.opengis.net/def/crs/EPSG/0/4326'
p755
assS'NL.RIVM.AQ/SPO_F-NL00002_00009_101_101'
p756
(dp757
g32
(lp758
S'52.385422036995514 4.87575 4.0'
p759
aS'http://www.opengis.net/def/crs/EPSG/0/4326'
p760
assS'NL.RIVM.AQ/SPO_F-NL00433_00015_101_101'
p761
(dp762
g32
(lp763
S'51.910474037472305 4.326303 -1.0'
p764
aS'http://www.opengis.net/def/crs/EPSG/0/4326'
p765
assS'NL.RIVM.AQ/SPO_F-NL00236_00005_100_101'
p766
(dp767
g32
(lp768
S'51.46866203789098 5.47235 17.0'
p769
aS'http://www.opengis.net/def/crs/EPSG/0/4326'
p770
assS'NL.RIVM.AQ/SPO_F-NL00240_00005_100_101'
p771
(dp772
g32
(lp773
S'51.5935330377751 4.824944 4.0'
p774
aS'http://www.opengis.net/def/crs/EPSG/0/4326'
p775
assS'NL.RIVM.AQ/SPO_F-NL00014_00009_100_100'
p776
(dp777
g32
(lp778
S'52.359714037022016 4.866208 2.0'
p779
aS'http://www.opengis.net/def/crs/EPSG/0/4326'
p780
assS'NL.RIVM.AQ/SPO_F-NL00442_00007_100_100'
p781
(dp782
g32
(lp783
S'51.80065803757861 4.708238999999999 1.0'
p784
aS'http://www.opengis.net/def/crs/EPSG/0/4326'
p785
assS'NL.RIVM.AQ/SPO_F-NL00240_00006_100_100'
p786
(dp787
g32
(lp788
S'51.5935330377751 4.824944 4.0'
p789
aS'http://www.opengis.net/def/crs/EPSG/0/4326'
p790
assS'NL.RIVM.AQ/SPO_F-NL00627_00668_100_100'
p791
(dp792
g32
(lp793
S'52.12083303726448 5.195567 3.0'
p794
aS'http://www.opengis.net/def/crs/EPSG/0/4326'
p795
assS'NL.RIVM.AQ/SPO_F-NL00496_06001_100_100'
p796
(dp797
g32
(lp798
S'51.97780303740636 4.121944000000001 0.0'
p799
aS'http://www.opengis.net/def/crs/EPSG/0/4326'
p800
assS'NL.RIVM.AQ/SPO_F-NL00444_00007_100_101'
p801
(dp802
g32
(lp803
S'52.2965560370868 4.510817 4.0'
p804
aS'http://www.opengis.net/def/crs/EPSG/0/4326'
p805
assS'NL.RIVM.AQ/SPO_F-NL00639_00431_100_101'
p806
(dp807
g32
(lp808
S'52.06774803731743 5.120507000000001 1.0'
p809
aS'http://www.opengis.net/def/crs/EPSG/0/4326'
p810
assS'NL.RIVM.AQ/SPO_F-NL00738_06001_100_100'
p811
(dp812
g32
(lp813
S'52.111621037273686 5.708418999999999 18.0'
p814
aS'http://www.opengis.net/def/crs/EPSG/0/4326'
p815
assS'NL.RIVM.AQ/SPO_F-NL00312_00005_100_100'
p816
(dp817
g32
(lp818
S'51.28452803805824 3.9153460000000004 1.0'
p819
aS'http://www.opengis.net/def/crs/EPSG/0/4326'
p820
assS'NL.RIVM.AQ/SPO_F-NL00136_00038_100_101'
p821
(dp822
g32
(lp823
S'50.88795903840375 5.970496 100.0'
p824
aS'http://www.opengis.net/def/crs/EPSG/0/4326'
p825
assS'NL.RIVM.AQ/SPO_F-NL00538_00047_101_101'
p826
(dp827
g32
(lp828
S'52.803657036553524 5.050509 -4.0'
p829
aS'http://www.opengis.net/def/crs/EPSG/0/4326'
p830
assS'NL.RIVM.AQ/SPO_F-NL00818_00007_100_101'
p831
(dp832
g32
(lp833
S'52.65414403671388 6.017571 1.0'
p834
aS'http://www.opengis.net/def/crs/EPSG/0/4326'
p835
assS'NL.RIVM.AQ/SPO_F-NL00404_00007_111_112'
p836
(dp837
g32
(lp838
S'52.07714803730809 4.289185000000001 2.0'
p839
aS'http://www.opengis.net/def/crs/EPSG/0/4326'
p840
assS'NL.RIVM.AQ/SPO_F-NL00722_00001_111_111'
p841
(dp842
g32
(lp843
S'52.09180103729347 6.605367 19.0'
p844
aS'http://www.opengis.net/def/crs/EPSG/0/4326'
p845
assS'NL.RIVM.AQ/SPO_F-NL00022_00038_101_101'
p846
(dp847
g32
(lp848
S'52.36681103701471 4.793344000000001 -1.0'
p849
aS'http://www.opengis.net/def/crs/EPSG/0/4326'
p850
assS'NL.RIVM.AQ/SPO_F-NL00016_00005_100_100'
p851
(dp852
g32
(lp853
S'52.39397203698668 4.870157000000001 3.0'
p854
aS'http://www.opengis.net/def/crs/EPSG/0/4326'
p855
assS'NL.RIVM.AQ/SPO_F-NL00564_00009_100_100'
p856
(dp857
g32
(lp858
S'52.28745003709609 4.766614000000001 1.0'
p859
aS'http://www.opengis.net/def/crs/EPSG/0/4326'
p860
assS'NL.RIVM.AQ/SPO_F-NL00556_00005_100_100'
p861
(dp862
g32
(lp863
S'52.56359003680973 4.8617 1.0'
p864
aS'http://www.opengis.net/def/crs/EPSG/0/4326'
p865
assS'NL.RIVM.AQ/SPO_F-NL00742_06001_100_100'
p866
(dp867
g32
(lp868
S'51.83822103754241 5.856938 30.0'
p869
aS'http://www.opengis.net/def/crs/EPSG/0/4326'
p870
assS'NL.RIVM.AQ/SPO_F-NL00821_06001_100_100'
p871
(dp872
g32
(lp873
S'52.23450403714996 6.919493999999999 38.0'
p874
aS'http://www.opengis.net/def/crs/EPSG/0/4326'
p875
assS'NL.RIVM.AQ/SPO_F-NL00722_00005_100_101'
p876
(dp877
g32
(lp878
S'52.09180103729347 6.605367 19.0'
p879
aS'http://www.opengis.net/def/crs/EPSG/0/4326'
p880
assS'NL.RIVM.AQ/SPO_F-NL00551_00005_100_100'
p881
(dp882
g32
(lp883
S'52.46303903691505 4.6018419999999995 1.0'
p884
aS'http://www.opengis.net/def/crs/EPSG/0/4326'
p885
assS'NL.RIVM.AQ/SPO_F-NL00446_00009_100_100'
p886
(dp887
g32
(lp888
S'52.03902303734593 4.359376000000001 -2.0'
p889
aS'http://www.opengis.net/def/crs/EPSG/0/4326'
p890
assS'NL.RIVM.AQ/SPO_F-NL00319_00005_100_100'
p891
(dp892
g32
(lp893
S'51.46445703789485 3.744999 1.0'
p894
aS'http://www.opengis.net/def/crs/EPSG/0/4326'
p895
assS'NL.RIVM.AQ/SPO_F-NL00246_00005_100_100'
p896
(dp897
g32
(lp898
S'51.65372903771855 4.515271 1.0'
p899
aS'http://www.opengis.net/def/crs/EPSG/0/4326'
p900
assS'NL.RIVM.AQ/SPO_F-NL00485_00021_100_100'
p901
(dp902
g32
(lp903
S'51.867411037514145 4.355241999999999 1.0'
p904
aS'http://www.opengis.net/def/crs/EPSG/0/4326'
p905
assS'NL.RIVM.AQ/SPO_F-NL00418_00005_100_101'
p906
(dp907
g32
(lp908
S'51.914233037468634 4.479923 3.0'
p909
aS'http://www.opengis.net/def/crs/EPSG/0/4326'
p910
assS'NL.RIVM.AQ/SPO_F-NL00014_06001_101_101'
p911
(dp912
g32
(lp913
S'52.359714037022016 4.866208 2.0'
p914
aS'http://www.opengis.net/def/crs/EPSG/0/4326'
p915
assS'NL.RIVM.AQ/SPO_F-NL00019_00038_101_101'
p916
(dp917
g32
(lp918
S'52.372056037009315 4.9044 2.0'
p919
aS'http://www.opengis.net/def/crs/EPSG/0/4326'
p920
assS'NL.RIVM.AQ/SPO_F-NL00488_00038_100_100'
p921
(dp922
g32
(lp923
S'51.893617037488696 4.487528 0.0'
p924
aS'http://www.opengis.net/def/crs/EPSG/0/4326'
p925
assS'NL.RIVM.AQ/SPO_F-NL00487_00008_100_100'
p926
(dp927
g32
(lp928
S'51.89114703749109 4.480690000000001 0.0'
p929
aS'http://www.opengis.net/def/crs/EPSG/0/4326'
p930
assS'NL.RIVM.AQ/SPO_F-NL00561_00005_100_100'
p931
(dp932
g32
(lp933
S'52.33400303704845 4.774006 1.0'
p934
aS'http://www.opengis.net/def/crs/EPSG/0/4326'
p935
assS'NL.RIVM.AQ/SPO_F-NL00627_00012_102_102'
p936
(dp937
g32
(lp938
S'52.12083303726448 5.195567 3.0'
p939
aS'http://www.opengis.net/def/crs/EPSG/0/4326'
p940
assS'NL.RIVM.AQ/SPO_F-NL00704_00038_100_100'
p941
(dp942
g32
(lp943
S'52.428017036951445 4.773478 4.0'
p944
aS'http://www.opengis.net/def/crs/EPSG/0/4326'
p945
assS'NL.RIVM.AQ/SPO_F-NL00633_00009_101_102'
p946
(dp947
g32
(lp948
S'52.13795003724734 4.83819 -2.0'
p949
aS'http://www.opengis.net/def/crs/EPSG/0/4326'
p950
assS'NL.RIVM.AQ/SPO_F-NL00404_06001_100_101'
p951
(dp952
g32
(lp953
S'52.07714803730809 4.289185000000001 2.0'
p954
aS'http://www.opengis.net/def/crs/EPSG/0/4326'
p955
assS'NL.RIVM.AQ/SPO_F-NL00136_06001_100_100'
p956
(dp957
g32
(lp958
S'50.88795903840375 5.970496 100.0'
p959
aS'http://www.opengis.net/def/crs/EPSG/0/4326'
p960
assS'NL.RIVM.AQ/SPO_F-NL00553_00010_100_100'
p961
(dp962
g32
(lp963
S'52.49399203688275 4.601986000000001 7.0'
p964
aS'http://www.opengis.net/def/crs/EPSG/0/4326'
p965
assS'NL.RIVM.AQ/SPO_F-NL00235_00038_101_102'
p966
(dp967
g32
(lp968
S'51.43444303792239 4.359835 18.0'
p969
aS'http://www.opengis.net/def/crs/EPSG/0/4326'
p970
assS'NL.RIVM.AQ/SPO_F-NL00742_00038_100_101'
p971
(dp972
g32
(lp973
S'51.83822103754241 5.856938 30.0'
p974
aS'http://www.opengis.net/def/crs/EPSG/0/4326'
p975
assS'NL.RIVM.AQ/SPO_F-NL00482_00005_100_100'
p976
(dp977
g32
(lp978
S'51.95941703742444 4.091394000000001 0.0'
p979
aS'http://www.opengis.net/def/crs/EPSG/0/4326'
p980
assS'NL.RIVM.AQ/SPO_F-NL00807_00009_101_102'
p981
(dp982
g32
(lp983
S'52.388272036992596 6.402933000000001 7.0'
p984
aS'http://www.opengis.net/def/crs/EPSG/0/4326'
p985
assS'NL.RIVM.AQ/SPO_F-NL00489_06001_100_100'
p986
(dp987
g32
(lp988
S'51.869431037512186 4.580058 0.0'
p989
aS'http://www.opengis.net/def/crs/EPSG/0/4326'
p990
assS'NL.RIVM.AQ/SPO_F-NL00643_00007_100_100'
p991
(dp992
g32
(lp993
S'52.101308037284014 5.128183 2.0'
p994
aS'http://www.opengis.net/def/crs/EPSG/0/4326'
p995
assS'NL.RIVM.AQ/SPO_F-NL00017_00005_100_100'
p996
(dp997
g32
(lp998
S'52.358039037023744 4.8997 4.0'
p999
aS'http://www.opengis.net/def/crs/EPSG/0/4326'
p1000
assS'NL.RIVM.AQ/SPO_F-NL00495_00001_100_100'
p1001
(dp1002
g32
(lp1003
S'51.932039037451226 4.228024999999998 0.0'
p1004
aS'http://www.opengis.net/def/crs/EPSG/0/4326'
p1005
assS'NL.RIVM.AQ/SPO_F-NL00551_00009_100_100'
p1006
(dp1007
g32
(lp1008
S'52.46303903691505 4.6018419999999995 1.0'
p1009
aS'http://www.opengis.net/def/crs/EPSG/0/4326'
p1010
assS'NL.RIVM.AQ/SPO_F-NL00495_00021_100_100'
p1011
(dp1012
g32
(lp1013
S'51.932039037451226 4.228024999999998 0.0'
p1014
aS'http://www.opengis.net/def/crs/EPSG/0/4326'
p1015
assS'NL.RIVM.AQ/SPO_F-NL00722_00009_101_102'
p1016
(dp1017
g32
(lp1018
S'52.09180103729347 6.605367 19.0'
p1019
aS'http://www.opengis.net/def/crs/EPSG/0/4326'
p1020
assS'NL.RIVM.AQ/SPO_F-NL00553_00009_100_100'
p1021
(dp1022
g32
(lp1023
S'52.49399203688275 4.601986000000001 7.0'
p1024
aS'http://www.opengis.net/def/crs/EPSG/0/4326'
p1025
assS'NL.RIVM.AQ/SPO_F-NL00627_00063_101_101'
p1026
(dp1027
g32
(lp1028
S'52.12083303726448 5.195567 3.0'
p1029
aS'http://www.opengis.net/def/crs/EPSG/0/4326'
p1030
assS'NL.RIVM.AQ/SPO_F-NL00703_00038_100_100'
p1031
(dp1032
g32
(lp1033
S'52.39843703698208 4.728581 1.0'
p1034
aS'http://www.opengis.net/def/crs/EPSG/0/4326'
p1035
assS'NL.RIVM.AQ/SPO_F-NL00247_00007_100_100'
p1036
(dp1037
g32
(lp1038
S'51.40736503794714 5.3933279999999995 22.0'
p1039
aS'http://www.opengis.net/def/crs/EPSG/0/4326'
p1040
assS'NL.RIVM.AQ/SPO_F-NL00703_06001_100_100'
p1041
(dp1042
g32
(lp1043
S'52.39843703698208 4.728581 1.0'
p1044
aS'http://www.opengis.net/def/crs/EPSG/0/4326'
p1045
assS'NL.RIVM.AQ/SPO_F-NL00444_00045_101_101'
p1046
(dp1047
g32
(lp1048
S'52.2965560370868 4.510817 4.0'
p1049
aS'http://www.opengis.net/def/crs/EPSG/0/4326'
p1050
assS'NL.RIVM.AQ/SPO_F-NL00437_00008_101_102'
p1051
(dp1052
g32
(lp1053
S'51.78657903759214 4.450529000000001 -1.0'
p1054
aS'http://www.opengis.net/def/crs/EPSG/0/4326'
p1055
assS'NL.RIVM.AQ/SPO_F-NL00444_00009_100_101'
p1056
(dp1057
g32
(lp1058
S'52.2965560370868 4.510817 4.0'
p1059
aS'http://www.opengis.net/def/crs/EPSG/0/4326'
p1060
assS'NL.RIVM.AQ/SPO_F-NL00538_00631_101_101'
p1061
(dp1062
g32
(lp1063
S'52.803657036553524 5.050509 -4.0'
p1064
aS'http://www.opengis.net/def/crs/EPSG/0/4326'
p1065
assS'NL.RIVM.AQ/SPO_F-NL00496_00009_100_100'
p1066
(dp1067
g32
(lp1068
S'51.97780303740636 4.121944000000001 0.0'
p1069
aS'http://www.opengis.net/def/crs/EPSG/0/4326'
p1070
assS'NL.RIVM.AQ/SPO_F-NL00929_00047_101_101'
p1071
(dp1072
g32
(lp1073
S'52.87572503647533 6.932432000000001 10.0'
p1074
aS'http://www.opengis.net/def/crs/EPSG/0/4326'
p1075
assS'NL.RIVM.AQ/SPO_F-NL00017_00008_101_101'
p1076
(dp1077
g32
(lp1078
S'52.358039037023744 4.8997 4.0'
p1079
aS'http://www.opengis.net/def/crs/EPSG/0/4326'
p1080
assS'NL.RIVM.AQ/SPO_F-NL00641_00038_100_101'
p1081
(dp1082
g32
(lp1083
S'52.20153003718333 4.987444000000001 -1.0'
p1084
aS'http://www.opengis.net/def/crs/EPSG/0/4326'
p1085
assS'NL.RIVM.AQ/SPO_F-NL00240_00009_100_100'
p1086
(dp1087
g32
(lp1088
S'51.5935330377751 4.824944 4.0'
p1089
aS'http://www.opengis.net/def/crs/EPSG/0/4326'
p1090
assS'NL.RIVM.AQ/SPO_F-NL00235_00005_100_100'
p1091
(dp1092
g32
(lp1093
S'51.43444303792239 4.359835 18.0'
p1094
aS'http://www.opengis.net/def/crs/EPSG/0/4326'
p1095
assS'NL.RIVM.AQ/SPO_F-NL00489_00005_100_100'
p1096
(dp1097
g32
(lp1098
S'51.869431037512186 4.580058 0.0'
p1099
aS'http://www.opengis.net/def/crs/EPSG/0/4326'
p1100
assS'NL.RIVM.AQ/SPO_F-NL00131_00038_111_112'
p1101
(dp1102
g32
(lp1103
S'51.540520037824535 5.853069999999999 28.0'
p1104
aS'http://www.opengis.net/def/crs/EPSG/0/4326'
p1105
assS'NL.RIVM.AQ/SPO_F-NL00934_00038_111_112'
p1106
(dp1107
g32
(lp1108
S'53.330425035968325 6.276815 1.0'
p1109
aS'http://www.opengis.net/def/crs/EPSG/0/4326'
p1110
assS'NL.RIVM.AQ/SPO_F-NL00496_00008_100_100'
p1111
(dp1112
g32
(lp1113
S'51.97780303740636 4.121944000000001 0.0'
p1114
aS'http://www.opengis.net/def/crs/EPSG/0/4326'
p1115
assS'NL.RIVM.AQ/SPO_F-NL00639_00020_100_101'
p1116
(dp1117
g32
(lp1118
S'52.06774803731743 5.120507000000001 1.0'
p1119
aS'http://www.opengis.net/def/crs/EPSG/0/4326'
p1120
assS'NL.RIVM.AQ/SPO_F-NL00444_06001_100_101'
p1121
(dp1122
g32
(lp1123
S'52.2965560370868 4.510817 4.0'
p1124
aS'http://www.opengis.net/def/crs/EPSG/0/4326'
p1125
assS'NL.RIVM.AQ/SPO_F-NL00131_00014_101_101'
p1126
(dp1127
g32
(lp1128
S'51.540520037824535 5.853069999999999 28.0'
p1129
aS'http://www.opengis.net/def/crs/EPSG/0/4326'
p1130
assS'NL.RIVM.AQ/SPO_F-NL00493_00007_100_100'
p1131
(dp1132
g32
(lp1133
S'51.92711103745604 4.461344 0.0'
p1134
aS'http://www.opengis.net/def/crs/EPSG/0/4326'
p1135
assS'NL.RIVM.AQ/SPO_F-NL00934_00005_100_100'
p1136
(dp1137
g32
(lp1138
S'53.330425035968325 6.276815 1.0'
p1139
aS'http://www.opengis.net/def/crs/EPSG/0/4326'
p1140
assS'NL.RIVM.AQ/SPO_F-NL00934_00009_101_102'
p1141
(dp1142
g32
(lp1143
S'53.330425035968325 6.276815 1.0'
p1144
aS'http://www.opengis.net/def/crs/EPSG/0/4326'
p1145
assS'NL.RIVM.AQ/SPO_F-NL00246_00008_100_100'
p1146
(dp1147
g32
(lp1148
S'51.65372903771855 4.515271 1.0'
p1149
aS'http://www.opengis.net/def/crs/EPSG/0/4326'
p1150
assS'NL.RIVM.AQ/SPO_F-NL00548_00008_100_100'
p1151
(dp1152
g32
(lp1153
S'52.26798003711595 5.1758299999999995 1.0'
p1154
aS'http://www.opengis.net/def/crs/EPSG/0/4326'
p1155
assS'NL.RIVM.AQ/SPO_F-NL00565_00005_100_100'
p1156
(dp1157
g32
(lp1158
S'52.32746403705515 4.715008000000001 1.0'
p1159
aS'http://www.opengis.net/def/crs/EPSG/0/4326'
p1160
assS'NL.RIVM.AQ/SPO_F-NL00482_06001_100_100'
p1161
(dp1162
g32
(lp1163
S'51.95941703742444 4.091394000000001 0.0'
p1164
aS'http://www.opengis.net/def/crs/EPSG/0/4326'
p1165
assS'NL.RIVM.AQ/SPO_F-NL00230_00005_100_101'
p1166
(dp1167
g32
(lp1168
S'51.518440037845004 5.1484499999999995 15.0'
p1169
aS'http://www.opengis.net/def/crs/EPSG/0/4326'
p1170
assS'NL.RIVM.AQ/SPO_F-NL00494_00009_100_100'
p1171
(dp1172
g32
(lp1173
S'51.92138903746164 4.401388999999999 3.0'
p1174
aS'http://www.opengis.net/def/crs/EPSG/0/4326'
p1175
assS'NL.RIVM.AQ/SPO_F-NL00644_06001_100_100'
p1176
(dp1177
g32
(lp1178
S'51.97448903740961 4.923301 1.0'
p1179
aS'http://www.opengis.net/def/crs/EPSG/0/4326'
p1180
assS'NL.RIVM.AQ/SPO_F-NL00237_00038_101_102'
p1181
(dp1182
g32
(lp1183
S'51.44415703791349 5.444833000000001 18.0'
p1184
aS'http://www.opengis.net/def/crs/EPSG/0/4326'
p1185
assS'NL.RIVM.AQ/SPO_F-NL00496_00038_100_100'
p1186
(dp1187
g32
(lp1188
S'51.97780303740636 4.121944000000001 0.0'
p1189
aS'http://www.opengis.net/def/crs/EPSG/0/4326'
p1190
assS'NL.RIVM.AQ/SPO_F-NL00136_00008_100_101'
p1191
(dp1192
g32
(lp1193
S'50.88795903840375 5.970496 100.0'
p1194
aS'http://www.opengis.net/def/crs/EPSG/0/4326'
p1195
assS'NL.RIVM.AQ/SPO_F-NL00918_00038_101_102'
p1196
(dp1197
g32
(lp1198
S'52.91691592643034 5.573491569999999 1.0'
p1199
aS'http://www.opengis.net/def/crs/EPSG/0/4326'
p1200
assS'NL.RIVM.AQ/SPO_F-NL00538_00008_111_112'
p1201
(dp1202
g32
(lp1203
S'52.803657036553524 5.050509 -4.0'
p1204
aS'http://www.opengis.net/def/crs/EPSG/0/4326'
p1205
assS'NL.RIVM.AQ/SPO_F-NL00495_00020_100_100'
p1206
(dp1207
g32
(lp1208
S'51.932039037451226 4.228024999999998 0.0'
p1209
aS'http://www.opengis.net/def/crs/EPSG/0/4326'
p1210
assS'NL.RIVM.AQ/SPO_F-NL00133_00009_101_102'
p1211
(dp1212
g32
(lp1213
S'50.902281038391635 5.881748000000001 96.0'
p1214
aS'http://www.opengis.net/def/crs/EPSG/0/4326'
p1215
assS'NL.RIVM.AQ/SPO_F-NL00633_00464_102_102'
p1216
(dp1217
g32
(lp1218
S'52.13795003724734 4.83819 -2.0'
p1219
aS'http://www.opengis.net/def/crs/EPSG/0/4326'
p1220
assS'NL.RIVM.AQ/SPO_F-NL00722_00007_111_112'
p1221
(dp1222
g32
(lp1223
S'52.09180103729347 6.605367 19.0'
p1224
aS'http://www.opengis.net/def/crs/EPSG/0/4326'
p1225
assS'NL.RIVM.AQ/SPO_F-NL00641_00007_100_101'
p1226
(dp1227
g32
(lp1228
S'52.20153003718333 4.987444000000001 -1.0'
p1229
aS'http://www.opengis.net/def/crs/EPSG/0/4326'
p1230
assS'NL.RIVM.AQ/SPO_F-NL00019_00009_101_101'
p1231
(dp1232
g32
(lp1233
S'52.372056037009315 4.9044 2.0'
p1234
aS'http://www.opengis.net/def/crs/EPSG/0/4326'
p1235
assS'NL.RIVM.AQ/SPO_F-NL00741_00008_100_101'
p1236
(dp1237
g32
(lp1238
S'51.841372037539365 5.857777 30.0'
p1239
aS'http://www.opengis.net/def/crs/EPSG/0/4326'
p1240
assS'NL.RIVM.AQ/SPO_F-NL00433_00008_111_112'
p1241
(dp1242
g32
(lp1243
S'51.910474037472305 4.326303 -1.0'
p1244
aS'http://www.opengis.net/def/crs/EPSG/0/4326'
p1245
assS'NL.RIVM.AQ/SPO_F-NL00937_00005_100_101'
p1246
(dp1247
g32
(lp1248
S'53.217796036096054 6.578900999999999 2.0'
p1249
aS'http://www.opengis.net/def/crs/EPSG/0/4326'
p1250
assS'NL.RIVM.AQ/SPO_F-NL00934_00014_102_102'
p1251
(dp1252
g32
(lp1253
S'53.330425035968325 6.276815 1.0'
p1254
aS'http://www.opengis.net/def/crs/EPSG/0/4326'
p1255
assS'NL.RIVM.AQ/SPO_F-NL00237_00009_101_102'
p1256
(dp1257
g32
(lp1258
S'51.44415703791349 5.444833000000001 18.0'
p1259
aS'http://www.opengis.net/def/crs/EPSG/0/4326'
p1260
assS'NL.RIVM.AQ/SPO_F-NL00236_00038_101_102'
p1261
(dp1262
g32
(lp1263
S'51.46866203789098 5.47235 17.0'
p1264
aS'http://www.opengis.net/def/crs/EPSG/0/4326'
p1265
assS'NL.RIVM.AQ/SPO_F-NL00494_00001_100_100'
p1266
(dp1267
g32
(lp1268
S'51.92138903746164 4.401388999999999 3.0'
p1269
aS'http://www.opengis.net/def/crs/EPSG/0/4326'
p1270
assS'NL.RIVM.AQ/SPO_F-NL00937_06001_100_100'
p1271
(dp1272
g32
(lp1273
S'53.217796036096054 6.578900999999999 2.0'
p1274
aS'http://www.opengis.net/def/crs/EPSG/0/4326'
p1275
assS'NL.RIVM.AQ/SPO_F-NL00007_00008_101_101'
p1276
(dp1277
g32
(lp1278
S'52.381331036999754 4.845233 2.0'
p1279
aS'http://www.opengis.net/def/crs/EPSG/0/4326'
p1280
assS'NL.RIVM.AQ/SPO_F-NL00136_00009_100_101'
p1281
(dp1282
g32
(lp1283
S'50.88795903840375 5.970496 100.0'
p1284
aS'http://www.opengis.net/def/crs/EPSG/0/4326'
p1285
assS'NL.RIVM.AQ/SPO_F-NL00639_00009_101_102'
p1286
(dp1287
g32
(lp1288
S'52.06774803731743 5.120507000000001 1.0'
p1289
aS'http://www.opengis.net/def/crs/EPSG/0/4326'
p1290
assS'NL.RIVM.AQ/SPO_F-NL00318_00001_111_111'
p1291
(dp1292
g32
(lp1293
S'51.294498038049305 3.749483999999999 5.0'
p1294
aS'http://www.opengis.net/def/crs/EPSG/0/4326'
p1295
assS'NL.RIVM.AQ/SPO_F-NL00636_00008_111_112'
p1296
(dp1297
g32
(lp1298
S'52.105031037280284 5.124464 1.0'
p1299
aS'http://www.opengis.net/def/crs/EPSG/0/4326'
p1300
assS'NL.RIVM.AQ/SPO_F-NL00553_00008_100_100'
p1301
(dp1302
g32
(lp1303
S'52.49399203688275 4.601986000000001 7.0'
p1304
aS'http://www.opengis.net/def/crs/EPSG/0/4326'
p1305
assS'NL.RIVM.AQ/SPO_F-NL00020_00008_101_101'
p1306
(dp1307
g32
(lp1308
S'52.3747860370065 4.860319 4.0'
p1309
aS'http://www.opengis.net/def/crs/EPSG/0/4326'
p1310
assS'NL.RIVM.AQ/SPO_F-NL00236_00009_101_102'
p1311
(dp1312
g32
(lp1313
S'51.46866203789098 5.47235 17.0'
p1314
aS'http://www.opengis.net/def/crs/EPSG/0/4326'
p1315
assS'NL.RIVM.AQ/SPO_F-NL00246_00009_100_100'
p1316
(dp1317
g32
(lp1318
S'51.65372903771855 4.515271 1.0'
p1319
aS'http://www.opengis.net/def/crs/EPSG/0/4326'
p1320
assS'NL.RIVM.AQ/SPO_F-NL00491_00005_100_100'
p1321
(dp1322
g32
(lp1323
S'51.93847203744493 4.430692 0.0'
p1324
aS'http://www.opengis.net/def/crs/EPSG/0/4326'
p1325
assS'NL.RIVM.AQ/SPO_F-NL00546_00008_100_100'
p1326
(dp1327
g32
(lp1328
S'52.420230036959516 4.83206 1.0'
p1329
aS'http://www.opengis.net/def/crs/EPSG/0/4326'
p1330
assS'NL.RIVM.AQ/SPO_F-NL00496_00007_100_100'
p1331
(dp1332
g32
(lp1333
S'51.97780303740636 4.121944000000001 0.0'
p1334
aS'http://www.opengis.net/def/crs/EPSG/0/4326'
p1335
assS'NL.RIVM.AQ/SPO_F-NL00486_00009_100_100'
p1336
(dp1337
g32
(lp1338
S'51.8878690374943 4.388808000000001 0.0'
p1339
aS'http://www.opengis.net/def/crs/EPSG/0/4326'
p1340
assS'NL.RIVM.AQ/SPO_F-NL00738_00008_100_101'
p1341
(dp1342
g32
(lp1343
S'52.111621037273686 5.708418999999999 18.0'
p1344
aS'http://www.opengis.net/def/crs/EPSG/0/4326'
p1345
assS'NL.RIVM.AQ/SPO_F-NL00573_00005_100_100'
p1346
(dp1347
g32
(lp1348
S'52.47887103689854 4.579343 1.0'
p1349
aS'http://www.opengis.net/def/crs/EPSG/0/4326'
p1350
assS'NL.RIVM.AQ/SPO_F-NL00537_00007_100_101'
p1351
(dp1352
g32
(lp1353
S'52.38104003700004 4.64759 1.0'
p1354
aS'http://www.opengis.net/def/crs/EPSG/0/4326'
p1355
assS'NL.RIVM.AQ/SPO_F-NL00433_06001_100_101'
p1356
(dp1357
g32
(lp1358
S'51.910474037472305 4.326303 -1.0'
p1359
aS'http://www.opengis.net/def/crs/EPSG/0/4326'
p1360
assS'NL.RIVM.AQ/SPO_F-NL00704_00021_100_100'
p1361
(dp1362
g32
(lp1363
S'52.428017036951445 4.773478 4.0'
p1364
aS'http://www.opengis.net/def/crs/EPSG/0/4326'
p1365
assS'NL.RIVM.AQ/SPO_F-NL00133_00001_101_101'
p1366
(dp1367
g32
(lp1368
S'50.902281038391635 5.881748000000001 96.0'
p1369
aS'http://www.opengis.net/def/crs/EPSG/0/4326'
p1370
assS'NL.RIVM.AQ/SPO_F-NL00743_00005_100_100'
p1371
(dp1372
g32
(lp1373
S'52.15406703723116 5.664074000000001 1.0'
p1374
aS'http://www.opengis.net/def/crs/EPSG/0/4326'
p1375
assS'NL.RIVM.AQ/SPO_F-NL00704_06001_100_100'
p1376
(dp1377
g32
(lp1378
S'52.428017036951445 4.773478 4.0'
p1379
aS'http://www.opengis.net/def/crs/EPSG/0/4326'
p1380
assS'NL.RIVM.AQ/SPO_F-NL00934_00008_111_112'
p1381
(dp1382
g32
(lp1383
S'53.330425035968325 6.276815 1.0'
p1384
aS'http://www.opengis.net/def/crs/EPSG/0/4326'
p1385
assS'NL.RIVM.AQ/SPO_F-NL00433_00668_100_100'
p1386
(dp1387
g32
(lp1388
S'51.910474037472305 4.326303 -1.0'
p1389
aS'http://www.opengis.net/def/crs/EPSG/0/4326'
p1390
assS'NL.RIVM.AQ/SPO_F-NL00722_00035_100_100'
p1391
(dp1392
g32
(lp1393
S'52.09180103729347 6.605367 19.0'
p1394
aS'http://www.opengis.net/def/crs/EPSG/0/4326'
p1395
assS'NL.RIVM.AQ/SPO_F-NL00742_00007_100_101'
p1396
(dp1397
g32
(lp1398
S'51.83822103754241 5.856938 30.0'
p1399
aS'http://www.opengis.net/def/crs/EPSG/0/4326'
p1400
assS'NL.RIVM.AQ/SPO_F-NL00491_00010_100_100'
p1401
(dp1402
g32
(lp1403
S'51.93847203744493 4.430692 0.0'
p1404
aS'http://www.opengis.net/def/crs/EPSG/0/4326'
p1405
assS'NL.RIVM.AQ/SPO_F-NL00446_00038_100_100'
p1406
(dp1407
g32
(lp1408
S'52.03902303734593 4.359376000000001 -2.0'
p1409
aS'http://www.opengis.net/def/crs/EPSG/0/4326'
p1410
assS'NL.RIVM.AQ/SPO_F-NL00131_00668_100_100'
p1411
(dp1412
g32
(lp1413
S'51.540520037824535 5.853069999999999 28.0'
p1414
aS'http://www.opengis.net/def/crs/EPSG/0/4326'
p1415
assS'NL.RIVM.AQ/SPO_F-NL00495_00038_100_100'
p1416
(dp1417
g32
(lp1418
S'51.932039037451226 4.228024999999998 0.0'
p1419
aS'http://www.opengis.net/def/crs/EPSG/0/4326'
p1420
assS'NL.RIVM.AQ/SPO_F-NL00437_00038_101_102'
p1421
(dp1422
g32
(lp1423
S'51.78657903759214 4.450529000000001 -1.0'
p1424
aS'http://www.opengis.net/def/crs/EPSG/0/4326'
p1425
assS'NL.RIVM.AQ/SPO_F-NL00483_00020_100_100'
p1426
(dp1427
g32
(lp1428
S'51.87006903751158 4.318061 0.0'
p1429
aS'http://www.opengis.net/def/crs/EPSG/0/4326'
p1430
assS'NL.RIVM.AQ/SPO_F-NL00493_00010_100_100'
p1431
(dp1432
g32
(lp1433
S'51.92711103745604 4.461344 0.0'
p1434
aS'http://www.opengis.net/def/crs/EPSG/0/4326'
p1435
assS'NL.RIVM.AQ/SPO_F-NL00318_00007_111_112'
p1436
(dp1437
g32
(lp1438
S'51.294498038049305 3.749483999999999 5.0'
p1439
aS'http://www.opengis.net/def/crs/EPSG/0/4326'
p1440
assS'NL.RIVM.AQ/SPO_F-NL00549_00005_100_100'
p1441
(dp1442
g32
(lp1443
S'52.257356037126755 5.235903 1.0'
p1444
aS'http://www.opengis.net/def/crs/EPSG/0/4326'
p1445
assS'NL.RIVM.AQ/SPO_F-NL00572_00005_100_100'
p1446
(dp1447
g32
(lp1448
S'52.47440003690322 4.628799999999999 1.0'
p1449
aS'http://www.opengis.net/def/crs/EPSG/0/4326'
p1450
assS'NL.RIVM.AQ/SPO_F-NL00012_00005_100_100'
p1451
(dp1452
g32
(lp1453
S'52.38998303699083 4.887811 4.0'
p1454
aS'http://www.opengis.net/def/crs/EPSG/0/4326'
p1455
assS'NL.RIVM.AQ/SPO_F-NL00564_00038_100_100'
p1456
(dp1457
g32
(lp1458
S'52.28745003709609 4.766614000000001 1.0'
p1459
aS'http://www.opengis.net/def/crs/EPSG/0/4326'
p1460
assS'NL.RIVM.AQ/SPO_F-NL00701_00007_100_100'
p1461
(dp1462
g32
(lp1463
S'52.44801103693068 4.816706000000001 1.0'
p1464
aS'http://www.opengis.net/def/crs/EPSG/0/4326'
p1465
assS'NL.RIVM.AQ/SPO_F-NL00486_00008_100_100'
p1466
(dp1467
g32
(lp1468
S'51.8878690374943 4.388808000000001 0.0'
p1469
aS'http://www.opengis.net/def/crs/EPSG/0/4326'
p1470
assS'NL.RIVM.AQ/SPO_F-NL00807_00038_101_102'
p1471
(dp1472
g32
(lp1473
S'52.388272036992596 6.402933000000001 7.0'
p1474
aS'http://www.opengis.net/def/crs/EPSG/0/4326'
p1475
assS'NL.RIVM.AQ/SPO_F-NL00549_00009_100_100'
p1476
(dp1477
g32
(lp1478
S'52.257356037126755 5.235903 1.0'
p1479
aS'http://www.opengis.net/def/crs/EPSG/0/4326'
p1480
assS'NL.RIVM.AQ/SPO_F-NL00241_00009_100_101'
p1481
(dp1482
g32
(lp1483
S'51.60308003776617 4.781016000000001 1.0'
p1484
aS'http://www.opengis.net/def/crs/EPSG/0/4326'
p1485
assS'NL.RIVM.AQ/SPO_F-NL00643_06001_100_100'
p1486
(dp1487
g32
(lp1488
S'52.101308037284014 5.128183 2.0'
p1489
aS'http://www.opengis.net/def/crs/EPSG/0/4326'
p1490
assS'NL.RIVM.AQ/SPO_F-NL00487_00010_100_100'
p1491
(dp1492
g32
(lp1493
S'51.89114703749109 4.480690000000001 0.0'
p1494
aS'http://www.opengis.net/def/crs/EPSG/0/4326'
p1495
assS'NL.RIVM.AQ/SPO_F-NL00538_00045_101_101'
p1496
(dp1497
g32
(lp1498
S'52.803657036553524 5.050509 -4.0'
p1499
aS'http://www.opengis.net/def/crs/EPSG/0/4326'
p1500
assS'NL.RIVM.AQ/SPO_F-NL00639_00482_100_101'
p1501
(dp1502
g32
(lp1503
S'52.06774803731743 5.120507000000001 1.0'
p1504
aS'http://www.opengis.net/def/crs/EPSG/0/4326'
p1505
assS'NL.RIVM.AQ/SPO_F-NL00738_00005_101_101'
p1506
(dp1507
g32
(lp1508
S'52.111621037273686 5.708418999999999 18.0'
p1509
aS'http://www.opengis.net/def/crs/EPSG/0/4326'
p1510
assS'NL.RIVM.AQ/SPO_F-NL00107_00009_101_102'
p1511
(dp1512
g32
(lp1513
S'51.11919403820476 6.0423990000000005 32.0'
p1514
aS'http://www.opengis.net/def/crs/EPSG/0/4326'
p1515
assS'NL.RIVM.AQ/SPO_F-NL00918_00008_101_102'
p1516
(dp1517
g32
(lp1518
S'52.91691592643034 5.573491569999999 1.0'
p1519
aS'http://www.opengis.net/def/crs/EPSG/0/4326'
p1520
assS'NL.RIVM.AQ/SPO_F-NL00641_00005_101_101'
p1521
(dp1522
g32
(lp1523
S'52.20153003718333 4.987444000000001 -1.0'
p1524
aS'http://www.opengis.net/def/crs/EPSG/0/4326'
p1525
assS'NL.RIVM.AQ/SPO_F-NL00318_00009_101_102'
p1526
(dp1527
g32
(lp1528
S'51.294498038049305 3.749483999999999 5.0'
p1529
aS'http://www.opengis.net/def/crs/EPSG/0/4326'
p1530
assS'NL.RIVM.AQ/SPO_F-NL00633_00005_100_100'
p1531
(dp1532
g32
(lp1533
S'52.13795003724734 4.83819 -2.0'
p1534
aS'http://www.opengis.net/def/crs/EPSG/0/4326'
p1535
assS'NL.RIVM.AQ/SPO_F-NL00017_00020_100_100'
p1536
(dp1537
g32
(lp1538
S'52.358039037023744 4.8997 4.0'
p1539
aS'http://www.opengis.net/def/crs/EPSG/0/4326'
p1540
assS'NL.RIVM.AQ/SPO_F-NL00022_00008_101_101'
p1541
(dp1542
g32
(lp1543
S'52.36681103701471 4.793344000000001 -1.0'
p1544
aS'http://www.opengis.net/def/crs/EPSG/0/4326'
p1545
assS'NL.RIVM.AQ/SPO_F-NL00131_00005_100_101'
p1546
(dp1547
g32
(lp1548
S'51.540520037824535 5.853069999999999 28.0'
p1549
aS'http://www.opengis.net/def/crs/EPSG/0/4326'
p1550
assS'NL.RIVM.AQ/SPO_F-NL00236_00008_101_102'
p1551
(dp1552
g32
(lp1553
S'51.46866203789098 5.47235 17.0'
p1554
aS'http://www.opengis.net/def/crs/EPSG/0/4326'
p1555
assS'NL.RIVM.AQ/SPO_F-NL00444_00047_101_101'
p1556
(dp1557
g32
(lp1558
S'52.2965560370868 4.510817 4.0'
p1559
aS'http://www.opengis.net/def/crs/EPSG/0/4326'
p1560
assS'NL.RIVM.AQ/SPO_F-NL00548_00009_100_100'
p1561
(dp1562
g32
(lp1563
S'52.26798003711595 5.1758299999999995 1.0'
p1564
aS'http://www.opengis.net/def/crs/EPSG/0/4326'
p1565
assS'NL.RIVM.AQ/SPO_F-NL00934_00012_102_102'
p1566
(dp1567
g32
(lp1568
S'53.330425035968325 6.276815 1.0'
p1569
aS'http://www.opengis.net/def/crs/EPSG/0/4326'
p1570
assS'NL.RIVM.AQ/SPO_F-NL00551_00010_100_100'
p1571
(dp1572
g32
(lp1573
S'52.46303903691505 4.6018419999999995 1.0'
p1574
aS'http://www.opengis.net/def/crs/EPSG/0/4326'
p1575
assS'NL.RIVM.AQ/SPO_F-NL00021_00009_101_101'
p1576
(dp1577
g32
(lp1578
S'52.32069203706209 4.988397000000001 -3.0'
p1579
aS'http://www.opengis.net/def/crs/EPSG/0/4326'
p1580
assS'NL.RIVM.AQ/SPO_F-NL00133_00007_111_112'
p1581
(dp1582
g32
(lp1583
S'50.902281038391635 5.881748000000001 96.0'
p1584
aS'http://www.opengis.net/def/crs/EPSG/0/4326'
p1585
assS'NL.RIVM.AQ/SPO_F-NL00240_06001_100_100'
p1586
(dp1587
g32
(lp1588
S'51.5935330377751 4.824944 4.0'
p1589
aS'http://www.opengis.net/def/crs/EPSG/0/4326'
p1590
assS'NL.RIVM.AQ/SPO_F-NL00929_00631_101_101'
p1591
(dp1592
g32
(lp1593
S'52.87572503647533 6.932432000000001 10.0'
p1594
aS'http://www.opengis.net/def/crs/EPSG/0/4326'
p1595
assS'NL.RIVM.AQ/SPO_F-NL00929_00038_100_101'
p1596
(dp1597
g32
(lp1598
S'52.87572503647533 6.932432000000001 10.0'
p1599
aS'http://www.opengis.net/def/crs/EPSG/0/4326'
p1600
assS'NL.RIVM.AQ/SPO_F-NL00433_00038_111_112'
p1601
(dp1602
g32
(lp1603
S'51.910474037472305 4.326303 -1.0'
p1604
aS'http://www.opengis.net/def/crs/EPSG/0/4326'
p1605
assS'NL.RIVM.AQ/SPO_F-NL00489_00008_100_100'
p1606
(dp1607
g32
(lp1608
S'51.869431037512186 4.580058 0.0'
p1609
aS'http://www.opengis.net/def/crs/EPSG/0/4326'
p1610
assS'NL.RIVM.AQ/SPO_F-NL00636_00038_111_112'
p1611
(dp1612
g32
(lp1613
S'52.105031037280284 5.124464 1.0'
p1614
aS'http://www.opengis.net/def/crs/EPSG/0/4326'
p1615
assS'NL.RIVM.AQ/SPO_F-NL00537_00009_101_102'
p1616
(dp1617
g32
(lp1618
S'52.38104003700004 4.64759 1.0'
p1619
aS'http://www.opengis.net/def/crs/EPSG/0/4326'
p1620
assS'NL.RIVM.AQ/SPO_F-NL00738_00009_100_101'
p1621
(dp1622
g32
(lp1623
S'52.111621037273686 5.708418999999999 18.0'
p1624
aS'http://www.opengis.net/def/crs/EPSG/0/4326'
p1625
assS'NL.RIVM.AQ/SPO_F-NL00433_00012_112_112'
p1626
(dp1627
g32
(lp1628
S'51.910474037472305 4.326303 -1.0'
p1629
aS'http://www.opengis.net/def/crs/EPSG/0/4326'
p1630
assS'NL.RIVM.AQ/SPO_F-NL00573_06001_100_100'
p1631
(dp1632
g32
(lp1633
S'52.47887103689854 4.579343 1.0'
p1634
aS'http://www.opengis.net/def/crs/EPSG/0/4326'
p1635
assS'NL.RIVM.AQ/SPO_F-NL00485_00009_100_100'
p1636
(dp1637
g32
(lp1638
S'51.867411037514145 4.355241999999999 1.0'
p1639
aS'http://www.opengis.net/def/crs/EPSG/0/4326'
p1640
assS'NL.RIVM.AQ/SPO_F-NL00546_00020_100_100'
p1641
(dp1642
g32
(lp1643
S'52.420230036959516 4.83206 1.0'
p1644
aS'http://www.opengis.net/def/crs/EPSG/0/4326'
p1645
assS'NL.RIVM.AQ/SPO_F-NL00404_00005_100_101'
p1646
(dp1647
g32
(lp1648
S'52.07714803730809 4.289185000000001 2.0'
p1649
aS'http://www.opengis.net/def/crs/EPSG/0/4326'
p1650
assS'NL.RIVM.AQ/SPO_F-NL00565_00008_100_100'
p1651
(dp1652
g32
(lp1653
S'52.32746403705515 4.715008000000001 1.0'
p1654
aS'http://www.opengis.net/def/crs/EPSG/0/4326'
p1655
assS'NL.RIVM.AQ/SPO_F-NL00138_06001_100_100'
p1656
(dp1657
g32
(lp1658
S'50.90031703839329 5.986853 98.0'
p1659
aS'http://www.opengis.net/def/crs/EPSG/0/4326'
p1660
assS'NL.RIVM.AQ/SPO_F-NL00547_00038_100_100'
p1661
(dp1662
g32
(lp1663
S'52.23508303714937 5.181552 1.0'
p1664
aS'http://www.opengis.net/def/crs/EPSG/0/4326'
p1665
assS'NL.RIVM.AQ/SPO_F-NL00929_00007_100_101'
p1666
(dp1667
g32
(lp1668
S'52.87572503647533 6.932432000000001 10.0'
p1669
aS'http://www.opengis.net/def/crs/EPSG/0/4326'
p1670
assS'NL.RIVM.AQ/SPO_F-NL00494_00007_100_100'
p1671
(dp1672
g32
(lp1673
S'51.92138903746164 4.401388999999999 3.0'
p1674
aS'http://www.opengis.net/def/crs/EPSG/0/4326'
p1675
assS'NL.RIVM.AQ/SPO_F-NL00007_00009_101_101'
p1676
(dp1677
g32
(lp1678
S'52.381331036999754 4.845233 2.0'
p1679
aS'http://www.opengis.net/def/crs/EPSG/0/4326'
p1680
assS'NL.RIVM.AQ/SPO_F-NL00012_00007_100_100'
p1681
(dp1682
g32
(lp1683
S'52.38998303699083 4.887811 4.0'
p1684
aS'http://www.opengis.net/def/crs/EPSG/0/4326'
p1685
assS'NL.RIVM.AQ/SPO_F-NL00493_00038_100_100'
p1686
(dp1687
g32
(lp1688
S'51.92711103745604 4.461344 0.0'
p1689
aS'http://www.opengis.net/def/crs/EPSG/0/4326'
p1690
assS'NL.RIVM.AQ/SPO_F-NL00240_00038_100_100'
p1691
(dp1692
g32
(lp1693
S'51.5935330377751 4.824944 4.0'
p1694
aS'http://www.opengis.net/def/crs/EPSG/0/4326'
p1695
assS'NL.RIVM.AQ/SPO_F-NL00241_06001_100_101'
p1696
(dp1697
g32
(lp1698
S'51.60308003776617 4.781016000000001 1.0'
p1699
aS'http://www.opengis.net/def/crs/EPSG/0/4326'
p1700
assS'NL.RIVM.AQ/SPO_F-NL00019_00008_101_101'
p1701
(dp1702
g32
(lp1703
S'52.372056037009315 4.9044 2.0'
p1704
aS'http://www.opengis.net/def/crs/EPSG/0/4326'
p1705
assS'NL.RIVM.AQ/SPO_F-NL00553_00001_100_100'
p1706
(dp1707
g32
(lp1708
S'52.49399203688275 4.601986000000001 7.0'
p1709
aS'http://www.opengis.net/def/crs/EPSG/0/4326'
p1710
assS'NL.RIVM.AQ/SPO_F-NL00433_00014_102_102'
p1711
(dp1712
g32
(lp1713
S'51.910474037472305 4.326303 -1.0'
p1714
aS'http://www.opengis.net/def/crs/EPSG/0/4326'
p1715
assS'NL.RIVM.AQ/SPO_F-NL00007_00005_100_100'
p1716
(dp1717
g32
(lp1718
S'52.381331036999754 4.845233 2.0'
p1719
aS'http://www.opengis.net/def/crs/EPSG/0/4326'
p1720
assS'NL.RIVM.AQ/SPO_F-NL00818_00038_100_101'
p1721
(dp1722
g32
(lp1723
S'52.65414403671388 6.017571 1.0'
p1724
aS'http://www.opengis.net/def/crs/EPSG/0/4326'
p1725
assS'NL.RIVM.AQ/SPO_F-NL00433_00659_100_100'
p1726
(dp1727
g32
(lp1728
S'51.910474037472305 4.326303 -1.0'
p1729
aS'http://www.opengis.net/def/crs/EPSG/0/4326'
p1730
assS'NL.RIVM.AQ/SPO_F-NL00549_00038_100_100'
p1731
(dp1732
g32
(lp1733
S'52.257356037126755 5.235903 1.0'
p1734
aS'http://www.opengis.net/def/crs/EPSG/0/4326'
p1735
assS'NL.RIVM.AQ/SPO_F-NL00494_00038_100_100'
p1736
(dp1737
g32
(lp1738
S'51.92138903746164 4.401388999999999 3.0'
p1739
aS'http://www.opengis.net/def/crs/EPSG/0/4326'
p1740
assS'NL.RIVM.AQ/SPO_F-NL00703_00021_100_100'
p1741
(dp1742
g32
(lp1743
S'52.39843703698208 4.728581 1.0'
p1744
aS'http://www.opengis.net/def/crs/EPSG/0/4326'
p1745
assS'NL.RIVM.AQ/SPO_F-NL00938_00007_100_101'
p1746
(dp1747
g32
(lp1748
S'53.2465350360636 6.608937 -1.0'
p1749
aS'http://www.opengis.net/def/crs/EPSG/0/4326'
p1750
assS'NL.RIVM.AQ/SPO_F-NL00742_00008_100_101'
p1751
(dp1752
g32
(lp1753
S'51.83822103754241 5.856938 30.0'
p1754
aS'http://www.opengis.net/def/crs/EPSG/0/4326'
p1755
assS'NL.RIVM.AQ/SPO_F-NL00487_00009_100_100'
p1756
(dp1757
g32
(lp1758
S'51.89114703749109 4.480690000000001 0.0'
p1759
aS'http://www.opengis.net/def/crs/EPSG/0/4326'
p1760
assS'NL.RIVM.AQ/SPO_F-NL00934_00015_101_101'
p1761
(dp1762
g32
(lp1763
S'53.330425035968325 6.276815 1.0'
p1764
aS'http://www.opengis.net/def/crs/EPSG/0/4326'
p1765
assS'NL.RIVM.AQ/SPO_F-NL00301_00009_101_102'
p1766
(dp1767
g32
(lp1768
S'51.634706037736464 3.9166229999999995 -1.0'
p1769
aS'http://www.opengis.net/def/crs/EPSG/0/4326'
p1770
assS'NL.RIVM.AQ/SPO_F-NL00237_00005_100_101'
p1771
(dp1772
g32
(lp1773
S'51.44415703791349 5.444833000000001 18.0'
p1774
aS'http://www.opengis.net/def/crs/EPSG/0/4326'
p1775
assS'NL.RIVM.AQ/SPO_F-NL00493_00008_100_100'
p1776
(dp1777
g32
(lp1778
S'51.92711103745604 4.461344 0.0'
p1779
aS'http://www.opengis.net/def/crs/EPSG/0/4326'
p1780
assS'NL.RIVM.AQ/SPO_F-NL00247_00009_100_100'
p1781
(dp1782
g32
(lp1783
S'51.40736503794714 5.3933279999999995 22.0'
p1784
aS'http://www.opengis.net/def/crs/EPSG/0/4326'
p1785
assS'NL.RIVM.AQ/SPO_F-NL00445_00005_100_101'
p1786
(dp1787
g32
(lp1788
S'52.075071037310146 4.315872 4.0'
p1789
aS'http://www.opengis.net/def/crs/EPSG/0/4326'
p1790
assS'NL.RIVM.AQ/SPO_F-NL00818_00008_100_101'
p1791
(dp1792
g32
(lp1793
S'52.65414403671388 6.017571 1.0'
p1794
aS'http://www.opengis.net/def/crs/EPSG/0/4326'
p1795
assS'NL.RIVM.AQ/SPO_F-NL00495_00009_100_100'
p1796
(dp1797
g32
(lp1798
S'51.932039037451226 4.228024999999998 0.0'
p1799
aS'http://www.opengis.net/def/crs/EPSG/0/4326'
p1800
assS'NL.RIVM.AQ/SPO_F-NL00131_00047_101_101'
p1801
(dp1802
g32
(lp1803
S'51.540520037824535 5.853069999999999 28.0'
p1804
aS'http://www.opengis.net/def/crs/EPSG/0/4326'
p1805
assS'NL.RIVM.AQ/SPO_F-NL00703_00008_100_100'
p1806
(dp1807
g32
(lp1808
S'52.39843703698208 4.728581 1.0'
p1809
aS'http://www.opengis.net/def/crs/EPSG/0/4326'
p1810
assS'NL.RIVM.AQ/SPO_F-NL00235_00009_101_102'
p1811
(dp1812
g32
(lp1813
S'51.43444303792239 4.359835 18.0'
p1814
aS'http://www.opengis.net/def/crs/EPSG/0/4326'
p1815
assS'NL.RIVM.AQ/SPO_F-NL00489_00009_100_100'
p1816
(dp1817
g32
(lp1818
S'51.869431037512186 4.580058 0.0'
p1819
aS'http://www.opengis.net/def/crs/EPSG/0/4326'
p1820
assS'NL.RIVM.AQ/SPO_F-NL00491_00038_100_100'
p1821
(dp1822
g32
(lp1823
S'51.93847203744493 4.430692 0.0'
p1824
aS'http://www.opengis.net/def/crs/EPSG/0/4326'
p1825
assS'NL.RIVM.AQ/SPO_F-NL00418_00007_120_121'
p1826
(dp1827
g32
(lp1828
S'51.914233037468634 4.479923 3.0'
p1829
aS'http://www.opengis.net/def/crs/EPSG/0/4326'
p1830
assS'NL.RIVM.AQ/SPO_F-NL00491_00008_100_100'
p1831
(dp1832
g32
(lp1833
S'51.93847203744493 4.430692 0.0'
p1834
aS'http://www.opengis.net/def/crs/EPSG/0/4326'
p1835
assS'NL.RIVM.AQ/SPO_F-NL00014_00007_100_100'
p1836
(dp1837
g32
(lp1838
S'52.359714037022016 4.866208 2.0'
p1839
aS'http://www.opengis.net/def/crs/EPSG/0/4326'
p1840
assS'NL.RIVM.AQ/SPO_F-NL00494_00008_100_100'
p1841
(dp1842
g32
(lp1843
S'51.92138903746164 4.401388999999999 3.0'
p1844
aS'http://www.opengis.net/def/crs/EPSG/0/4326'
p1845
assS'NL.RIVM.AQ/SPO_F-NL00929_00005_100_101'
p1846
(dp1847
g32
(lp1848
S'52.87572503647533 6.932432000000001 10.0'
p1849
aS'http://www.opengis.net/def/crs/EPSG/0/4326'
p1850
assS'NL.RIVM.AQ/SPO_F-NL00494_06001_101_101'
p1851
(dp1852
g32
(lp1853
S'51.92138903746164 4.401388999999999 3.0'
p1854
aS'http://www.opengis.net/def/crs/EPSG/0/4326'
p1855
assS'NL.RIVM.AQ/SPO_F-NL00230_00008_101_102'
p1856
(dp1857
g32
(lp1858
S'51.518440037845004 5.1484499999999995 15.0'
p1859
aS'http://www.opengis.net/def/crs/EPSG/0/4326'
p1860
assS'NL.RIVM.AQ/SPO_F-NL00633_00038_101_102'
p1861
(dp1862
g32
(lp1863
S'52.13795003724734 4.83819 -2.0'
p1864
aS'http://www.opengis.net/def/crs/EPSG/0/4326'
p1865
assS'NL.RIVM.AQ/SPO_F-NL00633_00010_101_101'
p1866
(dp1867
g32
(lp1868
S'52.13795003724734 4.83819 -2.0'
p1869
aS'http://www.opengis.net/def/crs/EPSG/0/4326'
p1870
assS'NL.RIVM.AQ/SPO_F-NL00445_00008_100_101'
p1871
(dp1872
g32
(lp1873
S'52.075071037310146 4.315872 4.0'
p1874
aS'http://www.opengis.net/def/crs/EPSG/0/4326'
p1875
assS'NL.RIVM.AQ/SPO_F-NL00929_00008_100_101'
p1876
(dp1877
g32
(lp1878
S'52.87572503647533 6.932432000000001 10.0'
p1879
aS'http://www.opengis.net/def/crs/EPSG/0/4326'
p1880
assS'NL.RIVM.AQ/SPO_F-NL00741_00009_100_101'
p1881
(dp1882
g32
(lp1883
S'51.841372037539365 5.857777 30.0'
p1884
aS'http://www.opengis.net/def/crs/EPSG/0/4326'
p1885
assS'NL.RIVM.AQ/SPO_F-NL00301_00008_101_102'
p1886
(dp1887
g32
(lp1888
S'51.634706037736464 3.9166229999999995 -1.0'
p1889
aS'http://www.opengis.net/def/crs/EPSG/0/4326'
p1890
assS'NL.RIVM.AQ/SPO_F-NL00738_00035_100_100'
p1891
(dp1892
g32
(lp1893
S'52.111621037273686 5.708418999999999 18.0'
p1894
aS'http://www.opengis.net/def/crs/EPSG/0/4326'
p1895
assS'NL.RIVM.AQ/SPO_F-NL00701_00009_100_100'
p1896
(dp1897
g32
(lp1898
S'52.44801103693068 4.816706000000001 1.0'
p1899
aS'http://www.opengis.net/def/crs/EPSG/0/4326'
p1900
assS'NL.RIVM.AQ/SPO_F-NL00133_00005_100_101'
p1901
(dp1902
g32
(lp1903
S'50.902281038391635 5.881748000000001 96.0'
p1904
aS'http://www.opengis.net/def/crs/EPSG/0/4326'
p1905
assS'NL.RIVM.AQ/SPO_F-NL00742_00010_100_100'
p1906
(dp1907
g32
(lp1908
S'51.83822103754241 5.856938 30.0'
p1909
aS'http://www.opengis.net/def/crs/EPSG/0/4326'
p1910
assS'NL.RIVM.AQ/SPO_F-NL00244_00005_100_100'
p1911
(dp1912
g32
(lp1913
S'51.535901037828836 5.808593 1.0'
p1914
aS'http://www.opengis.net/def/crs/EPSG/0/4326'
p1915
assS'NL.RIVM.AQ/SPO_F-NL00495_00008_100_100'
p1916
(dp1917
g32
(lp1918
S'51.932039037451226 4.228024999999998 0.0'
p1919
aS'http://www.opengis.net/def/crs/EPSG/0/4326'
p1920
assS'NL.RIVM.AQ/SPO_F-NL00818_00009_100_101'
p1921
(dp1922
g32
(lp1923
S'52.65414403671388 6.017571 1.0'
p1924
aS'http://www.opengis.net/def/crs/EPSG/0/4326'
p1925
assS'NL.RIVM.AQ/SPO_F-NL00012_00009_101_101'
p1926
(dp1927
g32
(lp1928
S'52.38998303699083 4.887811 4.0'
p1929
aS'http://www.opengis.net/def/crs/EPSG/0/4326'
p1930
assS'NL.RIVM.AQ/SPO_F-NL00444_00006_101_101'
p1931
(dp1932
g32
(lp1933
S'52.2965560370868 4.510817 4.0'
p1934
aS'http://www.opengis.net/def/crs/EPSG/0/4326'
p1935
assS'NL.RIVM.AQ/SPO_F-NL00722_00038_111_112'
p1936
(dp1937
g32
(lp1938
S'52.09180103729347 6.605367 19.0'
p1939
aS'http://www.opengis.net/def/crs/EPSG/0/4326'
p1940
assS'NL.RIVM.AQ/SPO_F-NL00002_00008_101_101'
p1941
(dp1942
g32
(lp1943
S'52.385422036995514 4.87575 4.0'
p1944
aS'http://www.opengis.net/def/crs/EPSG/0/4326'
p1945
assS'NL.RIVM.AQ/SPO_F-NL00496_00021_100_100'
p1946
(dp1947
g32
(lp1948
S'51.97780303740636 4.121944000000001 0.0'
p1949
aS'http://www.opengis.net/def/crs/EPSG/0/4326'
p1950
assS'NL.RIVM.AQ/SPO_F-NL00701_00038_100_100'
p1951
(dp1952
g32
(lp1953
S'52.44801103693068 4.816706000000001 1.0'
p1954
aS'http://www.opengis.net/def/crs/EPSG/0/4326'
p1955
assS'NL.RIVM.AQ/SPO_F-NL00235_00035_100_100'
p1956
(dp1957
g32
(lp1958
S'51.43444303792239 4.359835 18.0'
p1959
aS'http://www.opengis.net/def/crs/EPSG/0/4326'
p1960
assS'NL.RIVM.AQ/SPO_F-NL00551_00008_100_100'
p1961
(dp1962
g32
(lp1963
S'52.46303903691505 4.6018419999999995 1.0'
p1964
aS'http://www.opengis.net/def/crs/EPSG/0/4326'
p1965
assS'NL.RIVM.AQ/SPO_F-NL00627_00659_100_100'
p1966
(dp1967
g32
(lp1968
S'52.12083303726448 5.195567 3.0'
p1969
aS'http://www.opengis.net/def/crs/EPSG/0/4326'
p1970
assS'NL.RIVM.AQ/SPO_F-NL00131_00063_101_101'
p1971
(dp1972
g32
(lp1973
S'51.540520037824535 5.853069999999999 28.0'
p1974
aS'http://www.opengis.net/def/crs/EPSG/0/4326'
p1975
assS'NL.RIVM.AQ/SPO_F-NL00547_00005_100_100'
p1976
(dp1977
g32
(lp1978
S'52.23508303714937 5.181552 1.0'
p1979
aS'http://www.opengis.net/def/crs/EPSG/0/4326'
p1980
assS'NL.RIVM.AQ/SPO_F-NL00433_00005_100_101'
p1981
(dp1982
g32
(lp1983
S'51.910474037472305 4.326303 -1.0'
p1984
aS'http://www.opengis.net/def/crs/EPSG/0/4326'
p1985
assS'NL.RIVM.AQ/SPO_F-NL00561_00009_100_100'
p1986
(dp1987
g32
(lp1988
S'52.33400303704845 4.774006 1.0'
p1989
aS'http://www.opengis.net/def/crs/EPSG/0/4326'
p1990
assS'NL.RIVM.AQ/SPO_F-NL00007_06001_100_100'
p1991
(dp1992
g32
(lp1993
S'52.381331036999754 4.845233 2.0'
p1994
aS'http://www.opengis.net/def/crs/EPSG/0/4326'
p1995
assS'NL.RIVM.AQ/SPO_F-NL00741_06001_100_100'
p1996
(dp1997
g32
(lp1998
S'51.841372037539365 5.857777 30.0'
p1999
aS'http://www.opengis.net/def/crs/EPSG/0/4326'
p2000
assS'NL.RIVM.AQ/SPO_F-NL00807_00008_101_102'
p2001
(dp2002
g32
(lp2003
S'52.388272036992596 6.402933000000001 7.0'
p2004
aS'http://www.opengis.net/def/crs/EPSG/0/4326'
p2005
assS'NL.RIVM.AQ/SPO_F-NL00137_00007_100_101'
p2006
(dp2007
g32
(lp2008
S'50.88487003840636 5.977283 115.0'
p2009
aS'http://www.opengis.net/def/crs/EPSG/0/4326'
p2010
assS'NL.RIVM.AQ/SPO_F-NL00433_00063_101_101'
p2011
(dp2012
g32
(lp2013
S'51.910474037472305 4.326303 -1.0'
p2014
aS'http://www.opengis.net/def/crs/EPSG/0/4326'
p2015
assS'NL.RIVM.AQ/SPO_F-NL00437_00007_101_102'
p2016
(dp2017
g32
(lp2018
S'51.78657903759214 4.450529000000001 -1.0'
p2019
aS'http://www.opengis.net/def/crs/EPSG/0/4326'
p2020
assS'NL.RIVM.AQ/SPO_F-NL00937_00009_100_101'
p2021
(dp2022
g32
(lp2023
S'53.217796036096054 6.578900999999999 2.0'
p2024
aS'http://www.opengis.net/def/crs/EPSG/0/4326'
p2025
assS'NL.RIVM.AQ/SPO_F-NL00483_00021_100_100'
p2026
(dp2027
g32
(lp2028
S'51.87006903751158 4.318061 0.0'
p2029
aS'http://www.opengis.net/def/crs/EPSG/0/4326'
p2030
assS'NL.RIVM.AQ/SPO_F-NL00318_00005_100_101'
p2031
(dp2032
g32
(lp2033
S'51.294498038049305 3.749483999999999 5.0'
p2034
aS'http://www.opengis.net/def/crs/EPSG/0/4326'
p2035
assS'NL.RIVM.AQ/SPO_F-NL00643_00008_100_100'
p2036
(dp2037
g32
(lp2038
S'52.101308037284014 5.128183 2.0'
p2039
aS'http://www.opengis.net/def/crs/EPSG/0/4326'
p2040
assS'NL.RIVM.AQ/SPO_F-NL00442_00038_100_100'
p2041
(dp2042
g32
(lp2043
S'51.80065803757861 4.708238999999999 1.0'
p2044
aS'http://www.opengis.net/def/crs/EPSG/0/4326'
p2045
assS'NL.RIVM.AQ/SPO_F-NL00444_00035_100_100'
p2046
(dp2047
g32
(lp2048
S'52.2965560370868 4.510817 4.0'
p2049
aS'http://www.opengis.net/def/crs/EPSG/0/4326'
p2050
assS'NL.RIVM.AQ/SPO_F-NL00442_00008_100_100'
p2051
(dp2052
g32
(lp2053
S'51.80065803757861 4.708238999999999 1.0'
p2054
aS'http://www.opengis.net/def/crs/EPSG/0/4326'
p2055
assS'NL.RIVM.AQ/SPO_F-NL00704_00005_100_100'
p2056
(dp2057
g32
(lp2058
S'52.428017036951445 4.773478 4.0'
p2059
aS'http://www.opengis.net/def/crs/EPSG/0/4326'
p2060
assS'NL.RIVM.AQ/SPO_F-NL00488_00010_100_100'
p2061
(dp2062
g32
(lp2063
S'51.893617037488696 4.487528 0.0'
p2064
aS'http://www.opengis.net/def/crs/EPSG/0/4326'
p2065
assS'NL.RIVM.AQ/SPO_F-NL00418_00008_111_112'
p2066
(dp2067
g32
(lp2068
S'51.914233037468634 4.479923 3.0'
p2069
aS'http://www.opengis.net/def/crs/EPSG/0/4326'
p2070
assS'NL.RIVM.AQ/SPO_F-NL00433_00009_101_102'
p2071
(dp2072
g32
(lp2073
S'51.910474037472305 4.326303 -1.0'
p2074
aS'http://www.opengis.net/def/crs/EPSG/0/4326'
p2075
assS'NL.RIVM.AQ/SPO_F-NL00247_00038_100_100'
p2076
(dp2077
g32
(lp2078
S'51.40736503794714 5.3933279999999995 22.0'
p2079
aS'http://www.opengis.net/def/crs/EPSG/0/4326'
p2080
assS'NL.RIVM.AQ/SPO_F-NL00644_00009_100_100'
p2081
(dp2082
g32
(lp2083
S'51.97448903740961 4.923301 1.0'
p2084
aS'http://www.opengis.net/def/crs/EPSG/0/4326'
p2085
assS'NL.RIVM.AQ/SPO_F-NL00704_00020_100_100'
p2086
(dp2087
g32
(lp2088
S'52.428017036951445 4.773478 4.0'
p2089
aS'http://www.opengis.net/def/crs/EPSG/0/4326'
p2090
assS'NL.RIVM.AQ/SPO_F-NL00021_00008_101_101'
p2091
(dp2092
g32
(lp2093
S'52.32069203706209 4.988397000000001 -3.0'
p2094
aS'http://www.opengis.net/def/crs/EPSG/0/4326'
p2095
assS'NL.RIVM.AQ/SPO_F-NL00538_00035_100_100'
p2096
(dp2097
g32
(lp2098
S'52.803657036553524 5.050509 -4.0'
p2099
aS'http://www.opengis.net/def/crs/EPSG/0/4326'
p2100
assS'NL.RIVM.AQ/SPO_F-NL00818_00005_100_101'
p2101
(dp2102
g32
(lp2103
S'52.65414403671388 6.017571 1.0'
p2104
aS'http://www.opengis.net/def/crs/EPSG/0/4326'
p2105
assS'NL.RIVM.AQ/SPO_F-NL00021_00038_101_101'
p2106
(dp2107
g32
(lp2108
S'52.32069203706209 4.988397000000001 -3.0'
p2109
aS'http://www.opengis.net/def/crs/EPSG/0/4326'
p2110
assS'NL.RIVM.AQ/SPO_F-NL00137_00038_100_101'
p2111
(dp2112
g32
(lp2113
S'50.88487003840636 5.977283 115.0'
p2114
aS'http://www.opengis.net/def/crs/EPSG/0/4326'
p2115
assS'NL.RIVM.AQ/SPO_F-NL00644_00038_100_100'
p2116
(dp2117
g32
(lp2118
S'51.97448903740961 4.923301 1.0'
p2119
aS'http://www.opengis.net/def/crs/EPSG/0/4326'
p2120
assS'NL.RIVM.AQ/SPO_F-NL00633_00035_100_100'
p2121
(dp2122
g32
(lp2123
S'52.13795003724734 4.83819 -2.0'
p2124
aS'http://www.opengis.net/def/crs/EPSG/0/4326'
p2125
assS'NL.RIVM.AQ/SPO_F-NL00553_00038_100_100'
p2126
(dp2127
g32
(lp2128
S'52.49399203688275 4.601986000000001 7.0'
p2129
aS'http://www.opengis.net/def/crs/EPSG/0/4326'
p2130
assS'NL.RIVM.AQ/SPO_F-NL00636_06001_100_100'
p2131
(dp2132
g32
(lp2133
S'52.105031037280284 5.124464 1.0'
p2134
aS'http://www.opengis.net/def/crs/EPSG/0/4326'
p2135
assS'NL.RIVM.AQ/SPO_F-NL00447_00005_100_101'
p2136
(dp2137
g32
(lp2138
S'52.1677530372174 4.50756 1.0'
p2139
aS'http://www.opengis.net/def/crs/EPSG/0/4326'
p2140
assS'NL.RIVM.AQ/SPO_F-NL00703_00005_101_101'
p2141
(dp2142
g32
(lp2143
S'52.39843703698208 4.728581 1.0'
p2144
aS'http://www.opengis.net/def/crs/EPSG/0/4326'
p2145
assS'NL.RIVM.AQ/SPO_F-NL00704_00009_100_100'
p2146
(dp2147
g32
(lp2148
S'52.428017036951445 4.773478 4.0'
p2149
aS'http://www.opengis.net/def/crs/EPSG/0/4326'
p2150
assS'NL.RIVM.AQ/SPO_F-NL00639_00464_100_101'
p2151
(dp2152
g32
(lp2153
S'52.06774803731743 5.120507000000001 1.0'
p2154
aS'http://www.opengis.net/def/crs/EPSG/0/4326'
p2155
assS'NL.RIVM.AQ/SPO_F-NL00137_00005_100_101'
p2156
(dp2157
g32
(lp2158
S'50.88487003840636 5.977283 115.0'
p2159
aS'http://www.opengis.net/def/crs/EPSG/0/4326'
p2160
assS'NL.RIVM.AQ/SPO_F-NL00247_06001_100_100'
p2161
(dp2162
g32
(lp2163
S'51.40736503794714 5.3933279999999995 22.0'
p2164
aS'http://www.opengis.net/def/crs/EPSG/0/4326'
p2165
assS'NL.RIVM.AQ/SPO_F-NL00131_00006_112_112'
p2166
(dp2167
g32
(lp2168
S'51.540520037824535 5.853069999999999 28.0'
p2169
aS'http://www.opengis.net/def/crs/EPSG/0/4326'
p2170
assS'NL.RIVM.AQ/SPO_F-NL00938_00038_100_101'
p2171
(dp2172
g32
(lp2173
S'53.2465350360636 6.608937 -1.0'
p2174
aS'http://www.opengis.net/def/crs/EPSG/0/4326'
p2175
assS'NL.RIVM.AQ/SPO_F-NL00131_00007_111_112'
p2176
(dp2177
g32
(lp2178
S'51.540520037824535 5.853069999999999 28.0'
p2179
aS'http://www.opengis.net/def/crs/EPSG/0/4326'
p2180
assS'NL.RIVM.AQ/SPO_F-NL00014_00005_101_101'
p2181
(dp2182
g32
(lp2183
S'52.359714037022016 4.866208 2.0'
p2184
aS'http://www.opengis.net/def/crs/EPSG/0/4326'
p2185
assS'NL.RIVM.AQ/SPO_F-NL00418_00009_101_102'
p2186
(dp2187
g32
(lp2188
S'51.914233037468634 4.479923 3.0'
p2189
aS'http://www.opengis.net/def/crs/EPSG/0/4326'
p2190
assS'NL.RIVM.AQ/SPO_F-NL00301_00007_101_102'
p2191
(dp2192
g32
(lp2193
S'51.634706037736464 3.9166229999999995 -1.0'
p2194
aS'http://www.opengis.net/def/crs/EPSG/0/4326'
p2195
assS'NL.RIVM.AQ/SPO_F-NL00934_06001_100_100'
p2196
(dp2197
g32
(lp2198
S'53.330425035968325 6.276815 1.0'
p2199
aS'http://www.opengis.net/def/crs/EPSG/0/4326'
p2200
assS'NL.RIVM.AQ/SPO_F-NL00016_00001_100_100'
p2201
(dp2202
g32
(lp2203
S'52.39397203698668 4.870157000000001 3.0'
p2204
aS'http://www.opengis.net/def/crs/EPSG/0/4326'
p2205
assS'NL.RIVM.AQ/SPO_F-NL00929_00035_100_100'
p2206
(dp2207
g32
(lp2208
S'52.87572503647533 6.932432000000001 10.0'
p2209
aS'http://www.opengis.net/def/crs/EPSG/0/4326'
p2210
assS'NL.RIVM.AQ/SPO_F-NL00537_00005_100_101'
p2211
(dp2212
g32
(lp2213
S'52.38104003700004 4.64759 1.0'
p2214
aS'http://www.opengis.net/def/crs/EPSG/0/4326'
p2215
assS'NL.RIVM.AQ/SPO_F-NL00446_00007_100_100'
p2216
(dp2217
g32
(lp2218
S'52.03902303734593 4.359376000000001 -2.0'
p2219
aS'http://www.opengis.net/def/crs/EPSG/0/4326'
p2220
assS'NL.RIVM.AQ/SPO_F-NL00495_00007_100_100'
p2221
(dp2222
g32
(lp2223
S'51.932039037451226 4.228024999999998 0.0'
p2224
aS'http://www.opengis.net/def/crs/EPSG/0/4326'
p2225
assS'NL.RIVM.AQ/SPO_F-NL00007_00038_101_101'
p2226
(dp2227
g32
(lp2228
S'52.381331036999754 4.845233 2.0'
p2229
aS'http://www.opengis.net/def/crs/EPSG/0/4326'
p2230
assS'NL.RIVM.AQ/SPO_F-NL00433_00006_103_103'
p2231
(dp2232
g32
(lp2233
S'51.910474037472305 4.326303 -1.0'
p2234
aS'http://www.opengis.net/def/crs/EPSG/0/4326'
p2235
assS'NL.RIVM.AQ/SPO_F-NL00245_00008_100_100'
p2236
(dp2237
g32
(lp2238
S'51.69938903767535 4.623598000000001 1.0'
p2239
aS'http://www.opengis.net/def/crs/EPSG/0/4326'
p2240
assS'NL.RIVM.AQ/SPO_F-NL00548_00038_100_100'
p2241
(dp2242
g32
(lp2243
S'52.26798003711595 5.1758299999999995 1.0'
p2244
aS'http://www.opengis.net/def/crs/EPSG/0/4326'
p2245
assS'NL.RIVM.AQ/SPO_F-NL00437_00009_101_102'
p2246
(dp2247
g32
(lp2248
S'51.78657903759214 4.450529000000001 -1.0'
p2249
aS'http://www.opengis.net/def/crs/EPSG/0/4326'
p2250
assS'NL.RIVM.AQ/SPO_F-NL00235_00008_101_102'
p2251
(dp2252
g32
(lp2253
S'51.43444303792239 4.359835 18.0'
p2254
aS'http://www.opengis.net/def/crs/EPSG/0/4326'
p2255
assS'NL.RIVM.AQ/SPO_F-NL00703_00020_100_100'
p2256
(dp2257
g32
(lp2258
S'52.39843703698208 4.728581 1.0'
p2259
aS'http://www.opengis.net/def/crs/EPSG/0/4326'
p2260
assS'NL.RIVM.AQ/SPO_F-NL00404_00009_101_102'
p2261
(dp2262
g32
(lp2263
S'52.07714803730809 4.289185000000001 2.0'
p2264
aS'http://www.opengis.net/def/crs/EPSG/0/4326'
p2265
assS'NL.RIVM.AQ/SPO_F-NL00418_06001_100_101'
p2266
(dp2267
g32
(lp2268
S'51.914233037468634 4.479923 3.0'
p2269
aS'http://www.opengis.net/def/crs/EPSG/0/4326'
p2270
assS'NL.RIVM.AQ/SPO_F-NL00538_00038_111_112'
p2271
(dp2272
g32
(lp2273
S'52.803657036553524 5.050509 -4.0'
p2274
aS'http://www.opengis.net/def/crs/EPSG/0/4326'
p2275
assS'NL.RIVM.AQ/SPO_F-NL00546_00038_100_100'
p2276
(dp2277
g32
(lp2278
S'52.420230036959516 4.83206 1.0'
p2279
aS'http://www.opengis.net/def/crs/EPSG/0/4326'
p2280
assS'NL.RIVM.AQ/SPO_F-NL00738_00007_100_101'
p2281
(dp2282
g32
(lp2283
S'52.111621037273686 5.708418999999999 18.0'
p2284
aS'http://www.opengis.net/def/crs/EPSG/0/4326'
p2285
assS'NL.RIVM.AQ/SPO_F-NL00701_00005_101_101'
p2286
(dp2287
g32
(lp2288
S'52.44801103693068 4.816706000000001 1.0'
p2289
aS'http://www.opengis.net/def/crs/EPSG/0/4326'
p2290
assS'NL.RIVM.AQ/SPO_F-NL00742_00009_100_101'
p2291
(dp2292
g32
(lp2293
S'51.83822103754241 5.856938 30.0'
p2294
aS'http://www.opengis.net/def/crs/EPSG/0/4326'
p2295
assS'NL.RIVM.AQ/SPO_F-NL00020_00009_101_101'
p2296
(dp2297
g32
(lp2298
S'52.3747860370065 4.860319 4.0'
p2299
aS'http://www.opengis.net/def/crs/EPSG/0/4326'
p2300
assS'NL.RIVM.AQ/SPO_F-NL00572_06001_100_100'
p2301
(dp2302
g32
(lp2303
S'52.47440003690322 4.628799999999999 1.0'
p2304
aS'http://www.opengis.net/def/crs/EPSG/0/4326'
p2305
assS'NL.RIVM.AQ/SPO_F-NL00704_00008_100_100'
p2306
(dp2307
g32
(lp2308
S'52.428017036951445 4.773478 4.0'
p2309
aS'http://www.opengis.net/def/crs/EPSG/0/4326'
p2310
assS'NL.RIVM.AQ/SPO_F-NL00929_00046_101_101'
p2311
(dp2312
g32
(lp2313
S'52.87572503647533 6.932432000000001 10.0'
p2314
aS'http://www.opengis.net/def/crs/EPSG/0/4326'
p2315
assS'NL.RIVM.AQ/SPO_F-NL00938_00009_100_101'
p2316
(dp2317
g32
(lp2318
S'53.2465350360636 6.608937 -1.0'
p2319
aS'http://www.opengis.net/def/crs/EPSG/0/4326'
p2320
assS'NL.RIVM.AQ/SPO_F-NL00565_00038_100_100'
p2321
(dp2322
g32
(lp2323
S'52.32746403705515 4.715008000000001 1.0'
p2324
aS'http://www.opengis.net/def/crs/EPSG/0/4326'
p2325
assS'NL.RIVM.AQ/SPO_F-NL00485_00001_100_100'
p2326
(dp2327
g32
(lp2328
S'51.867411037514145 4.355241999999999 1.0'
p2329
aS'http://www.opengis.net/def/crs/EPSG/0/4326'
p2330
assS'NL.RIVM.AQ/SPO_F-NL00553_00005_100_100'
p2331
(dp2332
g32
(lp2333
S'52.49399203688275 4.601986000000001 7.0'
p2334
aS'http://www.opengis.net/def/crs/EPSG/0/4326'
p2335
assS'NL.RIVM.AQ/SPO_F-NL00017_06001_100_100'
p2336
(dp2337
g32
(lp2338
S'52.358039037023744 4.8997 4.0'
p2339
aS'http://www.opengis.net/def/crs/EPSG/0/4326'
p2340
assS'NL.RIVM.AQ/SPO_F-NL00641_00009_100_101'
p2341
(dp2342
g32
(lp2343
S'52.20153003718333 4.987444000000001 -1.0'
p2344
aS'http://www.opengis.net/def/crs/EPSG/0/4326'
p2345
assS'NL.RIVM.AQ/SPO_F-NL00404_00008_111_112'
p2346
(dp2347
g32
(lp2348
S'52.07714803730809 4.289185000000001 2.0'
p2349
aS'http://www.opengis.net/def/crs/EPSG/0/4326'
p2350
assS'NL.RIVM.AQ/SPO_F-NL00444_00001_100_100'
p2351
(dp2352
g32
(lp2353
S'52.2965560370868 4.510817 4.0'
p2354
aS'http://www.opengis.net/def/crs/EPSG/0/4326'
p2355
assS'NL.RIVM.AQ/SPO_F-NL00404_00038_111_112'
p2356
(dp2357
g32
(lp2358
S'52.07714803730809 4.289185000000001 2.0'
p2359
aS'http://www.opengis.net/def/crs/EPSG/0/4326'
p2360
assS'NL.RIVM.AQ/SPO_F-NL00446_00008_100_100'
p2361
(dp2362
g32
(lp2363
S'52.03902303734593 4.359376000000001 -2.0'
p2364
aS'http://www.opengis.net/def/crs/EPSG/0/4326'
p2365
assS'NL.RIVM.AQ/SPO_F-NL00934_00668_100_100'
p2366
(dp2367
g32
(lp2368
S'53.330425035968325 6.276815 1.0'
p2369
aS'http://www.opengis.net/def/crs/EPSG/0/4326'
p2370
assS'NL.RIVM.AQ/SPO_F-NL00487_00038_100_100'
p2371
(dp2372
g32
(lp2373
S'51.89114703749109 4.480690000000001 0.0'
p2374
aS'http://www.opengis.net/def/crs/EPSG/0/4326'
p2375
assS'NL.RIVM.AQ/SPO_F-NL00538_00046_101_101'
p2376
(dp2377
g32
(lp2378
S'52.803657036553524 5.050509 -4.0'
p2379
aS'http://www.opengis.net/def/crs/EPSG/0/4326'
p2380
assS'NL.RIVM.AQ/SPO_F-NL00553_06001_100_100'
p2381
(dp2382
g32
(lp2383
S'52.49399203688275 4.601986000000001 7.0'
p2384
aS'http://www.opengis.net/def/crs/EPSG/0/4326'
p2385
assS'NL.RIVM.AQ/SPO_F-NL00007_00010_100_100'
p2386
(dp2387
g32
(lp2388
S'52.381331036999754 4.845233 2.0'
p2389
aS'http://www.opengis.net/def/crs/EPSG/0/4326'
p2390
assS'NL.RIVM.AQ/SPO_F-NL00133_00008_101_102'
p2391
(dp2392
g32
(lp2393
S'50.902281038391635 5.881748000000001 96.0'
p2394
aS'http://www.opengis.net/def/crs/EPSG/0/4326'
p2395
assS'NL.RIVM.AQ/SPO_F-NL00136_00005_100_101'
p2396
(dp2397
g32
(lp2398
S'50.88795903840375 5.970496 100.0'
p2399
aS'http://www.opengis.net/def/crs/EPSG/0/4326'
p2400
assS'NL.RIVM.AQ/SPO_F-NL00644_00005_100_100'
p2401
(dp2402
g32
(lp2403
S'51.97448903740961 4.923301 1.0'
p2404
aS'http://www.opengis.net/def/crs/EPSG/0/4326'
p2405
assS'NL.RIVM.AQ/SPO_F-NL00551_06001_100_100'
p2406
(dp2407
g32
(lp2408
S'52.46303903691505 4.6018419999999995 1.0'
p2409
aS'http://www.opengis.net/def/crs/EPSG/0/4326'
p2410
assS'NL.RIVM.AQ/SPO_F-NL00934_00018_101_101'
p2411
(dp2412
g32
(lp2413
S'53.330425035968325 6.276815 1.0'
p2414
aS'http://www.opengis.net/def/crs/EPSG/0/4326'
p2415
assS'NL.RIVM.AQ/SPO_F-NL00701_00008_100_100'
p2416
(dp2417
g32
(lp2418
S'52.44801103693068 4.816706000000001 1.0'
p2419
aS'http://www.opengis.net/def/crs/EPSG/0/4326'
p2420
assS'NL.RIVM.AQ/SPO_F-NL00246_00038_100_100'
p2421
(dp2422
g32
(lp2423
S'51.65372903771855 4.515271 1.0'
p2424
aS'http://www.opengis.net/def/crs/EPSG/0/4326'
p2425
assS'NL.RIVM.AQ/SPO_F-NL00918_00005_100_101'
p2426
(dp2427
g32
(lp2428
S'52.91691592643034 5.573491569999999 1.0'
p2429
aS'http://www.opengis.net/def/crs/EPSG/0/4326'
p2430
assS'NL.RIVM.AQ/SPO_F-NL00627_00018_101_101'
p2431
(dp2432
g32
(lp2433
S'52.12083303726448 5.195567 3.0'
p2434
aS'http://www.opengis.net/def/crs/EPSG/0/4326'
p2435
assS'NL.RIVM.AQ/SPO_F-NL00247_00005_100_100'
p2436
(dp2437
g32
(lp2438
S'51.40736503794714 5.3933279999999995 22.0'
p2439
aS'http://www.opengis.net/def/crs/EPSG/0/4326'
p2440
assS'NL.RIVM.AQ/SPO_F-NL00445_00009_100_101'
p2441
(dp2442
g32
(lp2443
S'52.075071037310146 4.315872 4.0'
p2444
aS'http://www.opengis.net/def/crs/EPSG/0/4326'
p2445
assS'NL.RIVM.AQ/SPO_F-NL00551_00001_100_100'
p2446
(dp2447
g32
(lp2448
S'52.46303903691505 4.6018419999999995 1.0'
p2449
aS'http://www.opengis.net/def/crs/EPSG/0/4326'
p2450
assS'NL.RIVM.AQ/SPO_F-NL00728_00005_101_101'
p2451
(dp2452
g32
(lp2453
S'52.213965037170766 5.966719 11.0'
p2454
aS'http://www.opengis.net/def/crs/EPSG/0/4326'
p2455
assS'NL.RIVM.AQ/SPO_F-NL00549_00008_100_100'
p2456
(dp2457
g32
(lp2458
S'52.257356037126755 5.235903 1.0'
p2459
aS'http://www.opengis.net/def/crs/EPSG/0/4326'
p2460
assS'NL.RIVM.AQ/SPO_F-NL00241_00006_100_100'
p2461
(dp2462
g32
(lp2463
S'51.60308003776617 4.781016000000001 1.0'
p2464
aS'http://www.opengis.net/def/crs/EPSG/0/4326'
p2465
assS'NL.RIVM.AQ/SPO_F-NL00488_00005_100_100'
p2466
(dp2467
g32
(lp2468
S'51.893617037488696 4.487528 0.0'
p2469
aS'http://www.opengis.net/def/crs/EPSG/0/4326'
p2470
assS'NL.RIVM.AQ/SPO_F-NL00641_00008_100_101'
p2471
(dp2472
g32
(lp2473
S'52.20153003718333 4.987444000000001 -1.0'
p2474
aS'http://www.opengis.net/def/crs/EPSG/0/4326'
p2475
assS'NL.RIVM.AQ/SPO_F-NL00570_00005_100_100'
p2476
(dp2477
g32
(lp2478
S'52.48930303688765 4.640531 1.0'
p2479
aS'http://www.opengis.net/def/crs/EPSG/0/4326'
p2480
assS'NL.RIVM.AQ/SPO_F-NL00442_00009_100_100'
p2481
(dp2482
g32
(lp2483
S'51.80065803757861 4.708238999999999 1.0'
p2484
aS'http://www.opengis.net/def/crs/EPSG/0/4326'
p2485
assS'NL.RIVM.AQ/SPO_F-NL00107_00008_101_102'
p2486
(dp2487
g32
(lp2488
S'51.11919403820476 6.0423990000000005 32.0'
p2489
aS'http://www.opengis.net/def/crs/EPSG/0/4326'
p2490
assS'NL.RIVM.AQ/SPO_F-NL00636_00005_100_101'
p2491
(dp2492
g32
(lp2493
S'52.105031037280284 5.124464 1.0'
p2494
aS'http://www.opengis.net/def/crs/EPSG/0/4326'
p2495
assS'NL.RIVM.AQ/SPO_F-NL00138_00005_100_100'
p2496
(dp2497
g32
(lp2498
S'50.90031703839329 5.986853 98.0'
p2499
aS'http://www.opengis.net/def/crs/EPSG/0/4326'
p2500
assS'NL.RIVM.AQ/SPO_F-NL00701_06001_101_101'
p2501
(dp2502
g32
(lp2503
S'52.44801103693068 4.816706000000001 1.0'
p2504
aS'http://www.opengis.net/def/crs/EPSG/0/4326'
p2505
assS'NL.RIVM.AQ/SPO_F-NL00493_00009_100_100'
p2506
(dp2507
g32
(lp2508
S'51.92711103745604 4.461344 0.0'
p2509
aS'http://www.opengis.net/def/crs/EPSG/0/4326'
p2510
assS'NL.RIVM.AQ/SPO_F-NL00644_00001_100_100'
p2511
(dp2512
g32
(lp2513
S'51.97448903740961 4.923301 1.0'
p2514
aS'http://www.opengis.net/def/crs/EPSG/0/4326'
p2515
assS'NL.RIVM.AQ/SPO_F-NL00493_00005_100_100'
p2516
(dp2517
g32
(lp2518
S'51.92711103745604 4.461344 0.0'
p2519
aS'http://www.opengis.net/def/crs/EPSG/0/4326'
p2520
assS'NL.RIVM.AQ/SPO_F-NL00230_00007_101_102'
p2521
(dp2522
g32
(lp2523
S'51.518440037845004 5.1484499999999995 15.0'
p2524
aS'http://www.opengis.net/def/crs/EPSG/0/4326'
p2525
assS'NL.RIVM.AQ/SPO_F-NL00565_00009_100_100'
p2526
(dp2527
g32
(lp2528
S'52.32746403705515 4.715008000000001 1.0'
p2529
aS'http://www.opengis.net/def/crs/EPSG/0/4326'
p2530
assS'NL.RIVM.AQ/SPO_F-NL00485_00020_100_100'
p2531
(dp2532
g32
(lp2533
S'51.867411037514145 4.355241999999999 1.0'
p2534
aS'http://www.opengis.net/def/crs/EPSG/0/4326'
p2535
assS'NL.RIVM.AQ/SPO_F-NL00318_00038_111_112'
p2536
(dp2537
g32
(lp2538
S'51.294498038049305 3.749483999999999 5.0'
p2539
aS'http://www.opengis.net/def/crs/EPSG/0/4326'
p2540
assS'NL.RIVM.AQ/SPO_F-NL00446_00005_100_101'
p2541
(dp2542
g32
(lp2543
S'52.03902303734593 4.359376000000001 -2.0'
p2544
aS'http://www.opengis.net/def/crs/EPSG/0/4326'
p2545
assS'NL.RIVM.AQ/SPO_F-NL00934_00063_101_101'
p2546
(dp2547
g32
(lp2548
S'53.330425035968325 6.276815 1.0'
p2549
aS'http://www.opengis.net/def/crs/EPSG/0/4326'
p2550
assS'NL.RIVM.AQ/SPO_F-NL00644_00007_100_100'
p2551
(dp2552
g32
(lp2553
S'51.97448903740961 4.923301 1.0'
p2554
aS'http://www.opengis.net/def/crs/EPSG/0/4326'
p2555
assS'NL.RIVM.AQ/SPO_F-NL00496_00005_100_100'
p2556
(dp2557
g32
(lp2558
S'51.97780303740636 4.121944000000001 0.0'
p2559
aS'http://www.opengis.net/def/crs/EPSG/0/4326'
p2560
assS'NL.RIVM.AQ/SPO_F-NL00016_06001_100_100'
p2561
(dp2562
g32
(lp2563
S'52.39397203698668 4.870157000000001 3.0'
p2564
aS'http://www.opengis.net/def/crs/EPSG/0/4326'
p2565
assS'NL.RIVM.AQ/SPO_F-NL00633_00008_101_102'
p2566
(dp2567
g32
(lp2568
S'52.13795003724734 4.83819 -2.0'
p2569
aS'http://www.opengis.net/def/crs/EPSG/0/4326'
p2570
assS'NL.RIVM.AQ/SPO_F-NL00644_00008_100_100'
p2571
(dp2572
g32
(lp2573
S'51.97448903740961 4.923301 1.0'
p2574
aS'http://www.opengis.net/def/crs/EPSG/0/4326'
p2575
assS'NL.RIVM.AQ/SPO_F-NL00564_00005_100_100'
p2576
(dp2577
g32
(lp2578
S'52.28745003709609 4.766614000000001 1.0'
p2579
aS'http://www.opengis.net/def/crs/EPSG/0/4326'
p2580
assS'NL.RIVM.AQ/SPO_F-NL00636_00009_101_102'
p2581
(dp2582
g32
(lp2583
S'52.105031037280284 5.124464 1.0'
p2584
aS'http://www.opengis.net/def/crs/EPSG/0/4326'
p2585
assS'NL.RIVM.AQ/SPO_F-NL00570_06001_100_100'
p2586
(dp2587
g32
(lp2588
S'52.48930303688765 4.640531 1.0'
p2589
aS'http://www.opengis.net/def/crs/EPSG/0/4326'
p2590
assS'NL.RIVM.AQ/SPO_F-NL00639_00007_101_102'
p2591
(dp2592
g32
(lp2593
S'52.06774803731743 5.120507000000001 1.0'
p2594
aS'http://www.opengis.net/def/crs/EPSG/0/4326'
p2595
assS'NL.RIVM.AQ/SPO_F-NL00489_00007_100_100'
p2596
(dp2597
g32
(lp2598
S'51.869431037512186 4.580058 0.0'
p2599
aS'http://www.opengis.net/def/crs/EPSG/0/4326'
p2600
asssS'procedure'
p2601
(dp2602
S'NL.RIVM.AQ/SPP-NL_A_chemi_D9038'
p2603
(dp2604
S'offerings'
p2605
(lp2606
S'NL.RIVM.AQ/STA-NL00240/38'
p2607
aS'NL.RIVM.AQ/STA-NL00240/8'
p2608
aS'NL.RIVM.AQ/STA-NL00240/9'
p2609
aS'NL.RIVM.AQ/STA-NL00446/38'
p2610
aS'NL.RIVM.AQ/STA-NL00446/8'
p2611
aS'NL.RIVM.AQ/STA-NL00446/9'
p2612
aS'NL.RIVM.AQ/STA-NL00643/38'
p2613
aS'NL.RIVM.AQ/STA-NL00643/8'
p2614
asS'FOI'
p2615
g9
((ltRp2616
sS'obsProperty'
p2617
S'http://dd.eionet.europa.eu/vocabulary/aq/pollutant/38'
p2618
ssS'NL.RIVM.AQ/SPP-NL_A_chemi_thermo42i'
p2619
(dp2620
g2605
(lp2621
S'NL.RIVM.AQ/STA-NL00014/38'
p2622
aS'NL.RIVM.AQ/STA-NL00014/8'
p2623
aS'NL.RIVM.AQ/STA-NL00014/9'
p2624
aS'NL.RIVM.AQ/STA-NL00019/38'
p2625
aS'NL.RIVM.AQ/STA-NL00019/8'
p2626
aS'NL.RIVM.AQ/STA-NL00019/9'
p2627
aS'NL.RIVM.AQ/STA-NL00020/38'
p2628
aS'NL.RIVM.AQ/STA-NL00020/8'
p2629
aS'NL.RIVM.AQ/STA-NL00020/9'
p2630
aS'NL.RIVM.AQ/STA-NL00021/38'
p2631
aS'NL.RIVM.AQ/STA-NL00021/8'
p2632
aS'NL.RIVM.AQ/STA-NL00021/9'
p2633
aS'NL.RIVM.AQ/STA-NL00022/38'
p2634
aS'NL.RIVM.AQ/STA-NL00022/8'
p2635
aS'NL.RIVM.AQ/STA-NL00022/9'
p2636
aS'NL.RIVM.AQ/STA-NL00701/38'
p2637
aS'NL.RIVM.AQ/STA-NL00701/8'
p2638
aS'NL.RIVM.AQ/STA-NL00701/9'
p2639
asg2615
g9
((ltRp2640
sg2617
S'http://dd.eionet.europa.eu/vocabulary/aq/pollutant/38'
p2641
ssS'NL.RIVM.AQ/SPP-NL_N_ICP-MS_leckelSEQ47-50'
p2642
(dp2643
g2605
(lp2644
S'NL.RIVM.AQ/STA-NL00131/12'
p2645
aS'NL.RIVM.AQ/STA-NL00131/14'
p2646
aS'NL.RIVM.AQ/STA-NL00131/15'
p2647
aS'NL.RIVM.AQ/STA-NL00131/18'
p2648
aS'NL.RIVM.AQ/STA-NL00131/629'
p2649
aS'NL.RIVM.AQ/STA-NL00131/63'
p2650
aS'NL.RIVM.AQ/STA-NL00131/659'
p2651
aS'NL.RIVM.AQ/STA-NL00131/668'
p2652
aS'NL.RIVM.AQ/STA-NL00433/12'
p2653
aS'NL.RIVM.AQ/STA-NL00433/14'
p2654
aS'NL.RIVM.AQ/STA-NL00433/15'
p2655
aS'NL.RIVM.AQ/STA-NL00433/18'
p2656
aS'NL.RIVM.AQ/STA-NL00433/629'
p2657
aS'NL.RIVM.AQ/STA-NL00433/63'
p2658
aS'NL.RIVM.AQ/STA-NL00433/659'
p2659
aS'NL.RIVM.AQ/STA-NL00433/668'
p2660
aS'NL.RIVM.AQ/STA-NL00627/12'
p2661
aS'NL.RIVM.AQ/STA-NL00627/14'
p2662
aS'NL.RIVM.AQ/STA-NL00627/15'
p2663
aS'NL.RIVM.AQ/STA-NL00627/18'
p2664
aS'NL.RIVM.AQ/STA-NL00627/629'
p2665
aS'NL.RIVM.AQ/STA-NL00627/63'
p2666
aS'NL.RIVM.AQ/STA-NL00627/659'
p2667
aS'NL.RIVM.AQ/STA-NL00627/668'
p2668
aS'NL.RIVM.AQ/STA-NL00934/12'
p2669
aS'NL.RIVM.AQ/STA-NL00934/14'
p2670
aS'NL.RIVM.AQ/STA-NL00934/15'
p2671
aS'NL.RIVM.AQ/STA-NL00934/18'
p2672
aS'NL.RIVM.AQ/STA-NL00934/629'
p2673
aS'NL.RIVM.AQ/STA-NL00934/63'
p2674
aS'NL.RIVM.AQ/STA-NL00934/659'
p2675
aS'NL.RIVM.AQ/STA-NL00934/668'
p2676
asg2615
g9
((ltRp2677
sg2617
S'http://dd.eionet.europa.eu/vocabulary/aq/pollutant/12'
p2678
ssS'NL.RIVM.AQ/SPP-NL_N_01466chrompackVOC-AIR'
p2679
(dp2680
g2605
(lp2681
S'NL.RIVM.AQ/STA-NL00495/20'
p2682
aS'NL.RIVM.AQ/STA-NL00495/21'
p2683
asg2615
g9
((ltRp2684
sg2617
S'http://dd.eionet.europa.eu/vocabulary/aq/pollutant/20'
p2685
ssS'NL.RIVM.AQ/SPP-NL_A_UV-FL_thermo43i'
p2686
(dp2687
g2605
(lp2688
S'NL.RIVM.AQ/STA-NL00016/1'
p2689
aS'NL.RIVM.AQ/STA-NL00551/1'
p2690
aS'NL.RIVM.AQ/STA-NL00553/1'
p2691
aS'NL.RIVM.AQ/STA-NL00704/1'
p2692
asg2615
g9
((ltRp2693
sg2617
S'http://dd.eionet.europa.eu/vocabulary/aq/pollutant/1'
p2694
ssS'NL.RIVM.AQ/SPP-NL_A_UV-P_thermo49c'
p2695
(dp2696
g2605
(lp2697
S'NL.RIVM.AQ/STA-NL00485/7'
p2698
aS'NL.RIVM.AQ/STA-NL00489/7'
p2699
aS'NL.RIVM.AQ/STA-NL00493/7'
p2700
aS'NL.RIVM.AQ/STA-NL00494/7'
p2701
aS'NL.RIVM.AQ/STA-NL00495/7'
p2702
aS'NL.RIVM.AQ/STA-NL00496/7'
p2703
asg2615
g9
((ltRp2704
sg2617
S'http://dd.eionet.europa.eu/vocabulary/aq/pollutant/7'
p2705
ssS'NL.RIVM.AQ/SPP-NL_A_UV-P_thermo49i'
p2706
(dp2707
g2605
(lp2708
S'NL.RIVM.AQ/STA-NL00003/7'
p2709
aS'NL.RIVM.AQ/STA-NL00012/7'
p2710
aS'NL.RIVM.AQ/STA-NL00014/7'
p2711
aS'NL.RIVM.AQ/STA-NL00107/7'
p2712
aS'NL.RIVM.AQ/STA-NL00131/7'
p2713
aS'NL.RIVM.AQ/STA-NL00133/7'
p2714
aS'NL.RIVM.AQ/STA-NL00137/7'
p2715
aS'NL.RIVM.AQ/STA-NL00230/7'
p2716
aS'NL.RIVM.AQ/STA-NL00235/7'
p2717
aS'NL.RIVM.AQ/STA-NL00236/7'
p2718
aS'NL.RIVM.AQ/STA-NL00241/7'
p2719
aS'NL.RIVM.AQ/STA-NL00247/7'
p2720
aS'NL.RIVM.AQ/STA-NL00301/7'
p2721
aS'NL.RIVM.AQ/STA-NL00318/7'
p2722
aS'NL.RIVM.AQ/STA-NL00404/7'
p2723
aS'NL.RIVM.AQ/STA-NL00418/7'
p2724
aS'NL.RIVM.AQ/STA-NL00433/7'
p2725
aS'NL.RIVM.AQ/STA-NL00437/7'
p2726
aS'NL.RIVM.AQ/STA-NL00442/7'
p2727
aS'NL.RIVM.AQ/STA-NL00444/7'
p2728
aS'NL.RIVM.AQ/STA-NL00537/7'
p2729
aS'NL.RIVM.AQ/STA-NL00538/7'
p2730
aS'NL.RIVM.AQ/STA-NL00564/7'
p2731
aS'NL.RIVM.AQ/STA-NL00631/7'
p2732
aS'NL.RIVM.AQ/STA-NL00633/7'
p2733
aS'NL.RIVM.AQ/STA-NL00639/7'
p2734
aS'NL.RIVM.AQ/STA-NL00641/7'
p2735
aS'NL.RIVM.AQ/STA-NL00643/7'
p2736
aS'NL.RIVM.AQ/STA-NL00701/7'
p2737
aS'NL.RIVM.AQ/STA-NL00722/7'
p2738
aS'NL.RIVM.AQ/STA-NL00738/7'
p2739
aS'NL.RIVM.AQ/STA-NL00742/7'
p2740
aS'NL.RIVM.AQ/STA-NL00807/7'
p2741
aS'NL.RIVM.AQ/STA-NL00818/7'
p2742
aS'NL.RIVM.AQ/STA-NL00918/7'
p2743
aS'NL.RIVM.AQ/STA-NL00929/7'
p2744
aS'NL.RIVM.AQ/STA-NL00934/7'
p2745
aS'NL.RIVM.AQ/STA-NL00938/7'
p2746
asg2615
g9
((ltRp2747
sg2617
S'http://dd.eionet.europa.eu/vocabulary/aq/pollutant/7'
p2748
ssS'NL.RIVM.AQ/SPP-NL_A_D9042D9042'
p2749
(dp2750
g2605
(lp2751
S'NL.RIVM.AQ/STA-NL00017/20'
p2752
aS'NL.RIVM.AQ/STA-NL00017/21'
p2753
aS'NL.RIVM.AQ/STA-NL00703/20'
p2754
aS'NL.RIVM.AQ/STA-NL00703/21'
p2755
aS'NL.RIVM.AQ/STA-NL00704/20'
p2756
aS'NL.RIVM.AQ/STA-NL00704/21'
p2757
asg2615
g9
((ltRp2758
sg2617
S'http://dd.eionet.europa.eu/vocabulary/aq/pollutant/20'
p2759
ssS'NL.RIVM.AQ/SPP-NL_A_UV-P_thermo49w'
p2760
(dp2761
g2605
(lp2762
S'NL.RIVM.AQ/STA-NL00644/7'
p2763
asg2615
g9
((ltRp2764
sg2617
S'http://dd.eionet.europa.eu/vocabulary/aq/pollutant/7'
p2765
ssS'NL.RIVM.AQ/SPP-NL_A_chemi_API200E'
p2766
(dp2767
g2605
(lp2768
S'NL.RIVM.AQ/STA-NL00107/38'
p2769
aS'NL.RIVM.AQ/STA-NL00107/8'
p2770
aS'NL.RIVM.AQ/STA-NL00107/9'
p2771
aS'NL.RIVM.AQ/STA-NL00131/38'
p2772
aS'NL.RIVM.AQ/STA-NL00131/8'
p2773
aS'NL.RIVM.AQ/STA-NL00131/9'
p2774
aS'NL.RIVM.AQ/STA-NL00133/38'
p2775
aS'NL.RIVM.AQ/STA-NL00133/8'
p2776
aS'NL.RIVM.AQ/STA-NL00133/9'
p2777
aS'NL.RIVM.AQ/STA-NL00136/38'
p2778
aS'NL.RIVM.AQ/STA-NL00136/8'
p2779
aS'NL.RIVM.AQ/STA-NL00136/9'
p2780
aS'NL.RIVM.AQ/STA-NL00137/38'
p2781
aS'NL.RIVM.AQ/STA-NL00137/8'
p2782
aS'NL.RIVM.AQ/STA-NL00137/9'
p2783
aS'NL.RIVM.AQ/STA-NL00230/38'
p2784
aS'NL.RIVM.AQ/STA-NL00230/8'
p2785
aS'NL.RIVM.AQ/STA-NL00230/9'
p2786
aS'NL.RIVM.AQ/STA-NL00235/38'
p2787
aS'NL.RIVM.AQ/STA-NL00235/8'
p2788
aS'NL.RIVM.AQ/STA-NL00235/9'
p2789
aS'NL.RIVM.AQ/STA-NL00236/38'
p2790
aS'NL.RIVM.AQ/STA-NL00236/8'
p2791
aS'NL.RIVM.AQ/STA-NL00236/9'
p2792
aS'NL.RIVM.AQ/STA-NL00237/38'
p2793
aS'NL.RIVM.AQ/STA-NL00237/8'
p2794
aS'NL.RIVM.AQ/STA-NL00237/9'
p2795
aS'NL.RIVM.AQ/STA-NL00241/38'
p2796
aS'NL.RIVM.AQ/STA-NL00241/8'
p2797
aS'NL.RIVM.AQ/STA-NL00241/9'
p2798
aS'NL.RIVM.AQ/STA-NL00245/38'
p2799
aS'NL.RIVM.AQ/STA-NL00245/8'
p2800
aS'NL.RIVM.AQ/STA-NL00245/9'
p2801
aS'NL.RIVM.AQ/STA-NL00246/38'
p2802
aS'NL.RIVM.AQ/STA-NL00246/8'
p2803
aS'NL.RIVM.AQ/STA-NL00246/9'
p2804
aS'NL.RIVM.AQ/STA-NL00247/38'
p2805
aS'NL.RIVM.AQ/STA-NL00247/8'
p2806
aS'NL.RIVM.AQ/STA-NL00247/9'
p2807
aS'NL.RIVM.AQ/STA-NL00301/38'
p2808
aS'NL.RIVM.AQ/STA-NL00301/8'
p2809
aS'NL.RIVM.AQ/STA-NL00301/9'
p2810
aS'NL.RIVM.AQ/STA-NL00318/38'
p2811
aS'NL.RIVM.AQ/STA-NL00318/8'
p2812
aS'NL.RIVM.AQ/STA-NL00318/9'
p2813
aS'NL.RIVM.AQ/STA-NL00404/38'
p2814
aS'NL.RIVM.AQ/STA-NL00404/8'
p2815
aS'NL.RIVM.AQ/STA-NL00404/9'
p2816
aS'NL.RIVM.AQ/STA-NL00418/38'
p2817
aS'NL.RIVM.AQ/STA-NL00418/8'
p2818
aS'NL.RIVM.AQ/STA-NL00418/9'
p2819
aS'NL.RIVM.AQ/STA-NL00433/38'
p2820
aS'NL.RIVM.AQ/STA-NL00433/8'
p2821
aS'NL.RIVM.AQ/STA-NL00433/9'
p2822
aS'NL.RIVM.AQ/STA-NL00437/38'
p2823
aS'NL.RIVM.AQ/STA-NL00437/8'
p2824
aS'NL.RIVM.AQ/STA-NL00437/9'
p2825
aS'NL.RIVM.AQ/STA-NL00442/38'
p2826
aS'NL.RIVM.AQ/STA-NL00442/8'
p2827
aS'NL.RIVM.AQ/STA-NL00442/9'
p2828
aS'NL.RIVM.AQ/STA-NL00444/38'
p2829
aS'NL.RIVM.AQ/STA-NL00444/8'
p2830
aS'NL.RIVM.AQ/STA-NL00444/9'
p2831
aS'NL.RIVM.AQ/STA-NL00445/38'
p2832
aS'NL.RIVM.AQ/STA-NL00445/8'
p2833
aS'NL.RIVM.AQ/STA-NL00445/9'
p2834
aS'NL.RIVM.AQ/STA-NL00485/38'
p2835
aS'NL.RIVM.AQ/STA-NL00485/8'
p2836
aS'NL.RIVM.AQ/STA-NL00485/9'
p2837
aS'NL.RIVM.AQ/STA-NL00486/38'
p2838
aS'NL.RIVM.AQ/STA-NL00486/8'
p2839
aS'NL.RIVM.AQ/STA-NL00486/9'
p2840
aS'NL.RIVM.AQ/STA-NL00487/38'
p2841
aS'NL.RIVM.AQ/STA-NL00487/8'
p2842
aS'NL.RIVM.AQ/STA-NL00487/9'
p2843
aS'NL.RIVM.AQ/STA-NL00488/38'
p2844
aS'NL.RIVM.AQ/STA-NL00488/8'
p2845
aS'NL.RIVM.AQ/STA-NL00488/9'
p2846
aS'NL.RIVM.AQ/STA-NL00489/38'
p2847
aS'NL.RIVM.AQ/STA-NL00489/8'
p2848
aS'NL.RIVM.AQ/STA-NL00489/9'
p2849
aS'NL.RIVM.AQ/STA-NL00491/38'
p2850
aS'NL.RIVM.AQ/STA-NL00491/8'
p2851
aS'NL.RIVM.AQ/STA-NL00491/9'
p2852
aS'NL.RIVM.AQ/STA-NL00493/38'
p2853
aS'NL.RIVM.AQ/STA-NL00493/8'
p2854
aS'NL.RIVM.AQ/STA-NL00493/9'
p2855
aS'NL.RIVM.AQ/STA-NL00494/38'
p2856
aS'NL.RIVM.AQ/STA-NL00494/8'
p2857
aS'NL.RIVM.AQ/STA-NL00494/9'
p2858
aS'NL.RIVM.AQ/STA-NL00495/38'
p2859
aS'NL.RIVM.AQ/STA-NL00495/8'
p2860
aS'NL.RIVM.AQ/STA-NL00495/9'
p2861
aS'NL.RIVM.AQ/STA-NL00496/38'
p2862
aS'NL.RIVM.AQ/STA-NL00496/8'
p2863
aS'NL.RIVM.AQ/STA-NL00496/9'
p2864
aS'NL.RIVM.AQ/STA-NL00537/38'
p2865
aS'NL.RIVM.AQ/STA-NL00537/8'
p2866
aS'NL.RIVM.AQ/STA-NL00537/9'
p2867
aS'NL.RIVM.AQ/STA-NL00538/38'
p2868
aS'NL.RIVM.AQ/STA-NL00538/8'
p2869
aS'NL.RIVM.AQ/STA-NL00538/9'
p2870
aS'NL.RIVM.AQ/STA-NL00547/38'
p2871
aS'NL.RIVM.AQ/STA-NL00547/8'
p2872
aS'NL.RIVM.AQ/STA-NL00547/9'
p2873
aS'NL.RIVM.AQ/STA-NL00548/38'
p2874
aS'NL.RIVM.AQ/STA-NL00548/8'
p2875
aS'NL.RIVM.AQ/STA-NL00548/9'
p2876
aS'NL.RIVM.AQ/STA-NL00549/38'
p2877
aS'NL.RIVM.AQ/STA-NL00549/8'
p2878
aS'NL.RIVM.AQ/STA-NL00549/9'
p2879
aS'NL.RIVM.AQ/STA-NL00631/38'
p2880
aS'NL.RIVM.AQ/STA-NL00631/8'
p2881
aS'NL.RIVM.AQ/STA-NL00631/9'
p2882
aS'NL.RIVM.AQ/STA-NL00633/38'
p2883
aS'NL.RIVM.AQ/STA-NL00633/8'
p2884
aS'NL.RIVM.AQ/STA-NL00633/9'
p2885
aS'NL.RIVM.AQ/STA-NL00636/38'
p2886
aS'NL.RIVM.AQ/STA-NL00636/8'
p2887
aS'NL.RIVM.AQ/STA-NL00636/9'
p2888
aS'NL.RIVM.AQ/STA-NL00639/38'
p2889
aS'NL.RIVM.AQ/STA-NL00639/8'
p2890
aS'NL.RIVM.AQ/STA-NL00639/9'
p2891
aS'NL.RIVM.AQ/STA-NL00641/38'
p2892
aS'NL.RIVM.AQ/STA-NL00641/8'
p2893
aS'NL.RIVM.AQ/STA-NL00641/9'
p2894
aS'NL.RIVM.AQ/STA-NL00644/38'
p2895
aS'NL.RIVM.AQ/STA-NL00644/8'
p2896
aS'NL.RIVM.AQ/STA-NL00644/9'
p2897
aS'NL.RIVM.AQ/STA-NL00722/38'
p2898
aS'NL.RIVM.AQ/STA-NL00722/8'
p2899
aS'NL.RIVM.AQ/STA-NL00722/9'
p2900
aS'NL.RIVM.AQ/STA-NL00738/38'
p2901
aS'NL.RIVM.AQ/STA-NL00738/8'
p2902
aS'NL.RIVM.AQ/STA-NL00738/9'
p2903
aS'NL.RIVM.AQ/STA-NL00741/38'
p2904
aS'NL.RIVM.AQ/STA-NL00741/8'
p2905
aS'NL.RIVM.AQ/STA-NL00741/9'
p2906
aS'NL.RIVM.AQ/STA-NL00742/38'
p2907
aS'NL.RIVM.AQ/STA-NL00742/8'
p2908
aS'NL.RIVM.AQ/STA-NL00742/9'
p2909
aS'NL.RIVM.AQ/STA-NL00807/38'
p2910
aS'NL.RIVM.AQ/STA-NL00807/8'
p2911
aS'NL.RIVM.AQ/STA-NL00807/9'
p2912
aS'NL.RIVM.AQ/STA-NL00818/38'
p2913
aS'NL.RIVM.AQ/STA-NL00818/8'
p2914
aS'NL.RIVM.AQ/STA-NL00818/9'
p2915
aS'NL.RIVM.AQ/STA-NL00918/38'
p2916
aS'NL.RIVM.AQ/STA-NL00918/8'
p2917
aS'NL.RIVM.AQ/STA-NL00918/9'
p2918
aS'NL.RIVM.AQ/STA-NL00929/38'
p2919
aS'NL.RIVM.AQ/STA-NL00929/8'
p2920
aS'NL.RIVM.AQ/STA-NL00929/9'
p2921
aS'NL.RIVM.AQ/STA-NL00934/38'
p2922
aS'NL.RIVM.AQ/STA-NL00934/8'
p2923
aS'NL.RIVM.AQ/STA-NL00934/9'
p2924
aS'NL.RIVM.AQ/STA-NL00937/38'
p2925
aS'NL.RIVM.AQ/STA-NL00937/8'
p2926
aS'NL.RIVM.AQ/STA-NL00937/9'
p2927
aS'NL.RIVM.AQ/STA-NL00938/38'
p2928
aS'NL.RIVM.AQ/STA-NL00938/8'
p2929
aS'NL.RIVM.AQ/STA-NL00938/9'
p2930
asg2615
g9
((ltRp2931
sg2617
S'http://dd.eionet.europa.eu/vocabulary/aq/pollutant/38'
p2932
ssS'NL.RIVM.AQ/SPP-NL_A_NDIR_thermo48w'
p2933
(dp2934
g2605
(lp2935
S'NL.RIVM.AQ/STA-NL00633/10'
p2936
aS'NL.RIVM.AQ/STA-NL00644/10'
p2937
aS'NL.RIVM.AQ/STA-NL00741/10'
p2938
aS'NL.RIVM.AQ/STA-NL00742/10'
p2939
asg2615
g9
((ltRp2940
sg2617
S'http://dd.eionet.europa.eu/vocabulary/aq/pollutant/10'
p2941
ssS'NL.RIVM.AQ/SPP-NL_A_5090150901'
p2942
(dp2943
g2605
(lp2944
S'NL.RIVM.AQ/STA-NL00131/35'
p2945
aS'NL.RIVM.AQ/STA-NL00235/35'
p2946
aS'NL.RIVM.AQ/STA-NL00244/35'
p2947
aS'NL.RIVM.AQ/STA-NL00444/35'
p2948
aS'NL.RIVM.AQ/STA-NL00538/35'
p2949
aS'NL.RIVM.AQ/STA-NL00633/35'
p2950
aS'NL.RIVM.AQ/STA-NL00722/35'
p2951
aS'NL.RIVM.AQ/STA-NL00738/35'
p2952
aS'NL.RIVM.AQ/STA-NL00929/35'
p2953
asg2615
g9
((ltRp2954
sg2617
S'http://dd.eionet.europa.eu/vocabulary/aq/pollutant/35'
p2955
ssS'NL.RIVM.AQ/SPP-NL_A_UV-FL_API100E'
p2956
(dp2957
g2605
(lp2958
S'NL.RIVM.AQ/STA-NL00484/1'
p2959
aS'NL.RIVM.AQ/STA-NL00485/1'
p2960
aS'NL.RIVM.AQ/STA-NL00486/1'
p2961
aS'NL.RIVM.AQ/STA-NL00494/1'
p2962
aS'NL.RIVM.AQ/STA-NL00495/1'
p2963
aS'NL.RIVM.AQ/STA-NL00496/1'
p2964
asg2615
g9
((ltRp2965
sg2617
S'http://dd.eionet.europa.eu/vocabulary/aq/pollutant/1'
p2966
ssS'NL.RIVM.AQ/SPP-NL_N_gravi_leckelSEQ47-50'
p2967
(dp2968
g2605
(lp2969
S'NL.RIVM.AQ/STA-NL00230/6001'
p2970
asg2615
g9
((ltRp2971
sg2617
S'http://dd.eionet.europa.eu/vocabulary/aq/pollutant/6001'
p2972
ssS'NL.RIVM.AQ/SPP-NL_A_UV-FL_thermo43w'
p2973
(dp2974
g2605
(lp2975
S'NL.RIVM.AQ/STA-NL00133/1'
p2976
aS'NL.RIVM.AQ/STA-NL00318/1'
p2977
aS'NL.RIVM.AQ/STA-NL00444/1'
p2978
aS'NL.RIVM.AQ/STA-NL00644/1'
p2979
aS'NL.RIVM.AQ/STA-NL00722/1'
p2980
aS'NL.RIVM.AQ/STA-NL00934/1'
p2981
asg2615
g9
((ltRp2982
sg2617
S'http://dd.eionet.europa.eu/vocabulary/aq/pollutant/1'
p2983
ssS'NL.RIVM.AQ/SPP-NL_A_BETA_andersenFH62IR'
p2984
(dp2985
g2605
(lp2986
S'NL.RIVM.AQ/STA-NL00131/5'
p2987
aS'NL.RIVM.AQ/STA-NL00133/5'
p2988
aS'NL.RIVM.AQ/STA-NL00136/5'
p2989
aS'NL.RIVM.AQ/STA-NL00137/5'
p2990
aS'NL.RIVM.AQ/STA-NL00138/5'
p2991
aS'NL.RIVM.AQ/STA-NL00230/5'
p2992
aS'NL.RIVM.AQ/STA-NL00235/5'
p2993
aS'NL.RIVM.AQ/STA-NL00236/5'
p2994
aS'NL.RIVM.AQ/STA-NL00237/5'
p2995
aS'NL.RIVM.AQ/STA-NL00240/5'
p2996
aS'NL.RIVM.AQ/STA-NL00241/5'
p2997
aS'NL.RIVM.AQ/STA-NL00244/5'
p2998
aS'NL.RIVM.AQ/STA-NL00246/5'
p2999
aS'NL.RIVM.AQ/STA-NL00247/5'
p3000
aS'NL.RIVM.AQ/STA-NL00312/5'
p3001
aS'NL.RIVM.AQ/STA-NL00318/5'
p3002
aS'NL.RIVM.AQ/STA-NL00319/5'
p3003
aS'NL.RIVM.AQ/STA-NL00404/5'
p3004
aS'NL.RIVM.AQ/STA-NL00418/5'
p3005
aS'NL.RIVM.AQ/STA-NL00433/5'
p3006
aS'NL.RIVM.AQ/STA-NL00437/5'
p3007
aS'NL.RIVM.AQ/STA-NL00442/5'
p3008
aS'NL.RIVM.AQ/STA-NL00444/5'
p3009
aS'NL.RIVM.AQ/STA-NL00445/5'
p3010
aS'NL.RIVM.AQ/STA-NL00446/5'
p3011
aS'NL.RIVM.AQ/STA-NL00447/5'
p3012
aS'NL.RIVM.AQ/STA-NL00537/5'
p3013
aS'NL.RIVM.AQ/STA-NL00538/5'
p3014
aS'NL.RIVM.AQ/STA-NL00545/5'
p3015
aS'NL.RIVM.AQ/STA-NL00631/5'
p3016
aS'NL.RIVM.AQ/STA-NL00633/5'
p3017
aS'NL.RIVM.AQ/STA-NL00636/5'
p3018
aS'NL.RIVM.AQ/STA-NL00639/5'
p3019
aS'NL.RIVM.AQ/STA-NL00641/5'
p3020
aS'NL.RIVM.AQ/STA-NL00644/5'
p3021
aS'NL.RIVM.AQ/STA-NL00722/5'
p3022
aS'NL.RIVM.AQ/STA-NL00728/5'
p3023
aS'NL.RIVM.AQ/STA-NL00738/5'
p3024
aS'NL.RIVM.AQ/STA-NL00741/5'
p3025
aS'NL.RIVM.AQ/STA-NL00743/5'
p3026
aS'NL.RIVM.AQ/STA-NL00818/5'
p3027
aS'NL.RIVM.AQ/STA-NL00918/5'
p3028
aS'NL.RIVM.AQ/STA-NL00929/5'
p3029
aS'NL.RIVM.AQ/STA-NL00934/5'
p3030
aS'NL.RIVM.AQ/STA-NL00937/5'
p3031
asg2615
g9
((ltRp3032
sg2617
S'http://dd.eionet.europa.eu/vocabulary/aq/pollutant/5'
p3033
ssS'NL.RIVM.AQ/SPP-NL_A_reflect_08001'
p3034
(dp3035
g2605
(lp3036
S'NL.RIVM.AQ/STA-NL00131/6'
p3037
aS'NL.RIVM.AQ/STA-NL00240/6'
p3038
aS'NL.RIVM.AQ/STA-NL00241/6'
p3039
aS'NL.RIVM.AQ/STA-NL00433/6'
p3040
aS'NL.RIVM.AQ/STA-NL00444/6'
p3041
aS'NL.RIVM.AQ/STA-NL00448/6'
p3042
aS'NL.RIVM.AQ/STA-NL00538/6'
p3043
asg2615
g9
((ltRp3044
sg2617
S'http://dd.eionet.europa.eu/vocabulary/aq/pollutant/6'
p3045
ssS'NL.RIVM.AQ/SPP-NL_A_NDIR_API300E'
p3046
(dp3047
g2605
(lp3048
S'NL.RIVM.AQ/STA-NL00487/10'
p3049
aS'NL.RIVM.AQ/STA-NL00488/10'
p3050
aS'NL.RIVM.AQ/STA-NL00491/10'
p3051
aS'NL.RIVM.AQ/STA-NL00493/10'
p3052
asg2615
g9
((ltRp3053
sg2617
S'http://dd.eionet.europa.eu/vocabulary/aq/pollutant/10'
p3054
ssS'NL.RIVM.AQ/SPP-NL_A_IR-GFC_06003'
p3055
(dp3056
g2605
(lp3057
S'NL.RIVM.AQ/STA-NL00007/10'
p3058
aS'NL.RIVM.AQ/STA-NL00012/10'
p3059
aS'NL.RIVM.AQ/STA-NL00014/10'
p3060
aS'NL.RIVM.AQ/STA-NL00551/10'
p3061
aS'NL.RIVM.AQ/STA-NL00553/10'
p3062
aS'NL.RIVM.AQ/STA-NL00561/10'
p3063
asg2615
g9
((ltRp3064
sg2617
S'http://dd.eionet.europa.eu/vocabulary/aq/pollutant/10'
p3065
ssS'NL.RIVM.AQ/SPP-NL_N_CFA_leckelSEQ47-50'
p3066
(dp3067
g2605
(lp3068
S'NL.RIVM.AQ/STA-NL00131/45'
p3069
aS'NL.RIVM.AQ/STA-NL00444/45'
p3070
aS'NL.RIVM.AQ/STA-NL00538/45'
p3071
aS'NL.RIVM.AQ/STA-NL00929/45'
p3072
asg2615
g9
((ltRp3073
sg2617
S'http://dd.eionet.europa.eu/vocabulary/aq/pollutant/45'
p3074
ssS'NL.RIVM.AQ/SPP-NL_A_BETA_BAM1020'
p3075
(dp3076
g2605
(lp3077
S'NL.RIVM.AQ/STA-NL00007/5'
p3078
aS'NL.RIVM.AQ/STA-NL00007/6001'
p3079
aS'NL.RIVM.AQ/STA-NL00012/5'
p3080
aS'NL.RIVM.AQ/STA-NL00012/6001'
p3081
aS'NL.RIVM.AQ/STA-NL00014/5'
p3082
aS'NL.RIVM.AQ/STA-NL00014/6001'
p3083
aS'NL.RIVM.AQ/STA-NL00016/5'
p3084
aS'NL.RIVM.AQ/STA-NL00016/6001'
p3085
aS'NL.RIVM.AQ/STA-NL00017/5'
p3086
aS'NL.RIVM.AQ/STA-NL00017/6001'
p3087
aS'NL.RIVM.AQ/STA-NL00482/5'
p3088
aS'NL.RIVM.AQ/STA-NL00482/6001'
p3089
aS'NL.RIVM.AQ/STA-NL00485/5'
p3090
aS'NL.RIVM.AQ/STA-NL00487/5'
p3091
aS'NL.RIVM.AQ/STA-NL00487/6001'
p3092
aS'NL.RIVM.AQ/STA-NL00488/5'
p3093
aS'NL.RIVM.AQ/STA-NL00488/6001'
p3094
aS'NL.RIVM.AQ/STA-NL00489/5'
p3095
aS'NL.RIVM.AQ/STA-NL00489/6001'
p3096
aS'NL.RIVM.AQ/STA-NL00491/5'
p3097
aS'NL.RIVM.AQ/STA-NL00491/6001'
p3098
aS'NL.RIVM.AQ/STA-NL00493/5'
p3099
aS'NL.RIVM.AQ/STA-NL00494/5'
p3100
aS'NL.RIVM.AQ/STA-NL00494/6001'
p3101
aS'NL.RIVM.AQ/STA-NL00495/5'
p3102
aS'NL.RIVM.AQ/STA-NL00495/6001'
p3103
aS'NL.RIVM.AQ/STA-NL00496/5'
p3104
aS'NL.RIVM.AQ/STA-NL00496/6001'
p3105
aS'NL.RIVM.AQ/STA-NL00546/5'
p3106
aS'NL.RIVM.AQ/STA-NL00551/5'
p3107
aS'NL.RIVM.AQ/STA-NL00551/6001'
p3108
aS'NL.RIVM.AQ/STA-NL00553/5'
p3109
aS'NL.RIVM.AQ/STA-NL00553/6001'
p3110
aS'NL.RIVM.AQ/STA-NL00556/5'
p3111
aS'NL.RIVM.AQ/STA-NL00561/5'
p3112
aS'NL.RIVM.AQ/STA-NL00561/6001'
p3113
aS'NL.RIVM.AQ/STA-NL00564/5'
p3114
aS'NL.RIVM.AQ/STA-NL00565/5'
p3115
aS'NL.RIVM.AQ/STA-NL00570/5'
p3116
aS'NL.RIVM.AQ/STA-NL00570/6001'
p3117
aS'NL.RIVM.AQ/STA-NL00572/5'
p3118
aS'NL.RIVM.AQ/STA-NL00572/6001'
p3119
aS'NL.RIVM.AQ/STA-NL00573/5'
p3120
aS'NL.RIVM.AQ/STA-NL00573/6001'
p3121
aS'NL.RIVM.AQ/STA-NL00701/5'
p3122
aS'NL.RIVM.AQ/STA-NL00701/6001'
p3123
aS'NL.RIVM.AQ/STA-NL00703/5'
p3124
aS'NL.RIVM.AQ/STA-NL00703/6001'
p3125
aS'NL.RIVM.AQ/STA-NL00704/5'
p3126
aS'NL.RIVM.AQ/STA-NL00704/6001'
p3127
asg2615
g9
((ltRp3128
sg2617
S'http://dd.eionet.europa.eu/vocabulary/aq/pollutant/5'
p3129
ssS'NL.RIVM.AQ/SPP-NL_A_D9037D9037'
p3130
(dp3131
g2605
(lp3132
S'NL.RIVM.AQ/STA-NL00483/20'
p3133
aS'NL.RIVM.AQ/STA-NL00483/21'
p3134
aS'NL.RIVM.AQ/STA-NL00485/20'
p3135
aS'NL.RIVM.AQ/STA-NL00485/21'
p3136
aS'NL.RIVM.AQ/STA-NL00496/20'
p3137
aS'NL.RIVM.AQ/STA-NL00496/21'
p3138
asg2615
g9
((ltRp3139
sg2617
S'http://dd.eionet.europa.eu/vocabulary/aq/pollutant/20'
p3140
ssS'NL.RIVM.AQ/SPP-NL_A_D9040D9040'
p3141
(dp3142
g2605
(lp3143
S'NL.RIVM.AQ/STA-NL00546/20'
p3144
aS'NL.RIVM.AQ/STA-NL00546/21'
p3145
aS'NL.RIVM.AQ/STA-NL00633/20'
p3146
aS'NL.RIVM.AQ/STA-NL00633/21'
p3147
aS'NL.RIVM.AQ/STA-NL00633/431'
p3148
aS'NL.RIVM.AQ/STA-NL00633/464'
p3149
aS'NL.RIVM.AQ/STA-NL00633/482'
p3150
aS'NL.RIVM.AQ/STA-NL00639/20'
p3151
aS'NL.RIVM.AQ/STA-NL00639/21'
p3152
aS'NL.RIVM.AQ/STA-NL00639/431'
p3153
aS'NL.RIVM.AQ/STA-NL00639/464'
p3154
aS'NL.RIVM.AQ/STA-NL00639/482'
p3155
asg2615
g9
((ltRp3156
sg2617
S'http://dd.eionet.europa.eu/vocabulary/aq/pollutant/20'
p3157
ssS'NL.RIVM.AQ/SPP-NL_N_gravi_derenda'
p3158
(dp3159
g2605
(lp3160
S'NL.RIVM.AQ/STA-NL00131/6001'
p3161
aS'NL.RIVM.AQ/STA-NL00136/6001'
p3162
aS'NL.RIVM.AQ/STA-NL00138/6001'
p3163
aS'NL.RIVM.AQ/STA-NL00240/6001'
p3164
aS'NL.RIVM.AQ/STA-NL00241/6001'
p3165
aS'NL.RIVM.AQ/STA-NL00247/6001'
p3166
aS'NL.RIVM.AQ/STA-NL00404/6001'
p3167
aS'NL.RIVM.AQ/STA-NL00418/6001'
p3168
aS'NL.RIVM.AQ/STA-NL00433/6001'
p3169
aS'NL.RIVM.AQ/STA-NL00444/6001'
p3170
aS'NL.RIVM.AQ/STA-NL00448/6001'
p3171
aS'NL.RIVM.AQ/STA-NL00538/6001'
p3172
aS'NL.RIVM.AQ/STA-NL00636/6001'
p3173
aS'NL.RIVM.AQ/STA-NL00641/6001'
p3174
aS'NL.RIVM.AQ/STA-NL00643/6001'
p3175
aS'NL.RIVM.AQ/STA-NL00644/6001'
p3176
aS'NL.RIVM.AQ/STA-NL00738/6001'
p3177
aS'NL.RIVM.AQ/STA-NL00741/6001'
p3178
aS'NL.RIVM.AQ/STA-NL00742/6001'
p3179
aS'NL.RIVM.AQ/STA-NL00821/6001'
p3180
aS'NL.RIVM.AQ/STA-NL00934/6001'
p3181
aS'NL.RIVM.AQ/STA-NL00937/6001'
p3182
aS'NL.RIVM.AQ/STA-NL00938/6001'
p3183
asg2615
g9
((ltRp3184
sg2617
S'http://dd.eionet.europa.eu/vocabulary/aq/pollutant/6001'
p3185
ssS'NL.RIVM.AQ/SPP-NL_N_IC_leckelSEQ47-50'
p3186
(dp3187
g2605
(lp3188
S'NL.RIVM.AQ/STA-NL00131/46'
p3189
aS'NL.RIVM.AQ/STA-NL00131/47'
p3190
aS'NL.RIVM.AQ/STA-NL00131/631'
p3191
aS'NL.RIVM.AQ/STA-NL00444/46'
p3192
aS'NL.RIVM.AQ/STA-NL00444/47'
p3193
aS'NL.RIVM.AQ/STA-NL00444/631'
p3194
aS'NL.RIVM.AQ/STA-NL00538/46'
p3195
aS'NL.RIVM.AQ/STA-NL00538/47'
p3196
aS'NL.RIVM.AQ/STA-NL00538/631'
p3197
aS'NL.RIVM.AQ/STA-NL00929/46'
p3198
aS'NL.RIVM.AQ/STA-NL00929/47'
p3199
aS'NL.RIVM.AQ/STA-NL00929/631'
p3200
asg2615
g9
((ltRp3201
sg2617
S'http://dd.eionet.europa.eu/vocabulary/aq/pollutant/46'
p3202
ssS'NL.RIVM.AQ/SPP-NL_A_BETA_D9041'
p3203
(dp3204
g2605
(lp3205
S'NL.RIVM.AQ/STA-NL00547/5'
p3206
aS'NL.RIVM.AQ/STA-NL00549/5'
p3207
asg2615
g9
((ltRp3208
sg2617
S'http://dd.eionet.europa.eu/vocabulary/aq/pollutant/5'
p3209
ssS'NL.RIVM.AQ/SPP-NL_A_chemi_API200'
p3210
(dp3211
g2605
(lp3212
S'NL.RIVM.AQ/STA-NL00002/38'
p3213
aS'NL.RIVM.AQ/STA-NL00002/8'
p3214
aS'NL.RIVM.AQ/STA-NL00002/9'
p3215
aS'NL.RIVM.AQ/STA-NL00003/38'
p3216
aS'NL.RIVM.AQ/STA-NL00003/8'
p3217
aS'NL.RIVM.AQ/STA-NL00003/9'
p3218
aS'NL.RIVM.AQ/STA-NL00007/38'
p3219
aS'NL.RIVM.AQ/STA-NL00007/8'
p3220
aS'NL.RIVM.AQ/STA-NL00007/9'
p3221
aS'NL.RIVM.AQ/STA-NL00012/38'
p3222
aS'NL.RIVM.AQ/STA-NL00012/8'
p3223
aS'NL.RIVM.AQ/STA-NL00012/9'
p3224
aS'NL.RIVM.AQ/STA-NL00017/38'
p3225
aS'NL.RIVM.AQ/STA-NL00017/8'
p3226
aS'NL.RIVM.AQ/STA-NL00017/9'
p3227
aS'NL.RIVM.AQ/STA-NL00546/38'
p3228
aS'NL.RIVM.AQ/STA-NL00546/8'
p3229
aS'NL.RIVM.AQ/STA-NL00546/9'
p3230
aS'NL.RIVM.AQ/STA-NL00551/38'
p3231
aS'NL.RIVM.AQ/STA-NL00551/8'
p3232
aS'NL.RIVM.AQ/STA-NL00551/9'
p3233
aS'NL.RIVM.AQ/STA-NL00553/38'
p3234
aS'NL.RIVM.AQ/STA-NL00553/8'
p3235
aS'NL.RIVM.AQ/STA-NL00553/9'
p3236
aS'NL.RIVM.AQ/STA-NL00561/38'
p3237
aS'NL.RIVM.AQ/STA-NL00561/8'
p3238
aS'NL.RIVM.AQ/STA-NL00561/9'
p3239
aS'NL.RIVM.AQ/STA-NL00564/38'
p3240
aS'NL.RIVM.AQ/STA-NL00564/8'
p3241
aS'NL.RIVM.AQ/STA-NL00564/9'
p3242
aS'NL.RIVM.AQ/STA-NL00565/38'
p3243
aS'NL.RIVM.AQ/STA-NL00565/8'
p3244
aS'NL.RIVM.AQ/STA-NL00565/9'
p3245
aS'NL.RIVM.AQ/STA-NL00703/38'
p3246
aS'NL.RIVM.AQ/STA-NL00703/8'
p3247
aS'NL.RIVM.AQ/STA-NL00703/9'
p3248
aS'NL.RIVM.AQ/STA-NL00704/38'
p3249
aS'NL.RIVM.AQ/STA-NL00704/8'
p3250
aS'NL.RIVM.AQ/STA-NL00704/9'
p3251
asg2615
g9
((ltRp3252
sg2617
S'http://dd.eionet.europa.eu/vocabulary/aq/pollutant/38'
p3253
ssS'NL.RIVM.AQ/SPP-NL_A_UV-P_D9039'
p3254
(dp3255
g2605
(lp3256
S'NL.RIVM.AQ/STA-NL00446/7'
p3257
asg2615
g9
((ltRp3258
sg2617
S'http://dd.eionet.europa.eu/vocabulary/aq/pollutant/7'
p3259
sssS'accesConstraints'
p3260
S'NONE'
p3261
sb.