(i__main__
SOS
p1
(dp2
S'accessConstraints'
p3
S''
sS'name'
p4
S'SOS of IRCEL - CELINE'
p5
sS'url'
p6
S'http://sos.irceline.be/sos?'
p7
sS'responseFormat'
p8
c__builtin__
set
p9
((lp10
S'http://www.opengis.net/om/2.0'
p11
aS'http://www.opengis.net/waterml/2.0'
p12
aS'http://dd.eionet.europa.eu/schemaset/id2011850eu-1.0'
p13
aS'http://www.opengis.net/waterml-dr/2.0'
p14
aS'application/zip'
p15
aS'application/json'
p16
atRp17
sS'organisation'
p18
S'IRCEL - CELINE'
p19
sS'minTime'
p20
S'2011-01-01T02:00:00+01:00'
p21
sS'costs'
p22
S'NONE'
p23
sS'version'
p24
g9
((lp25
S'1.0.0'
p26
aS'2.0.0'
p27
atRp28
sS'error'
p29
I00
sS'featureofinterest'
p30
(dp31
S'BETR841'
p32
(dp33
S'coords'
p34
(lp35
S'157059.0 188039.0'
p36
aS'http://www.opengis.net/def/crs/EPSG/0/31370'
p37
assS'BELSA04'
p38
(dp39
g34
(lp40
S'152448.0 222679.0'
p41
aS'http://www.opengis.net/def/crs/EPSG/0/31370'
p42
assS'BETR750'
p43
(dp44
g34
(lp45
S'111845.0 209705.0'
p46
aS'http://www.opengis.net/def/crs/EPSG/0/31370'
p47
assS'BETE715'
p48
(dp49
g34
(lp50
S'66645.0 215775.0'
p51
aS'http://www.opengis.net/def/crs/EPSG/0/31370'
p52
assS'BETE714'
p53
(dp54
g34
(lp55
S'71842.0 219377.0'
p56
aS'http://www.opengis.net/def/crs/EPSG/0/31370'
p57
assS'BETE716'
p58
(dp59
g34
(lp60
S'101919.0 195427.0'
p61
aS'http://www.opengis.net/def/crs/EPSG/0/31370'
p62
assS'BETR512'
p63
(dp64
g34
(lp65
S'151930.0 121880.0'
p66
aS'http://www.opengis.net/def/crs/EPSG/0/31370'
p67
assS'BETR510'
p68
(dp69
g34
(lp70
S'160830.0 122850.0'
p71
aS'http://www.opengis.net/def/crs/EPSG/0/31370'
p72
assS'BETR511'
p73
(dp74
g34
(lp75
S'153980.0 118520.0'
p76
aS'http://www.opengis.net/def/crs/EPSG/0/31370'
p77
assS'BETN093'
p78
(dp79
g34
(lp80
S'211760.0 107410.0'
p81
aS'http://www.opengis.net/def/crs/EPSG/0/31370'
p82
assS'BELAB02'
p83
(dp84
g34
(lp85
S'146729.0 225661.0'
p86
aS'http://www.opengis.net/def/crs/EPSG/0/31370'
p87
assS'BELAB01'
p88
(dp89
g34
(lp90
S'147285.0 219017.0'
p91
aS'http://www.opengis.net/def/crs/EPSG/0/31370'
p92
assS'BETN016'
p93
(dp94
g34
(lp95
S'205542.0 214045.0'
p96
aS'http://www.opengis.net/def/crs/EPSG/0/31370'
p97
assS'BETN012'
p98
(dp99
g34
(lp100
S'79753.0 216550.0'
p101
aS'http://www.opengis.net/def/crs/EPSG/0/31370'
p102
assS'BETM204'
p103
(dp104
g34
(lp105
S'237930.0 145320.0'
p106
aS'http://www.opengis.net/def/crs/EPSG/0/31370'
p107
assS'BETH201'
p108
(dp109
g34
(lp110
S'233400.0 146700.0'
p111
aS'http://www.opengis.net/def/crs/EPSG/0/31370'
p112
assS'BELTS07'
p113
(dp114
sS'BETR721'
p115
(dp116
g34
(lp117
S'104275.0 197850.0'
p118
aS'http://www.opengis.net/def/crs/EPSG/0/31370'
p119
assS'BELGK09'
p120
(dp121
g34
(lp122
S'229010.0 181080.0'
p123
aS'http://www.opengis.net/def/crs/EPSG/0/31370'
p124
assS'BETN085'
p125
(dp126
g34
(lp127
S'266325.0 111525.0'
p128
aS'http://www.opengis.net/def/crs/EPSG/0/31370'
p129
assS'BELGK06'
p130
(dp131
g34
(lp132
S'227463.0 180307.0'
p133
aS'http://www.opengis.net/def/crs/EPSG/0/31370'
p134
assS'BETE702'
p135
(dp136
g34
(lp137
S'91013.0 167394.0'
p138
aS'http://www.opengis.net/def/crs/EPSG/0/31370'
p139
assS'BETE703'
p140
(dp141
g34
(lp142
S'102359.0 209144.0'
p143
aS'http://www.opengis.net/def/crs/EPSG/0/31370'
p144
assS'BETTS21'
p145
(dp146
g34
(lp147
S'201786.0 195321.0'
p148
aS'http://www.opengis.net/def/crs/EPSG/0/31370'
p149
assS'BELMN01'
p150
(dp151
g34
(lp152
S'61230.0 165530.0'
p153
aS'http://www.opengis.net/def/crs/EPSG/0/31370'
p154
assS'BELTS12'
p155
(dp156
sS'BETWOL1'
p157
(dp158
g34
(lp159
S'154010.0 171800.0'
p160
aS'http://www.opengis.net/def/crs/EPSG/0/31370'
p161
assS'BETWOL2'
p162
(dp163
sS'BETN121'
p164
(dp165
g34
(lp166
S'209920.0 63190.0'
p167
aS'http://www.opengis.net/def/crs/EPSG/0/31370'
p168
assS'BELWZ01'
p169
(dp170
sS'BELWZ02'
p171
(dp172
g34
(lp173
S'209614.0 209545.0'
p174
aS'http://www.opengis.net/def/crs/EPSG/0/31370'
p175
assS'BELBE06'
p176
(dp177
sS'BETN035'
p178
(dp179
g34
(lp180
S'182928.0 185359.0'
p181
aS'http://www.opengis.net/def/crs/EPSG/0/31370'
p182
assS'BETR811'
p183
(dp184
g34
(lp185
S'158560.0 215807.0'
p186
aS'http://www.opengis.net/def/crs/EPSG/0/31370'
p187
assS'BELZL01'
p188
(dp189
g34
(lp190
S'110836.0 210500.0'
p191
aS'http://www.opengis.net/def/crs/EPSG/0/31370'
p192
assS'BETR815'
p193
(dp194
g34
(lp195
S'147446.0 211639.0'
p196
aS'http://www.opengis.net/def/crs/EPSG/0/31370'
p197
assS'BETR012'
p198
(dp199
g34
(lp200
S'149280.0 165130.0'
p201
aS'http://www.opengis.net/def/crs/EPSG/0/31370'
p202
assS'BETR010'
p203
(dp204
g34
(lp205
S'154201.0 172749.0'
p206
aS'http://www.opengis.net/def/crs/EPSG/0/31370'
p207
assS'BELRL01'
p208
(dp209
g34
(lp210
S'62340.0 183280.0'
p211
aS'http://www.opengis.net/def/crs/EPSG/0/31370'
p212
assS'BETR740'
p213
(dp214
g34
(lp215
S'110815.0 204603.0'
p216
aS'http://www.opengis.net/def/crs/EPSG/0/31370'
p217
assS'BETN132'
p218
(dp219
g34
(lp220
S'240980.0 46070.0'
p221
aS'http://www.opengis.net/def/crs/EPSG/0/31370'
p222
assS'BETN029'
p223
(dp224
g34
(lp225
S'24655.0 191071.0'
p226
aS'http://www.opengis.net/def/crs/EPSG/0/31370'
p227
assS'BETN027'
p228
(dp229
g34
(lp230
S'236644.0 203352.0'
p231
aS'http://www.opengis.net/def/crs/EPSG/0/31370'
p232
assS'BETM702'
p233
(dp234
g34
(lp235
S'107569.0 206396.0'
p236
aS'http://www.opengis.net/def/crs/EPSG/0/31370'
p237
assS'BETR701'
p238
(dp239
g34
(lp240
S'105169.0 194435.0'
p241
aS'http://www.opengis.net/def/crs/EPSG/0/31370'
p242
assS'BETM802'
p243
(dp244
g34
(lp245
S'153884.0 216790.0'
p246
aS'http://www.opengis.net/def/crs/EPSG/0/31370'
p247
assS'BETR801'
p248
(dp249
g34
(lp250
S'154407.0 211080.0'
p251
aS'http://www.opengis.net/def/crs/EPSG/0/31370'
p252
assS'BETR802'
p253
(dp254
g34
(lp255
S'154405.0 211064.0'
p256
aS'http://www.opengis.net/def/crs/EPSG/0/31370'
p257
assS'BETR001'
p258
(dp259
g34
(lp260
S'147540.0 171030.0'
p261
aS'http://www.opengis.net/def/crs/EPSG/0/31370'
p262
assS'BETR002'
p263
(dp264
g34
(lp265
S'151125.0 168300.0'
p266
aS'http://www.opengis.net/def/crs/EPSG/0/31370'
p267
assS'BETR893'
p268
(dp269
g34
(lp270
S'151187.0 219057.0'
p271
aS'http://www.opengis.net/def/crs/EPSG/0/31370'
p272
assS'BETR892'
p273
(dp274
g34
(lp275
S'143727.0 217020.0'
p276
aS'http://www.opengis.net/def/crs/EPSG/0/31370'
p277
assS'BETR891'
p278
(dp279
g34
(lp280
S'151159.0 216212.0'
p281
aS'http://www.opengis.net/def/crs/EPSG/0/31370'
p282
assS'BETR897'
p283
(dp284
g34
(lp285
S'148139.0 215578.0'
p286
aS'http://www.opengis.net/def/crs/EPSG/0/31370'
p287
assS'BETR894'
p288
(dp289
g34
(lp290
S'148656.0 219293.0'
p291
aS'http://www.opengis.net/def/crs/EPSG/0/31370'
p292
assS'BETN100'
p293
(dp294
g34
(lp295
S'166172.0 87187.0'
p296
aS'http://www.opengis.net/def/crs/EPSG/0/31370'
p297
assS'BELAL01'
p298
(dp299
g34
(lp300
S'151150.0 214030.0'
p301
aS'http://www.opengis.net/def/crs/EPSG/0/31370'
p302
assS'BETE808'
p303
(dp304
sS'BELAL03'
p305
(dp306
g34
(lp307
S'138320.0 216020.0'
p308
aS'http://www.opengis.net/def/crs/EPSG/0/31370'
p309
assS'BELAL02'
p310
(dp311
g34
(lp312
S'140660.0 221640.0'
p313
aS'http://www.opengis.net/def/crs/EPSG/0/31370'
p314
assS'BELAL05'
p315
(dp316
g34
(lp317
S'143727.0 217029.0'
p318
aS'http://www.opengis.net/def/crs/EPSG/0/31370'
p319
assS'BELAL04'
p320
(dp321
sS'BETN052'
p322
(dp323
g34
(lp324
S'76269.0 167678.0'
p325
aS'http://www.opengis.net/def/crs/EPSG/0/31370'
p326
assS'BETN051'
p327
(dp328
g34
(lp329
S'119090.0 165475.0'
p330
aS'http://www.opengis.net/def/crs/EPSG/0/31370'
p331
assS'BETR710'
p332
(dp333
g34
(lp334
S'108394.0 194736.0'
p335
aS'http://www.opengis.net/def/crs/EPSG/0/31370'
p336
assS'BETE812'
p337
(dp338
g34
(lp339
S'232111.0 184838.0'
p340
aS'http://www.opengis.net/def/crs/EPSG/0/31370'
p341
assS'BETR240'
p342
(dp343
g34
(lp344
S'222850.0 141940.0'
p345
aS'http://www.opengis.net/def/crs/EPSG/0/31370'
p346
assS'BETN054'
p347
(dp348
g34
(lp349
S'201869.0 155940.0'
p350
aS'http://www.opengis.net/def/crs/EPSG/0/31370'
p351
assS'BELHB23'
p352
(dp353
g34
(lp354
S'148059.0 206699.0'
p355
aS'http://www.opengis.net/def/crs/EPSG/0/31370'
p356
assS'BETM705'
p357
(dp358
g34
(lp359
S'64521.0 182374.0'
p360
aS'http://www.opengis.net/def/crs/EPSG/0/31370'
p361
assS'BELOB01'
p362
(dp363
g34
(lp364
S'75367.0 179078.0'
p365
aS'http://www.opengis.net/def/crs/EPSG/0/31370'
p366
assS'BETB004'
p367
(dp368
g34
(lp369
S'148580.0 171157.0'
p370
aS'http://www.opengis.net/def/crs/EPSG/0/31370'
p371
assS'BETE810'
p372
(dp373
sS'BETN113'
p374
(dp375
g34
(lp376
S'237720.0 80250.0'
p377
aS'http://www.opengis.net/def/crs/EPSG/0/31370'
p378
assS'BETMEU1'
p379
(dp380
g34
(lp381
S'151686.0 176084.0'
p382
aS'http://www.opengis.net/def/crs/EPSG/0/31370'
p383
assS'BETGK11'
p384
(dp385
sS'BETN040'
p386
(dp387
g34
(lp388
S'139873.0 161970.0'
p389
aS'http://www.opengis.net/def/crs/EPSG/0/31370'
p390
assS'BETN041'
p391
(dp392
sS'BETN043'
p393
(dp394
g34
(lp395
S'151000.0 174800.0'
p396
aS'http://www.opengis.net/def/crs/EPSG/0/31370'
p397
assS'BETN045'
p398
(dp399
g34
(lp400
S'220258.0 181520.0'
p401
aS'http://www.opengis.net/def/crs/EPSG/0/31370'
p402
assS'BETN046'
p403
(dp404
g34
(lp405
S'237970.0 175401.0'
p406
aS'http://www.opengis.net/def/crs/EPSG/0/31370'
p407
assS'BELR801'
p408
(dp409
g34
(lp410
S'154407.0 211080.0'
p411
aS'http://www.opengis.net/def/crs/EPSG/0/31370'
p412
assS'BETE007'
p413
(dp414
g34
(lp415
S'141813.0 164988.0'
p416
aS'http://www.opengis.net/def/crs/EPSG/0/31370'
p417
assS'BETE009'
p418
(dp419
g34
(lp420
S'154684.0 182740.0'
p421
aS'http://www.opengis.net/def/crs/EPSG/0/31370'
p422
assS'BETE008'
p423
(dp424
g34
(lp425
S'151910.0 179532.0'
p426
aS'http://www.opengis.net/def/crs/EPSG/0/31370'
p427
assS'BETR020'
p428
(dp429
g34
(lp430
S'154777.0 181235.0'
p431
aS'http://www.opengis.net/def/crs/EPSG/0/31370'
p432
assS'BETR502'
p433
(dp434
g34
(lp435
S'156390.0 124240.0'
p436
aS'http://www.opengis.net/def/crs/EPSG/0/31370'
p437
assS'BELLD02'
p438
(dp439
g34
(lp440
S'195705.0 201347.0'
p441
aS'http://www.opengis.net/def/crs/EPSG/0/31370'
p442
assS'BETB011'
p443
(dp444
g34
(lp445
S'144338.0 171963.0'
p446
aS'http://www.opengis.net/def/crs/EPSG/0/31370'
p447
assS'BETN070'
p448
(dp449
g34
(lp450
S'119540.0 128350.0'
p451
aS'http://www.opengis.net/def/crs/EPSG/0/31370'
p452
assS'BETN073'
p453
(dp454
g34
(lp455
S'193960.0 132620.0'
p456
aS'http://www.opengis.net/def/crs/EPSG/0/31370'
p457
assS'BETR731'
p458
(dp459
g34
(lp460
S'105947.0 201811.0'
p461
aS'http://www.opengis.net/def/crs/EPSG/0/31370'
p462
assS'BETE809'
p463
(dp464
sS'BETR834'
p465
(dp466
g34
(lp467
S'150795.0 197988.0'
p468
aS'http://www.opengis.net/def/crs/EPSG/0/31370'
p469
assS'BELLD01'
p470
(dp471
g34
(lp472
S'194547.0 200179.0'
p473
aS'http://www.opengis.net/def/crs/EPSG/0/31370'
p474
assS'BETR831'
p475
(dp476
g34
(lp477
S'147976.0 226558.0'
p478
aS'http://www.opengis.net/def/crs/EPSG/0/31370'
p479
assS'BETR830'
p480
(dp481
g34
(lp482
S'142601.0 223162.0'
p483
aS'http://www.opengis.net/def/crs/EPSG/0/31370'
p484
assS'BETR221'
p485
(dp486
g34
(lp487
S'239023.0 150514.0'
p488
aS'http://www.opengis.net/def/crs/EPSG/0/31370'
p489
assS'BETR222'
p490
(dp491
g34
(lp492
S'235031.0 145438.0'
p493
aS'http://www.opengis.net/def/crs/EPSG/0/31370'
p494
assS'BETR223'
p495
(dp496
g34
(lp497
S'231210.0 146185.0'
p498
aS'http://www.opengis.net/def/crs/EPSG/0/31370'
p499
assS'BETE805'
p500
(dp501
sS'BETE804'
p502
(dp503
g34
(lp504
S'145702.0 219060.0'
p505
aS'http://www.opengis.net/def/crs/EPSG/0/31370'
p506
assS'BETE807'
p507
(dp508
sS'BETE806'
p509
(dp510
sS'BELR833'
p511
(dp512
g34
(lp513
S'149547.0 224206.0'
p514
aS'http://www.opengis.net/def/crs/EPSG/0/31370'
p515
assS'BETE013'
p516
(dp517
g34
(lp518
S'147155.0 166807.0'
p519
aS'http://www.opengis.net/def/crs/EPSG/0/31370'
p520
assS'BETN063'
p521
(dp522
g34
(lp523
S'171181.0 149467.0'
p524
aS'http://www.opengis.net/def/crs/EPSG/0/31370'
p525
assS'BETN060'
p526
(dp527
g34
(lp528
S'85521.0 145512.0'
p529
aS'http://www.opengis.net/def/crs/EPSG/0/31370'
p530
assS'BETB003'
p531
(dp532
sS'BETN066'
p533
(dp534
g34
(lp535
S'265570.0 147740.0'
p536
aS'http://www.opengis.net/def/crs/EPSG/0/31370'
p537
assS'BETN067'
p538
(dp539
g34
(lp540
S'264933.0 145881.0'
p541
aS'http://www.opengis.net/def/crs/EPSG/0/31370'
p542
assS'BETB006'
p543
(dp544
g34
(lp545
S'150397.0 169802.0'
p546
aS'http://www.opengis.net/def/crs/EPSG/0/31370'
p547
assS'BETE811'
p548
(dp549
g34
(lp550
S'223827.0 176810.0'
p551
aS'http://www.opengis.net/def/crs/EPSG/0/31370'
p552
assS'BETB008'
p553
(dp554
g34
(lp555
S'150521.0 170042.0'
p556
aS'http://www.opengis.net/def/crs/EPSG/0/31370'
p557
assS'BELTS20'
p558
(dp559
sS'BETR501'
p560
(dp561
g34
(lp562
S'155930.0 122050.0'
p563
aS'http://www.opengis.net/def/crs/EPSG/0/31370'
p564
assS'BETR702'
p565
(dp566
g34
(lp567
S'105550.0 192469.0'
p568
aS'http://www.opengis.net/def/crs/EPSG/0/31370'
p569
assS'BETR822'
p570
(dp571
g34
(lp572
S'148082.0 217156.0'
p573
aS'http://www.opengis.net/def/crs/EPSG/0/31370'
p574
assS'BETR820'
p575
(dp576
g34
(lp577
S'155302.0 223403.0'
p578
aS'http://www.opengis.net/def/crs/EPSG/0/31370'
p579
assS'BETR821'
p580
(dp581
g34
(lp582
S'141724.0 211734.0'
p583
aS'http://www.opengis.net/def/crs/EPSG/0/31370'
p584
assS'BELSZ01'
p585
(dp586
g34
(lp587
S'159524.0 178259.0'
p588
aS'http://www.opengis.net/def/crs/EPSG/0/31370'
p589
assS'BELSZ02'
p590
(dp591
g34
(lp592
S'160087.0 178087.0'
p593
aS'http://www.opengis.net/def/crs/EPSG/0/31370'
p594
assS'BELML01'
p595
(dp596
ssS'procedure'
p597
(dp598
S'6723'
p599
(dp600
S'offerings'
p601
(lp602
S'42101 - CO_._6723'
p603
asS'FOI'
p604
g9
((ltRp605
sS'obsProperty'
p606
S'42101 - CO'
p607
ssS'6722'
p608
(dp609
g601
(lp610
S'44201 - O3_._6722'
p611
asg604
g9
((ltRp612
sg606
S'44201 - O3'
p613
ssS'6726'
p614
(dp615
g601
(lp616
S'42602 - NO2_._6726'
p617
asg604
g9
((lp618
S'BETN045'
p619
atRp620
sg606
S'42602 - NO2'
p621
ssS'6725'
p622
(dp623
g601
(lp624
S'42601 - NO_._6725'
p625
asg604
g9
((lp626
S'BETN045'
p627
atRp628
sg606
S'42601 - NO'
p629
ssS'6724'
p630
(dp631
g601
(lp632
S'42401 - SO2_._6724'
p633
asg604
g9
((lp634
S'BETN045'
p635
atRp636
sg606
S'42401 - SO2'
p637
ssS'6842'
p638
(dp639
g601
(lp640
S'45201 - C6H6_._6842'
p641
asg604
g9
((ltRp642
sg606
S'45201 - C6H6'
p643
ssS'7003'
p644
(dp645
g601
(lp646
S'42101 - CO_._7003'
p647
asg604
g9
((ltRp648
sg606
S'42101 - CO'
p649
ssS'6954'
p650
(dp651
g601
(lp652
S'42601 - NO_._6954'
p653
asg604
g9
((ltRp654
sg606
S'42601 - NO'
p655
ssS'6955'
p656
(dp657
g601
(lp658
S'42602 - NO2_._6955'
p659
asg604
g9
((ltRp660
sg606
S'42602 - NO2'
p661
ssS'99904'
p662
(dp663
g601
(lp664
S'61110 - WSP-SCA_._99904'
p665
asg604
g9
((ltRp666
sg606
S'61110 - WSP-SCA'
p667
ssS'7045'
p668
(dp669
g601
(lp670
S'42401 - SO2_._7045'
p671
asg604
g9
((ltRp672
sg606
S'42401 - SO2'
p673
ssS'6151'
p674
(dp675
g601
(lp676
S'16111 - Black Carbon_._6151'
p677
asg604
g9
((ltRp678
sg606
S'16111 - Black Carbon'
p679
ssS'6152'
p680
(dp681
g601
(lp682
S'81102 - PM10_._6152'
p683
asg604
g9
((ltRp684
sg606
S'81102 - PM10'
p685
ssS'6153'
p686
(dp687
g601
(lp688
S'81102 - PM10_._6153'
p689
asg604
g9
((ltRp690
sg606
S'81102 - PM10'
p691
ssS'6154'
p692
(dp693
g601
(lp694
S'81104 - PM2.5_._6154'
p695
asg604
g9
((ltRp696
sg606
S'81104 - PM2.5'
p697
ssS'6155'
p698
(dp699
g601
(lp700
S'81104 - PM2.5_._6155'
p701
asg604
g9
((ltRp702
sg606
S'81104 - PM2.5'
p703
ssS'6156'
p704
(dp705
g601
(lp706
S'81104 - PM2.5_._6156'
p707
asg604
g9
((ltRp708
sg606
S'81104 - PM2.5'
p709
ssS'6157'
p710
(dp711
g601
(lp712
S'81102 - PM10_._6157'
p713
asg604
g9
((ltRp714
sg606
S'81102 - PM10'
p715
ssS'6158'
p716
(dp717
g601
(lp718
S'81104 - PM2.5_._6158'
p719
asg604
g9
((ltRp720
sg606
S'81104 - PM2.5'
p721
ssS'6843'
p722
(dp723
g601
(lp724
S'45202 - C6H5-CH3_._6843'
p725
asg604
g9
((ltRp726
sg606
S'45202 - C6H5-CH3'
p727
ssS'6840'
p728
(dp729
g601
(lp730
S'16111 - Black Carbon_._6840'
p731
asg604
g9
((ltRp732
sg606
S'16111 - Black Carbon'
p733
ssS'6841'
p734
(dp735
g601
(lp736
S'45109 - m,p-C6H4(CH3)2_._6841'
p737
asg604
g9
((ltRp738
sg606
S'45109 - m,p-C6H4(CH3)2'
p739
ssS'7049'
p740
(dp741
g601
(lp742
S'45109 - m,p-C6H4(CH3)2_._7049'
p743
asg604
g9
((ltRp744
sg606
S'45109 - m,p-C6H4(CH3)2'
p745
ssS'7048'
p746
(dp747
g601
(lp748
S'44201 - O3_._7048'
p749
asg604
g9
((ltRp750
sg606
S'44201 - O3'
p751
ssS'6844'
p752
(dp753
g601
(lp754
S'45203 - C6H5-C2H5_._6844'
p755
asg604
g9
((ltRp756
sg606
S'45203 - C6H5-C2H5'
p757
ssS'6845'
p758
(dp759
g601
(lp760
S'45204 - o-C6H4-(CH3)2_._6845'
p761
asg604
g9
((ltRp762
sg606
S'45204 - o-C6H4-(CH3)2'
p763
ssS'6794'
p764
(dp765
g601
(lp766
S'81102 - PM10_._6794'
p767
asg604
g9
((ltRp768
sg606
S'81102 - PM10'
p769
ssS'6792'
p770
(dp771
g601
(lp772
S'42602 - NO2_._6792'
p773
asg604
g9
((ltRp774
sg606
S'42602 - NO2'
p775
ssS'6793'
p776
(dp777
g601
(lp778
S'44201 - O3_._6793'
p779
asg604
g9
((ltRp780
sg606
S'44201 - O3'
p781
ssS'6791'
p782
(dp783
g601
(lp784
S'42601 - NO_._6791'
p785
asg604
g9
((ltRp786
sg606
S'42601 - NO'
p787
ssS'99999'
p788
(dp789
g601
(lp790
S'81104 - PM2.5_._99999'
p791
asg604
g9
((ltRp792
sg606
S'81104 - PM2.5'
p793
ssS'99998'
p794
(dp795
g601
(lp796
S'81104 - PM2.5_._99998'
p797
asg604
g9
((ltRp798
sg606
S'81104 - PM2.5'
p799
ssS'6988'
p800
(dp801
g601
(lp802
S'16111 - Black Carbon_._6988'
p803
asg604
g9
((ltRp804
sg606
S'16111 - Black Carbon'
p805
ssS'99993'
p806
(dp807
g601
(lp808
S'90500 - PN1'
p809
asg604
g9
((ltRp810
sg606
S'90500 - PN1'
p811
ssS'99995'
p812
(dp813
g601
(lp814
S'81104 - PM2.5_._99995'
p815
asg604
g9
((ltRp816
sg606
S'81104 - PM2.5'
p817
ssS'99994'
p818
(dp819
g601
(lp820
S'81104 - PM2.5_._99994'
p821
asg604
g9
((ltRp822
sg606
S'81104 - PM2.5'
p823
ssS'99997'
p824
(dp825
g601
(lp826
S'81104 - PM2.5_._99997'
p827
asg604
g9
((ltRp828
sg606
S'81104 - PM2.5'
p829
ssS'99996'
p830
(dp831
g601
(lp832
S'81104 - PM2.5_._99996'
p833
asg604
g9
((ltRp834
sg606
S'81104 - PM2.5'
p835
ssS'6386'
p836
(dp837
g601
(lp838
S'42242 - Hg_._6386'
p839
asg604
g9
((ltRp840
sg606
S'42242 - Hg'
p841
ssS'100016'
p842
(dp843
g601
(lp844
S'81104 - PM2.5_._100016'
p845
asg604
g9
((ltRp846
sg606
S'81104 - PM2.5'
p847
ssS'100017'
p848
(dp849
g601
(lp850
S'81104 - PM2.5_._100017'
p851
asg604
g9
((ltRp852
sg606
S'81104 - PM2.5'
p853
ssS'100014'
p854
(dp855
g601
(lp856
S'81104 - PM2.5_._100014'
p857
asg604
g9
((ltRp858
sg606
S'81104 - PM2.5'
p859
ssS'100015'
p860
(dp861
g601
(lp862
S'81104 - PM2.5_._100015'
p863
asg604
g9
((ltRp864
sg606
S'81104 - PM2.5'
p865
ssS'100012'
p866
(dp867
g601
(lp868
S'81104 - PM2.5_._100012'
p869
asg604
g9
((ltRp870
sg606
S'81104 - PM2.5'
p871
ssS'100013'
p872
(dp873
g601
(lp874
S'81104 - PM2.5_._100013'
p875
asg604
g9
((ltRp876
sg606
S'81104 - PM2.5'
p877
ssS'100010'
p878
(dp879
g601
(lp880
S'81104 - PM2.5_._100010'
p881
asg604
g9
((ltRp882
sg606
S'81104 - PM2.5'
p883
ssS'100011'
p884
(dp885
g601
(lp886
S'81104 - PM2.5_._100011'
p887
asg604
g9
((ltRp888
sg606
S'81104 - PM2.5'
p889
ssS'100018'
p890
(dp891
g601
(lp892
S'81104 - PM2.5_._100018'
p893
asg604
g9
((ltRp894
sg606
S'81104 - PM2.5'
p895
ssS'10703'
p896
(dp897
g601
(lp898
S'42602 - NO2_._10703'
p899
asg604
g9
((ltRp900
sg606
S'42602 - NO2'
p901
ssS'10702'
p902
(dp903
g601
(lp904
S'42601 - NO_._10702'
p905
asg604
g9
((ltRp906
sg606
S'42601 - NO'
p907
ssS'10701'
p908
(dp909
g601
(lp910
S'44201 - O3_._10701'
p911
asg604
g9
((ltRp912
sg606
S'44201 - O3'
p913
ssS'10700'
p914
(dp915
g601
(lp916
S'42602 - NO2_._10700'
p917
asg604
g9
((ltRp918
sg606
S'42602 - NO2'
p919
ssS'10706'
p920
(dp921
g601
(lp922
S'16111 - Black Carbon_._10706'
p923
asg604
g9
((ltRp924
sg606
S'16111 - Black Carbon'
p925
ssS'10705'
p926
(dp927
g601
(lp928
S'81104 - PM2.5_._10705'
p929
asg604
g9
((ltRp930
sg606
S'81104 - PM2.5'
p931
ssS'10704'
p932
(dp933
g601
(lp934
S'81102 - PM10_._10704'
p935
asg604
g9
((ltRp936
sg606
S'81102 - PM10'
p937
ssS'6932'
p938
(dp939
g601
(lp940
S'42401 - SO2_._6932'
p941
asg604
g9
((ltRp942
sg606
S'42401 - SO2'
p943
ssS'6933'
p944
(dp945
g601
(lp946
S'42601 - NO_._6933'
p947
asg604
g9
((ltRp948
sg606
S'42601 - NO'
p949
ssS'6930'
p950
(dp951
g601
(lp952
S'42101 - CO_._6930'
p953
asg604
g9
((ltRp954
sg606
S'42101 - CO'
p955
ssS'6931'
p956
(dp957
g601
(lp958
S'42242 - Hg_._6931'
p959
asg604
g9
((ltRp960
sg606
S'42242 - Hg'
p961
ssS'6936'
p962
(dp963
g601
(lp964
S'81102 - PM10_._6936'
p965
asg604
g9
((ltRp966
sg606
S'81102 - PM10'
p967
ssS'6937'
p968
(dp969
g601
(lp970
S'81104 - PM2.5_._6937'
p971
asg604
g9
((ltRp972
sg606
S'81104 - PM2.5'
p973
ssS'6934'
p974
(dp975
g601
(lp976
S'42602 - NO2_._6934'
p977
asg604
g9
((ltRp978
sg606
S'42602 - NO2'
p979
ssS'6935'
p980
(dp981
g601
(lp982
S'44201 - O3_._6935'
p983
asg604
g9
((ltRp984
sg606
S'44201 - O3'
p985
ssS'6938'
p986
(dp987
g601
(lp988
S'89101 - PM1_._6938'
p989
asg604
g9
((ltRp990
sg606
S'89101 - PM1'
p991
ssS'6939'
p992
(dp993
g601
(lp994
S'42401 - SO2_._6939'
p995
asg604
g9
((ltRp996
sg606
S'42401 - SO2'
p997
ssS'6271'
p998
(dp999
g601
(lp1000
S'42601 - NO_._6271'
p1001
asg604
g9
((ltRp1002
sg606
S'42601 - NO'
p1003
ssS'6273'
p1004
(dp1005
g601
(lp1006
S'45109 - m,p-C6H4(CH3)2_._6273'
p1007
asg604
g9
((ltRp1008
sg606
S'45109 - m,p-C6H4(CH3)2'
p1009
ssS'6272'
p1010
(dp1011
g601
(lp1012
S'42602 - NO2_._6272'
p1013
asg604
g9
((ltRp1014
sg606
S'42602 - NO2'
p1015
ssS'6275'
p1016
(dp1017
g601
(lp1018
S'45202 - C6H5-CH3_._6275'
p1019
asg604
g9
((ltRp1020
sg606
S'45202 - C6H5-CH3'
p1021
ssS'6274'
p1022
(dp1023
g601
(lp1024
S'45201 - C6H6_._6274'
p1025
asg604
g9
((ltRp1026
sg606
S'45201 - C6H6'
p1027
ssS'6277'
p1028
(dp1029
g601
(lp1030
S'45204 - o-C6H4-(CH3)2_._6277'
p1031
asg604
g9
((ltRp1032
sg606
S'45204 - o-C6H4-(CH3)2'
p1033
ssS'6276'
p1034
(dp1035
g601
(lp1036
S'45203 - C6H5-C2H5_._6276'
p1037
asg604
g9
((ltRp1038
sg606
S'45203 - C6H5-C2H5'
p1039
ssS'6503'
p1040
(dp1041
g601
(lp1042
S'42601 - NO_._6503'
p1043
asg604
g9
((ltRp1044
sg606
S'42601 - NO'
p1045
ssS'6502'
p1046
(dp1047
g601
(lp1048
S'42401 - SO2_._6502'
p1049
asg604
g9
((ltRp1050
sg606
S'42401 - SO2'
p1051
ssS'6501'
p1052
(dp1053
g601
(lp1054
S'42102 - CO2_._6501'
p1055
asg604
g9
((ltRp1056
sg606
S'42102 - CO2'
p1057
ssS'6500'
p1058
(dp1059
g601
(lp1060
S'42101 - CO_._6500'
p1061
asg604
g9
((ltRp1062
sg606
S'42101 - CO'
p1063
ssS'6507'
p1064
(dp1065
g601
(lp1066
S'42601 - NO_._6507'
p1067
asg604
g9
((ltRp1068
sg606
S'42601 - NO'
p1069
ssS'6506'
p1070
(dp1071
g601
(lp1072
S'42101 - CO_._6506'
p1073
asg604
g9
((ltRp1074
sg606
S'42101 - CO'
p1075
ssS'6504'
p1076
(dp1077
g601
(lp1078
S'42602 - NO2_._6504'
p1079
asg604
g9
((ltRp1080
sg606
S'42602 - NO2'
p1081
ssS'7009'
p1082
(dp1083
g601
(lp1084
S'81104 - PM2.5_._7009'
p1085
asg604
g9
((ltRp1086
sg606
S'81104 - PM2.5'
p1087
ssS'99925'
p1088
(dp1089
g601
(lp1090
S'61110 - WSP-SCA_._99925'
p1091
asg604
g9
((ltRp1092
sg606
S'61110 - WSP-SCA'
p1093
ssS'99937'
p1094
(dp1095
g601
(lp1096
S'61110 - WSP-SCA_._99937'
p1097
asg604
g9
((ltRp1098
sg606
S'61110 - WSP-SCA'
p1099
ssS'6430'
p1100
(dp1101
g601
(lp1102
S'42401 - SO2_._6430'
p1103
asg604
g9
((ltRp1104
sg606
S'42401 - SO2'
p1105
ssS'6204'
p1106
(dp1107
g601
(lp1108
S'45203 - C6H5-C2H5_._6204'
p1109
asg604
g9
((ltRp1110
sg606
S'45203 - C6H5-C2H5'
p1111
ssS'6205'
p1112
(dp1113
g601
(lp1114
S'45204 - o-C6H4-(CH3)2_._6205'
p1115
asg604
g9
((ltRp1116
sg606
S'45204 - o-C6H4-(CH3)2'
p1117
ssS'6206'
p1118
(dp1119
g601
(lp1120
S'81102 - PM10_._6206'
p1121
asg604
g9
((ltRp1122
sg606
S'81102 - PM10'
p1123
ssS'6207'
p1124
(dp1125
g601
(lp1126
S'42242 - Hg_._6207'
p1127
asg604
g9
((ltRp1128
sg606
S'42242 - Hg'
p1129
ssS'6200'
p1130
(dp1131
g601
(lp1132
S'42602 - NO2_._6200'
p1133
asg604
g9
((ltRp1134
sg606
S'42602 - NO2'
p1135
ssS'6201'
p1136
(dp1137
g601
(lp1138
S'45109 - m,p-C6H4(CH3)2_._6201'
p1139
asg604
g9
((ltRp1140
sg606
S'45109 - m,p-C6H4(CH3)2'
p1141
ssS'6202'
p1142
(dp1143
g601
(lp1144
S'45201 - C6H6_._6202'
p1145
asg604
g9
((ltRp1146
sg606
S'45201 - C6H6'
p1147
ssS'6203'
p1148
(dp1149
g601
(lp1150
S'45202 - C6H5-CH3_._6203'
p1151
asg604
g9
((ltRp1152
sg606
S'45202 - C6H5-CH3'
p1153
ssS'6809'
p1154
(dp1155
g601
(lp1156
S'42401 - SO2_._6809'
p1157
asg604
g9
((ltRp1158
sg606
S'42401 - SO2'
p1159
ssS'6804'
p1160
(dp1161
g601
(lp1162
S'81102 - PM10_._6804'
p1163
asg604
g9
((ltRp1164
sg606
S'81102 - PM10'
p1165
ssS'6802'
p1166
(dp1167
g601
(lp1168
S'42601 - NO_._6802'
p1169
asg604
g9
((ltRp1170
sg606
S'42601 - NO'
p1171
ssS'6803'
p1172
(dp1173
g601
(lp1174
S'42602 - NO2_._6803'
p1175
asg604
g9
((ltRp1176
sg606
S'42602 - NO2'
p1177
ssS'6800'
p1178
(dp1179
g601
(lp1180
S'16111 - Black Carbon_._6800'
p1181
asg604
g9
((ltRp1182
sg606
S'16111 - Black Carbon'
p1183
ssS'6801'
p1184
(dp1185
g601
(lp1186
S'42401 - SO2_._6801'
p1187
asg604
g9
((ltRp1188
sg606
S'42401 - SO2'
p1189
ssS'6613'
p1190
(dp1191
g601
(lp1192
S'42401 - SO2_._6613'
p1193
asg604
g9
((ltRp1194
sg606
S'42401 - SO2'
p1195
ssS'6612'
p1196
(dp1197
g601
(lp1198
S'42102 - CO2_._6612'
p1199
asg604
g9
((ltRp1200
sg606
S'42102 - CO2'
p1201
ssS'6611'
p1202
(dp1203
g601
(lp1204
S'42101 - CO_._6611'
p1205
asg604
g9
((ltRp1206
sg606
S'42101 - CO'
p1207
ssS'99927'
p1208
(dp1209
g601
(lp1210
S'61102 - DD_._99927'
p1211
asg604
g9
((ltRp1212
sg606
S'61102 - DD'
p1213
ssS'6615'
p1214
(dp1215
g601
(lp1216
S'42602 - NO2_._6615'
p1217
asg604
g9
((ltRp1218
sg606
S'42602 - NO2'
p1219
ssS'6614'
p1220
(dp1221
g601
(lp1222
S'42601 - NO_._6614'
p1223
asg604
g9
((ltRp1224
sg606
S'42601 - NO'
p1225
ssS'7001'
p1226
(dp1227
g601
(lp1228
S'81104 - PM2.5_._7001'
p1229
asg604
g9
((ltRp1230
sg606
S'81104 - PM2.5'
p1231
ssS'7000'
p1232
(dp1233
g601
(lp1234
S'81102 - PM10_._7000'
p1235
asg604
g9
((ltRp1236
sg606
S'81102 - PM10'
p1237
ssS'6619'
p1238
(dp1239
g601
(lp1240
S'42102 - CO2_._6619'
p1241
asg604
g9
((ltRp1242
sg606
S'42102 - CO2'
p1243
ssS'7005'
p1244
(dp1245
g601
(lp1246
S'42601 - NO_._7005'
p1247
asg604
g9
((ltRp1248
sg606
S'42601 - NO'
p1249
ssS'7004'
p1250
(dp1251
g601
(lp1252
S'42401 - SO2_._7004'
p1253
asg604
g9
((ltRp1254
sg606
S'42401 - SO2'
p1255
ssS'7006'
p1256
(dp1257
g601
(lp1258
S'42602 - NO2_._7006'
p1259
asg604
g9
((ltRp1260
sg606
S'42602 - NO2'
p1261
ssS'6752'
p1262
(dp1263
g601
(lp1264
S'42601 - NO_._6752'
p1265
asg604
g9
((ltRp1266
sg606
S'42601 - NO'
p1267
ssS'6753'
p1268
(dp1269
g601
(lp1270
S'42602 - NO2_._6753'
p1271
asg604
g9
((ltRp1272
sg606
S'42602 - NO2'
p1273
ssS'6750'
p1274
(dp1275
g601
(lp1276
S'42101 - CO_._6750'
p1277
asg604
g9
((ltRp1278
sg606
S'42101 - CO'
p1279
ssS'99916'
p1280
(dp1281
g601
(lp1282
S'61110 - WSP-SCA_._99916'
p1283
asg604
g9
((ltRp1284
sg606
S'61110 - WSP-SCA'
p1285
ssS'7177'
p1286
(dp1287
g601
(lp1288
S'42602 - NO2_._7177'
p1289
asg604
g9
((ltRp1290
sg606
S'42602 - NO2'
p1291
ssS'99919'
p1292
(dp1293
g601
(lp1294
S'61110 - WSP-SCA_._99919'
p1295
asg604
g9
((ltRp1296
sg606
S'61110 - WSP-SCA'
p1297
ssS'7176'
p1298
(dp1299
g601
(lp1300
S'42601 - NO_._7176'
p1301
asg604
g9
((ltRp1302
sg606
S'42601 - NO'
p1303
ssS'99940'
p1304
(dp1305
g601
(lp1306
S'61110 - WSP-SCA_._99940'
p1307
asg604
g9
((ltRp1308
sg606
S'61110 - WSP-SCA'
p1309
ssS'99918'
p1310
(dp1311
g601
(lp1312
S'61102 - DD_._99918'
p1313
asg604
g9
((ltRp1314
sg606
S'61102 - DD'
p1315
ssS'99941'
p1316
(dp1317
g601
(lp1318
S'62101 - TT_._99941'
p1319
asg604
g9
((ltRp1320
sg606
S'62101 - TT'
p1321
ssS'99915'
p1322
(dp1323
g601
(lp1324
S'61102 - DD_._99915'
p1325
asg604
g9
((ltRp1326
sg606
S'61102 - DD'
p1327
ssS'6891'
p1328
(dp1329
g601
(lp1330
S'44201 - O3_._6891'
p1331
asg604
g9
((ltRp1332
sg606
S'44201 - O3'
p1333
ssS'6890'
p1334
(dp1335
g601
(lp1336
S'42602 - NO2_._6890'
p1337
asg604
g9
((ltRp1338
sg606
S'42602 - NO2'
p1339
ssS'6893'
p1340
(dp1341
g601
(lp1342
S'81104 - PM2.5_._6893'
p1343
asg604
g9
((ltRp1344
sg606
S'81104 - PM2.5'
p1345
ssS'6892'
p1346
(dp1347
g601
(lp1348
S'81102 - PM10_._6892'
p1349
asg604
g9
((ltRp1350
sg606
S'81102 - PM10'
p1351
ssS'6895'
p1352
(dp1353
g601
(lp1354
S'42101 - CO_._6895'
p1355
asg604
g9
((ltRp1356
sg606
S'42101 - CO'
p1357
ssS'6894'
p1358
(dp1359
g601
(lp1360
S'89101 - PM1_._6894'
p1361
asg604
g9
((ltRp1362
sg606
S'89101 - PM1'
p1363
ssS'6897'
p1364
(dp1365
g601
(lp1366
S'42601 - NO_._6897'
p1367
asg604
g9
((ltRp1368
sg606
S'42601 - NO'
p1369
ssS'6896'
p1370
(dp1371
g601
(lp1372
S'42401 - SO2_._6896'
p1373
asg604
g9
((ltRp1374
sg606
S'42401 - SO2'
p1375
ssS'6899'
p1376
(dp1377
g601
(lp1378
S'44201 - O3_._6899'
p1379
asg604
g9
((ltRp1380
sg606
S'44201 - O3'
p1381
ssS'6898'
p1382
(dp1383
g601
(lp1384
S'42602 - NO2_._6898'
p1385
asg604
g9
((ltRp1386
sg606
S'42602 - NO2'
p1387
ssS'7179'
p1388
(dp1389
g601
(lp1390
S'42601 - NO_._7179'
p1391
asg604
g9
((ltRp1392
sg606
S'42601 - NO'
p1393
ssS'99928'
p1394
(dp1395
g601
(lp1396
S'61110 - WSP-SCA_._99928'
p1397
asg604
g9
((ltRp1398
sg606
S'61110 - WSP-SCA'
p1399
ssS'99929'
p1400
(dp1401
g601
(lp1402
S'62101 - TT_._99929'
p1403
asg604
g9
((ltRp1404
sg606
S'62101 - TT'
p1405
ssS'7078'
p1406
(dp1407
g601
(lp1408
S'44201 - O3_._7078'
p1409
asg604
g9
((ltRp1410
sg606
S'44201 - O3'
p1411
ssS'7079'
p1412
(dp1413
g601
(lp1414
S'45109 - m,p-C6H4(CH3)2_._7079'
p1415
asg604
g9
((ltRp1416
sg606
S'45109 - m,p-C6H4(CH3)2'
p1417
ssS'7074'
p1418
(dp1419
g601
(lp1420
S'42602 - NO2_._7074'
p1421
asg604
g9
((ltRp1422
sg606
S'42602 - NO2'
p1423
ssS'99921'
p1424
(dp1425
g601
(lp1426
S'61102 - DD_._99921'
p1427
asg604
g9
((ltRp1428
sg606
S'61102 - DD'
p1429
ssS'99922'
p1430
(dp1431
g601
(lp1432
S'61110 - WSP-SCA_._99922'
p1433
asg604
g9
((ltRp1434
sg606
S'61110 - WSP-SCA'
p1435
ssS'99923'
p1436
(dp1437
g601
(lp1438
S'62101 - TT_._99923'
p1439
asg604
g9
((ltRp1440
sg606
S'62101 - TT'
p1441
ssS'99924'
p1442
(dp1443
g601
(lp1444
S'61102 - DD_._99924'
p1445
asg604
g9
((ltRp1446
sg606
S'61102 - DD'
p1447
ssS'7071'
p1448
(dp1449
g601
(lp1450
S'42101 - CO_._7071'
p1451
asg604
g9
((ltRp1452
sg606
S'42101 - CO'
p1453
ssS'7072'
p1454
(dp1455
g601
(lp1456
S'42401 - SO2_._7072'
p1457
asg604
g9
((ltRp1458
sg606
S'42401 - SO2'
p1459
ssS'7073'
p1460
(dp1461
g601
(lp1462
S'42601 - NO_._7073'
p1463
asg604
g9
((ltRp1464
sg606
S'42601 - NO'
p1465
ssS'6972'
p1466
(dp1467
g601
(lp1468
S'89101 - PM1_._6972'
p1469
asg604
g9
((ltRp1470
sg606
S'89101 - PM1'
p1471
ssS'6970'
p1472
(dp1473
g601
(lp1474
S'81102 - PM10_._6970'
p1475
asg604
g9
((ltRp1476
sg606
S'81102 - PM10'
p1477
ssS'6971'
p1478
(dp1479
g601
(lp1480
S'81104 - PM2.5_._6971'
p1481
asg604
g9
((ltRp1482
sg606
S'81104 - PM2.5'
p1483
ssS'6508'
p1484
(dp1485
g601
(lp1486
S'42602 - NO2_._6508'
p1487
asg604
g9
((ltRp1488
sg606
S'42602 - NO2'
p1489
ssS'10688'
p1490
(dp1491
g601
(lp1492
S'42601 - NO_._10688'
p1493
asg604
g9
((ltRp1494
sg606
S'42601 - NO'
p1495
ssS'99920'
p1496
(dp1497
g601
(lp1498
S'62101 - TT_._99920'
p1499
asg604
g9
((ltRp1500
sg606
S'62101 - TT'
p1501
ssS'10689'
p1502
(dp1503
g601
(lp1504
S'42602 - NO2_._10689'
p1505
asg604
g9
((ltRp1506
sg606
S'42602 - NO2'
p1507
ssS'7180'
p1508
(dp1509
g601
(lp1510
S'42602 - NO2_._7180'
p1511
asg604
g9
((ltRp1512
sg606
S'42602 - NO2'
p1513
ssS'7041'
p1514
(dp1515
g601
(lp1516
S'44201 - O3_._7041'
p1517
asg604
g9
((ltRp1518
sg606
S'44201 - O3'
p1519
ssS'7182'
p1520
(dp1521
g601
(lp1522
S'42601 - NO_._7182'
p1523
asg604
g9
((ltRp1524
sg606
S'42601 - NO'
p1525
ssS'7183'
p1526
(dp1527
g601
(lp1528
S'42602 - NO2_._7183'
p1529
asg604
g9
((ltRp1530
sg606
S'42602 - NO2'
p1531
ssS'7185'
p1532
(dp1533
g601
(lp1534
S'42601 - NO_._7185'
p1535
asg604
g9
((ltRp1536
sg606
S'42601 - NO'
p1537
ssS'7186'
p1538
(dp1539
g601
(lp1540
S'42602 - NO2_._7186'
p1541
asg604
g9
((ltRp1542
sg606
S'42602 - NO2'
p1543
ssS'7040'
p1544
(dp1545
g601
(lp1546
S'42602 - NO2_._7040'
p1547
asg604
g9
((ltRp1548
sg606
S'42602 - NO2'
p1549
ssS'7207'
p1550
(dp1551
g601
(lp1552
S'42602 - NO2_._7207'
p1553
asg604
g9
((ltRp1554
sg606
S'42602 - NO2'
p1555
ssS'7042'
p1556
(dp1557
g601
(lp1558
S'81102 - PM10_._7042'
p1559
asg604
g9
((ltRp1560
sg606
S'81102 - PM10'
p1561
ssS'7206'
p1562
(dp1563
g601
(lp1564
S'42601 - NO_._7206'
p1565
asg604
g9
((ltRp1566
sg606
S'42601 - NO'
p1567
ssS'10699'
p1568
(dp1569
g601
(lp1570
S'42601 - NO_._10699'
p1571
asg604
g9
((ltRp1572
sg606
S'42601 - NO'
p1573
ssS'10698'
p1574
(dp1575
g601
(lp1576
S'42602 - NO2_._10698'
p1577
asg604
g9
((ltRp1578
sg606
S'42602 - NO2'
p1579
ssS'7223'
p1580
(dp1581
g601
(lp1582
S'42401 - SO2_._7223'
p1583
asg604
g9
((ltRp1584
sg606
S'42401 - SO2'
p1585
ssS'7222'
p1586
(dp1587
g601
(lp1588
S'42602 - NO2_._7222'
p1589
asg604
g9
((ltRp1590
sg606
S'42602 - NO2'
p1591
ssS'7225'
p1592
(dp1593
g601
(lp1594
S'42602 - NO2_._7225'
p1595
asg604
g9
((ltRp1596
sg606
S'42602 - NO2'
p1597
ssS'7224'
p1598
(dp1599
g601
(lp1600
S'42601 - NO_._7224'
p1601
asg604
g9
((ltRp1602
sg606
S'42601 - NO'
p1603
ssS'7227'
p1604
(dp1605
g601
(lp1606
S'42601 - NO_._7227'
p1607
asg604
g9
((ltRp1608
sg606
S'42601 - NO'
p1609
ssS'7226'
p1610
(dp1611
g601
(lp1612
S'42401 - SO2_._7226'
p1613
asg604
g9
((ltRp1614
sg606
S'42401 - SO2'
p1615
ssS'10691'
p1616
(dp1617
g601
(lp1618
S'81102 - PM10_._10691'
p1619
asg604
g9
((ltRp1620
sg606
S'81102 - PM10'
p1621
ssS'10690'
p1622
(dp1623
g601
(lp1624
S'16111 - Black Carbon_._10690'
p1625
asg604
g9
((ltRp1626
sg606
S'16111 - Black Carbon'
p1627
ssS'10693'
p1628
(dp1629
g601
(lp1630
S'16111 - Black Carbon_._10693'
p1631
asg604
g9
((ltRp1632
sg606
S'16111 - Black Carbon'
p1633
ssS'10692'
p1634
(dp1635
g601
(lp1636
S'81104 - PM2.5_._10692'
p1637
asg604
g9
((ltRp1638
sg606
S'81104 - PM2.5'
p1639
ssS'10697'
p1640
(dp1641
g601
(lp1642
S'42601 - NO_._10697'
p1643
asg604
g9
((ltRp1644
sg606
S'42601 - NO'
p1645
ssS'10696'
p1646
(dp1647
g601
(lp1648
S'42601 - NO_._10696'
p1649
asg604
g9
((ltRp1650
sg606
S'42601 - NO'
p1651
ssS'6572'
p1652
(dp1653
g601
(lp1654
S'42401 - SO2_._6572'
p1655
asg604
g9
((ltRp1656
sg606
S'42401 - SO2'
p1657
ssS'6573'
p1658
(dp1659
g601
(lp1660
S'42601 - NO_._6573'
p1661
asg604
g9
((ltRp1662
sg606
S'42601 - NO'
p1663
ssS'6571'
p1664
(dp1665
g601
(lp1666
S'42101 - CO_._6571'
p1667
asg604
g9
((ltRp1668
sg606
S'42101 - CO'
p1669
ssS'6577'
p1670
(dp1671
g601
(lp1672
S'44201 - O3_._6577'
p1673
asg604
g9
((ltRp1674
sg606
S'44201 - O3'
p1675
ssS'6574'
p1676
(dp1677
g601
(lp1678
S'42602 - NO2_._6574'
p1679
asg604
g9
((ltRp1680
sg606
S'42602 - NO2'
p1681
ssS'7122'
p1682
(dp1683
g601
(lp1684
S'42602 - NO2_._7122'
p1685
asg604
g9
((ltRp1686
sg606
S'42602 - NO2'
p1687
ssS'6578'
p1688
(dp1689
g601
(lp1690
S'81102 - PM10_._6578'
p1691
asg604
g9
((ltRp1692
sg606
S'81102 - PM10'
p1693
ssS'6579'
p1694
(dp1695
g601
(lp1696
S'81104 - PM2.5_._6579'
p1697
asg604
g9
((ltRp1698
sg606
S'81104 - PM2.5'
p1699
ssS'6324'
p1700
(dp1701
g601
(lp1702
S'81102 - PM10_._6324'
p1703
asg604
g9
((ltRp1704
sg606
S'81102 - PM10'
p1705
ssS'6323'
p1706
(dp1707
g601
(lp1708
S'42602 - NO2_._6323'
p1709
asg604
g9
((ltRp1710
sg606
S'42602 - NO2'
p1711
ssS'6322'
p1712
(dp1713
g601
(lp1714
S'42601 - NO_._6322'
p1715
asg604
g9
((ltRp1716
sg606
S'42601 - NO'
p1717
ssS'7121'
p1718
(dp1719
g601
(lp1720
S'42601 - NO_._7121'
p1721
asg604
g9
((ltRp1722
sg606
S'42601 - NO'
p1723
ssS'6718'
p1724
(dp1725
g601
(lp1726
S'42602 - NO2_._6718'
p1727
asg604
g9
((ltRp1728
sg606
S'42602 - NO2'
p1729
ssS'6719'
p1730
(dp1731
g601
(lp1732
S'44201 - O3_._6719'
p1733
asg604
g9
((ltRp1734
sg606
S'44201 - O3'
p1735
ssS'6716'
p1736
(dp1737
g601
(lp1738
S'81102 - PM10_._6716'
p1739
asg604
g9
((ltRp1740
sg606
S'81102 - PM10'
p1741
ssS'6717'
p1742
(dp1743
g601
(lp1744
S'42601 - NO_._6717'
p1745
asg604
g9
((ltRp1746
sg606
S'42601 - NO'
p1747
ssS'6714'
p1748
(dp1749
g601
(lp1750
S'42602 - NO2_._6714'
p1751
asg604
g9
((ltRp1752
sg606
S'42602 - NO2'
p1753
ssS'6715'
p1754
(dp1755
g601
(lp1756
S'44201 - O3_._6715'
p1757
asg604
g9
((ltRp1758
sg606
S'44201 - O3'
p1759
ssS'6712'
p1760
(dp1761
g601
(lp1762
S'42401 - SO2_._6712'
p1763
asg604
g9
((ltRp1764
sg606
S'42401 - SO2'
p1765
ssS'6713'
p1766
(dp1767
g601
(lp1768
S'42601 - NO_._6713'
p1769
asg604
g9
((ltRp1770
sg606
S'42601 - NO'
p1771
ssS'6710'
p1772
(dp1773
g601
(lp1774
S'42602 - NO2_._6710'
p1775
asg604
g9
((ltRp1776
sg606
S'42602 - NO2'
p1777
ssS'6711'
p1778
(dp1779
g601
(lp1780
S'44201 - O3_._6711'
p1781
asg604
g9
((ltRp1782
sg606
S'44201 - O3'
p1783
ssS'6855'
p1784
(dp1785
g601
(lp1786
S'81104 - PM2.5_._6855'
p1787
asg604
g9
((ltRp1788
sg606
S'81104 - PM2.5'
p1789
ssS'6854'
p1790
(dp1791
g601
(lp1792
S'81102 - PM10_._6854'
p1793
asg604
g9
((ltRp1794
sg606
S'81102 - PM10'
p1795
ssS'6857'
p1796
(dp1797
g601
(lp1798
S'42601 - NO_._6857'
p1799
asg604
g9
((ltRp1800
sg606
S'42601 - NO'
p1801
ssS'6856'
p1802
(dp1803
g601
(lp1804
S'42401 - SO2_._6856'
p1805
asg604
g9
((ltRp1806
sg606
S'42401 - SO2'
p1807
ssS'6851'
p1808
(dp1809
g601
(lp1810
S'42601 - NO_._6851'
p1811
asg604
g9
((ltRp1812
sg606
S'42601 - NO'
p1813
ssS'6853'
p1814
(dp1815
g601
(lp1816
S'44201 - O3_._6853'
p1817
asg604
g9
((ltRp1818
sg606
S'44201 - O3'
p1819
ssS'6852'
p1820
(dp1821
g601
(lp1822
S'42602 - NO2_._6852'
p1823
asg604
g9
((ltRp1824
sg606
S'42602 - NO2'
p1825
ssS'6858'
p1826
(dp1827
g601
(lp1828
S'42602 - NO2_._6858'
p1829
asg604
g9
((ltRp1830
sg606
S'42602 - NO2'
p1831
ssS'7031'
p1832
(dp1833
g601
(lp1834
S'42601 - NO_._7031'
p1835
asg604
g9
((ltRp1836
sg606
S'42601 - NO'
p1837
ssS'7032'
p1838
(dp1839
g601
(lp1840
S'42602 - NO2_._7032'
p1841
asg604
g9
((ltRp1842
sg606
S'42602 - NO2'
p1843
ssS'7033'
p1844
(dp1845
g601
(lp1846
S'44201 - O3_._7033'
p1847
asg604
g9
((ltRp1848
sg606
S'44201 - O3'
p1849
ssS'6147'
p1850
(dp1851
g601
(lp1852
S'16111 - Black Carbon_._6147'
p1853
asg604
g9
((ltRp1854
sg606
S'16111 - Black Carbon'
p1855
ssS'7017'
p1856
(dp1857
g601
(lp1858
S'42602 - NO2_._7017'
p1859
asg604
g9
((ltRp1860
sg606
S'42602 - NO2'
p1861
ssS'7131'
p1862
(dp1863
g601
(lp1864
S'42601 - NO_._7131'
p1865
asg604
g9
((ltRp1866
sg606
S'42601 - NO'
p1867
ssS'7039'
p1868
(dp1869
g601
(lp1870
S'42601 - NO_._7039'
p1871
asg604
g9
((ltRp1872
sg606
S'42601 - NO'
p1873
ssS'6149'
p1874
(dp1875
g601
(lp1876
S'81102 - PM10_._6149'
p1877
asg604
g9
((ltRp1878
sg606
S'81102 - PM10'
p1879
ssS'6148'
p1880
(dp1881
g601
(lp1882
S'81102 - PM10_._6148'
p1883
asg604
g9
((ltRp1884
sg606
S'81102 - PM10'
p1885
ssS'7135'
p1886
(dp1887
g601
(lp1888
S'81102 - PM10_._7135'
p1889
asg604
g9
((ltRp1890
sg606
S'81102 - PM10'
p1891
ssS'7137'
p1892
(dp1893
g601
(lp1894
S'89101 - PM1_._7137'
p1895
asg604
g9
((ltRp1896
sg606
S'89101 - PM1'
p1897
ssS'7136'
p1898
(dp1899
g601
(lp1900
S'81104 - PM2.5_._7136'
p1901
asg604
g9
((ltRp1902
sg606
S'81104 - PM2.5'
p1903
ssS'6781'
p1904
(dp1905
g601
(lp1906
S'45202 - C6H5-CH3_._6781'
p1907
asg604
g9
((ltRp1908
sg606
S'45202 - C6H5-CH3'
p1909
ssS'6780'
p1910
(dp1911
g601
(lp1912
S'45201 - C6H6_._6780'
p1913
asg604
g9
((ltRp1914
sg606
S'45201 - C6H6'
p1915
ssS'6783'
p1916
(dp1917
g601
(lp1918
S'45204 - o-C6H4-(CH3)2_._6783'
p1919
asg604
g9
((ltRp1920
sg606
S'45204 - o-C6H4-(CH3)2'
p1921
ssS'6782'
p1922
(dp1923
g601
(lp1924
S'45203 - C6H5-C2H5_._6782'
p1925
asg604
g9
((ltRp1926
sg606
S'45203 - C6H5-C2H5'
p1927
ssS'6787'
p1928
(dp1929
g601
(lp1930
S'81104 - PM2.5_._6787'
p1931
asg604
g9
((ltRp1932
sg606
S'81104 - PM2.5'
p1933
ssS'6786'
p1934
(dp1935
g601
(lp1936
S'81102 - PM10_._6786'
p1937
asg604
g9
((ltRp1938
sg606
S'81102 - PM10'
p1939
ssS'6789'
p1940
(dp1941
g601
(lp1942
S'81104 - PM2.5_._6789'
p1943
asg604
g9
((ltRp1944
sg606
S'81104 - PM2.5'
p1945
ssS'6788'
p1946
(dp1947
g601
(lp1948
S'81102 - PM10_._6788'
p1949
asg604
g9
((ltRp1950
sg606
S'81102 - PM10'
p1951
ssS'7044'
p1952
(dp1953
g601
(lp1954
S'42242 - Hg_._7044'
p1955
asg604
g9
((ltRp1956
sg606
S'42242 - Hg'
p1957
ssS'99911'
p1958
(dp1959
g601
(lp1960
S'62101 - TT_._99911'
p1961
asg604
g9
((ltRp1962
sg606
S'62101 - TT'
p1963
ssS'99910'
p1964
(dp1965
g601
(lp1966
S'61110 - WSP-SCA_._99910'
p1967
asg604
g9
((ltRp1968
sg606
S'61110 - WSP-SCA'
p1969
ssS'99913'
p1970
(dp1971
g601
(lp1972
S'61110 - WSP-SCA_._99913'
p1973
asg604
g9
((ltRp1974
sg606
S'61110 - WSP-SCA'
p1975
ssS'99912'
p1976
(dp1977
g601
(lp1978
S'61102 - DD_._99912'
p1979
asg604
g9
((ltRp1980
sg606
S'61102 - DD'
p1981
ssS'7047'
p1982
(dp1983
g601
(lp1984
S'42602 - NO2_._7047'
p1985
asg604
g9
((ltRp1986
sg606
S'42602 - NO2'
p1987
ssS'7149'
p1988
(dp1989
g601
(lp1990
S'81104 - PM2.5_._7149'
p1991
asg604
g9
((ltRp1992
sg606
S'81104 - PM2.5'
p1993
ssS'99917'
p1994
(dp1995
g601
(lp1996
S'62101 - TT_._99917'
p1997
asg604
g9
((ltRp1998
sg606
S'62101 - TT'
p1999
ssS'6638'
p2000
(dp2001
g601
(lp2002
S'42601 - NO_._6638'
p2003
asg604
g9
((ltRp2004
sg606
S'42601 - NO'
p2005
ssS'7144'
p2006
(dp2007
g601
(lp2008
S'81104 - PM2.5_._7144'
p2009
asg604
g9
((ltRp2010
sg606
S'81104 - PM2.5'
p2011
ssS'7145'
p2012
(dp2013
g601
(lp2014
S'89101 - PM1_._7145'
p2015
asg604
g9
((ltRp2016
sg606
S'89101 - PM1'
p2017
ssS'7147'
p2018
(dp2019
g601
(lp2020
S'42401 - SO2_._7147'
p2021
asg604
g9
((ltRp2022
sg606
S'42401 - SO2'
p2023
ssS'7140'
p2024
(dp2025
g601
(lp2026
S'42601 - NO_._7140'
p2027
asg604
g9
((ltRp2028
sg606
S'42601 - NO'
p2029
ssS'7141'
p2030
(dp2031
g601
(lp2032
S'42602 - NO2_._7141'
p2033
asg604
g9
((ltRp2034
sg606
S'42602 - NO2'
p2035
ssS'7142'
p2036
(dp2037
g601
(lp2038
S'44201 - O3_._7142'
p2039
asg604
g9
((ltRp2040
sg606
S'44201 - O3'
p2041
ssS'7143'
p2042
(dp2043
g601
(lp2044
S'81102 - PM10_._7143'
p2045
asg604
g9
((ltRp2046
sg606
S'81102 - PM10'
p2047
ssS'100005'
p2048
(dp2049
g601
(lp2050
S'81104 - PM2.5_._100005'
p2051
asg604
g9
((ltRp2052
sg606
S'81104 - PM2.5'
p2053
ssS'100004'
p2054
(dp2055
g601
(lp2056
S'81104 - PM2.5_._100004'
p2057
asg604
g9
((ltRp2058
sg606
S'81104 - PM2.5'
p2059
ssS'100006'
p2060
(dp2061
g601
(lp2062
S'81104 - PM2.5_._100006'
p2063
asg604
g9
((ltRp2064
sg606
S'81104 - PM2.5'
p2065
ssS'100001'
p2066
(dp2067
g601
(lp2068
S'81104 - PM2.5_._100001'
p2069
asg604
g9
((ltRp2070
sg606
S'81104 - PM2.5'
p2071
ssS'100003'
p2072
(dp2073
g601
(lp2074
S'81104 - PM2.5_._100003'
p2075
asg604
g9
((ltRp2076
sg606
S'81104 - PM2.5'
p2077
ssS'100002'
p2078
(dp2079
g601
(lp2080
S'81104 - PM2.5_._100002'
p2081
asg604
g9
((ltRp2082
sg606
S'81104 - PM2.5'
p2083
ssS'7129'
p2084
(dp2085
g601
(lp2086
S'42101 - CO_._7129'
p2087
asg604
g9
((ltRp2088
sg606
S'42101 - CO'
p2089
ssS'100009'
p2090
(dp2091
g601
(lp2092
S'81104 - PM2.5_._100009'
p2093
asg604
g9
((ltRp2094
sg606
S'81104 - PM2.5'
p2095
ssS'100008'
p2096
(dp2097
g601
(lp2098
S'81104 - PM2.5_._100008'
p2099
asg604
g9
((ltRp2100
sg606
S'81104 - PM2.5'
p2101
ssS'7046'
p2102
(dp2103
g601
(lp2104
S'42601 - NO_._7046'
p2105
asg604
g9
((ltRp2106
sg606
S'42601 - NO'
p2107
ssS'99936'
p2108
(dp2109
g601
(lp2110
S'61102 - DD_._99936'
p2111
asg604
g9
((ltRp2112
sg606
S'61102 - DD'
p2113
ssS'6532'
p2114
(dp2115
g601
(lp2116
S'81104 - PM2.5_._6532'
p2117
asg604
g9
((ltRp2118
sg606
S'81104 - PM2.5'
p2119
ssS'6928'
p2120
(dp2121
g601
(lp2122
S'16111 - Black Carbon_._6928'
p2123
asg604
g9
((ltRp2124
sg606
S'16111 - Black Carbon'
p2125
ssS'6530'
p2126
(dp2127
g601
(lp2128
S'44201 - O3_._6530'
p2129
asg604
g9
((ltRp2130
sg606
S'44201 - O3'
p2131
ssS'6531'
p2132
(dp2133
g601
(lp2134
S'81102 - PM10_._6531'
p2135
asg604
g9
((ltRp2136
sg606
S'81102 - PM10'
p2137
ssS'6925'
p2138
(dp2139
g601
(lp2140
S'44201 - O3_._6925'
p2141
asg604
g9
((ltRp2142
sg606
S'44201 - O3'
p2143
ssS'6924'
p2144
(dp2145
g601
(lp2146
S'42602 - NO2_._6924'
p2147
asg604
g9
((ltRp2148
sg606
S'42602 - NO2'
p2149
ssS'6927'
p2150
(dp2151
g601
(lp2152
S'81104 - PM2.5_._6927'
p2153
asg604
g9
((ltRp2154
sg606
S'81104 - PM2.5'
p2155
ssS'6926'
p2156
(dp2157
g601
(lp2158
S'81102 - PM10_._6926'
p2159
asg604
g9
((ltRp2160
sg606
S'81102 - PM10'
p2161
ssS'6921'
p2162
(dp2163
g601
(lp2164
S'89101 - PM1_._6921'
p2165
asg604
g9
((ltRp2166
sg606
S'89101 - PM1'
p2167
ssS'6920'
p2168
(dp2169
g601
(lp2170
S'81104 - PM2.5_._6920'
p2171
asg604
g9
((ltRp2172
sg606
S'81104 - PM2.5'
p2173
ssS'6923'
p2174
(dp2175
g601
(lp2176
S'42601 - NO_._6923'
p2177
asg604
g9
((ltRp2178
sg606
S'42601 - NO'
p2179
ssS'6284'
p2180
(dp2181
g601
(lp2182
S'45202 - C6H5-CH3_._6284'
p2183
asg604
g9
((ltRp2184
sg606
S'45202 - C6H5-CH3'
p2185
ssS'6285'
p2186
(dp2187
g601
(lp2188
S'45203 - C6H5-C2H5_._6285'
p2189
asg604
g9
((ltRp2190
sg606
S'45203 - C6H5-C2H5'
p2191
ssS'6286'
p2192
(dp2193
g601
(lp2194
S'45204 - o-C6H4-(CH3)2_._6286'
p2195
asg604
g9
((ltRp2196
sg606
S'45204 - o-C6H4-(CH3)2'
p2197
ssS'6280'
p2198
(dp2199
g601
(lp2200
S'42601 - NO_._6280'
p2201
asg604
g9
((ltRp2202
sg606
S'42601 - NO'
p2203
ssS'6281'
p2204
(dp2205
g601
(lp2206
S'42602 - NO2_._6281'
p2207
asg604
g9
((ltRp2208
sg606
S'42602 - NO2'
p2209
ssS'6282'
p2210
(dp2211
g601
(lp2212
S'45109 - m,p-C6H4(CH3)2_._6282'
p2213
asg604
g9
((ltRp2214
sg606
S'45109 - m,p-C6H4(CH3)2'
p2215
ssS'6283'
p2216
(dp2217
g601
(lp2218
S'45201 - C6H6_._6283'
p2219
asg604
g9
((ltRp2220
sg606
S'45201 - C6H6'
p2221
ssS'6368'
p2222
(dp2223
g601
(lp2224
S'81102 - PM10_._6368'
p2225
asg604
g9
((ltRp2226
sg606
S'81102 - PM10'
p2227
ssS'6361'
p2228
(dp2229
g601
(lp2230
S'42602 - NO2_._6361'
p2231
asg604
g9
((ltRp2232
sg606
S'42602 - NO2'
p2233
ssS'6360'
p2234
(dp2235
g601
(lp2236
S'42601 - NO_._6360'
p2237
asg604
g9
((ltRp2238
sg606
S'42601 - NO'
p2239
ssS'7218'
p2240
(dp2241
g601
(lp2242
S'42601 - NO_._7218'
p2243
asg604
g9
((ltRp2244
sg606
S'42601 - NO'
p2245
ssS'7219'
p2246
(dp2247
g601
(lp2248
S'42602 - NO2_._7219'
p2249
asg604
g9
((ltRp2250
sg606
S'42602 - NO2'
p2251
ssS'6407'
p2252
(dp2253
g601
(lp2254
S'42401 - SO2_._6407'
p2255
asg604
g9
((ltRp2256
sg606
S'42401 - SO2'
p2257
ssS'7210'
p2258
(dp2259
g601
(lp2260
S'42602 - NO2_._7210'
p2261
asg604
g9
((ltRp2262
sg606
S'42602 - NO2'
p2263
ssS'7217'
p2264
(dp2265
g601
(lp2266
S'42401 - SO2_._7217'
p2267
asg604
g9
((ltRp2268
sg606
S'42401 - SO2'
p2269
ssS'6217'
p2270
(dp2271
g601
(lp2272
S'42602 - NO2_._6217'
p2273
asg604
g9
((ltRp2274
sg606
S'42602 - NO2'
p2275
ssS'6216'
p2276
(dp2277
g601
(lp2278
S'42601 - NO_._6216'
p2279
asg604
g9
((ltRp2280
sg606
S'42601 - NO'
p2281
ssS'6215'
p2282
(dp2283
g601
(lp2284
S'42401 - SO2_._6215'
p2285
asg604
g9
((ltRp2286
sg606
S'42401 - SO2'
p2287
ssS'6218'
p2288
(dp2289
g601
(lp2290
S'81102 - PM10_._6218'
p2291
asg604
g9
((ltRp2292
sg606
S'81102 - PM10'
p2293
ssS'6813'
p2294
(dp2295
g601
(lp2296
S'42601 - NO_._6813'
p2297
asg604
g9
((ltRp2298
sg606
S'42601 - NO'
p2299
ssS'6812'
p2300
(dp2301
g601
(lp2302
S'42401 - SO2_._6812'
p2303
asg604
g9
((ltRp2304
sg606
S'42401 - SO2'
p2305
ssS'6815'
p2306
(dp2307
g601
(lp2308
S'42401 - SO2_._6815'
p2309
asg604
g9
((ltRp2310
sg606
S'42401 - SO2'
p2311
ssS'6814'
p2312
(dp2313
g601
(lp2314
S'42602 - NO2_._6814'
p2315
asg604
g9
((ltRp2316
sg606
S'42602 - NO2'
p2317
ssS'6817'
p2318
(dp2319
g601
(lp2320
S'42602 - NO2_._6817'
p2321
asg604
g9
((ltRp2322
sg606
S'42602 - NO2'
p2323
ssS'6816'
p2324
(dp2325
g601
(lp2326
S'42601 - NO_._6816'
p2327
asg604
g9
((ltRp2328
sg606
S'42601 - NO'
p2329
ssS'6744'
p2330
(dp2331
g601
(lp2332
S'44201 - O3_._6744'
p2333
asg604
g9
((ltRp2334
sg606
S'44201 - O3'
p2335
ssS'6747'
p2336
(dp2337
g601
(lp2338
S'42602 - NO2_._6747'
p2339
asg604
g9
((ltRp2340
sg606
S'42602 - NO2'
p2341
ssS'6746'
p2342
(dp2343
g601
(lp2344
S'42601 - NO_._6746'
p2345
asg604
g9
((ltRp2346
sg606
S'42601 - NO'
p2347
ssS'6740'
p2348
(dp2349
g601
(lp2350
S'81104 - PM2.5_._6740'
p2351
asg604
g9
((ltRp2352
sg606
S'81104 - PM2.5'
p2353
ssS'6743'
p2354
(dp2355
g601
(lp2356
S'42602 - NO2_._6743'
p2357
asg604
g9
((ltRp2358
sg606
S'42602 - NO2'
p2359
ssS'6742'
p2360
(dp2361
g601
(lp2362
S'42601 - NO_._6742'
p2363
asg604
g9
((ltRp2364
sg606
S'42601 - NO'
p2365
ssS'6626'
p2366
(dp2367
g601
(lp2368
S'81102 - PM10_._6626'
p2369
asg604
g9
((ltRp2370
sg606
S'81102 - PM10'
p2371
ssS'6627'
p2372
(dp2373
g601
(lp2374
S'81104 - PM2.5_._6627'
p2375
asg604
g9
((ltRp2376
sg606
S'81104 - PM2.5'
p2377
ssS'6625'
p2378
(dp2379
g601
(lp2380
S'44201 - O3_._6625'
p2381
asg604
g9
((ltRp2382
sg606
S'44201 - O3'
p2383
ssS'6749'
p2384
(dp2385
g601
(lp2386
S'81102 - PM10_._6749'
p2387
asg604
g9
((ltRp2388
sg606
S'81102 - PM10'
p2389
ssS'6748'
p2390
(dp2391
g601
(lp2392
S'44201 - O3_._6748'
p2393
asg604
g9
((ltRp2394
sg606
S'44201 - O3'
p2395
ssS'6620'
p2396
(dp2397
g601
(lp2398
S'42401 - SO2_._6620'
p2399
asg604
g9
((ltRp2400
sg606
S'42401 - SO2'
p2401
ssS'6621'
p2402
(dp2403
g601
(lp2404
S'42601 - NO_._6621'
p2405
asg604
g9
((ltRp2406
sg606
S'42601 - NO'
p2407
ssS'7120'
p2408
(dp2409
g601
(lp2410
S'42401 - SO2_._7120'
p2411
asg604
g9
((ltRp2412
sg606
S'42401 - SO2'
p2413
ssS'7103'
p2414
(dp2415
g601
(lp2416
S'42401 - SO2_._7103'
p2417
asg604
g9
((ltRp2418
sg606
S'42401 - SO2'
p2419
ssS'6868'
p2420
(dp2421
g601
(lp2422
S'42401 - SO2_._6868'
p2423
asg604
g9
((ltRp2424
sg606
S'42401 - SO2'
p2425
ssS'6869'
p2426
(dp2427
g601
(lp2428
S'42601 - NO_._6869'
p2429
asg604
g9
((ltRp2430
sg606
S'42601 - NO'
p2431
ssS'7106'
p2432
(dp2433
g601
(lp2434
S'81102 - PM10_._7106'
p2435
asg604
g9
((ltRp2436
sg606
S'81102 - PM10'
p2437
ssS'7107'
p2438
(dp2439
g601
(lp2440
S'81104 - PM2.5_._7107'
p2441
asg604
g9
((ltRp2442
sg606
S'81104 - PM2.5'
p2443
ssS'6864'
p2444
(dp2445
g601
(lp2446
S'42401 - SO2_._6864'
p2447
asg604
g9
((ltRp2448
sg606
S'42401 - SO2'
p2449
ssS'6865'
p2450
(dp2451
g601
(lp2452
S'42601 - NO_._6865'
p2453
asg604
g9
((ltRp2454
sg606
S'42601 - NO'
p2455
ssS'6866'
p2456
(dp2457
g601
(lp2458
S'42602 - NO2_._6866'
p2459
asg604
g9
((ltRp2460
sg606
S'42602 - NO2'
p2461
ssS'6860'
p2462
(dp2463
g601
(lp2464
S'42401 - SO2_._6860'
p2465
asg604
g9
((ltRp2466
sg606
S'42401 - SO2'
p2467
ssS'6861'
p2468
(dp2469
g601
(lp2470
S'42601 - NO_._6861'
p2471
asg604
g9
((ltRp2472
sg606
S'42601 - NO'
p2473
ssS'6862'
p2474
(dp2475
g601
(lp2476
S'42602 - NO2_._6862'
p2477
asg604
g9
((ltRp2478
sg606
S'42602 - NO2'
p2479
ssS'7069'
p2480
(dp2481
g601
(lp2482
S'81102 - PM10_._7069'
p2483
asg604
g9
((ltRp2484
sg606
S'81102 - PM10'
p2485
ssS'7068'
p2486
(dp2487
g601
(lp2488
S'44201 - O3_._7068'
p2489
asg604
g9
((ltRp2490
sg606
S'44201 - O3'
p2491
ssS'7067'
p2492
(dp2493
g601
(lp2494
S'42602 - NO2_._7067'
p2495
asg604
g9
((ltRp2496
sg606
S'42602 - NO2'
p2497
ssS'7066'
p2498
(dp2499
g601
(lp2500
S'42601 - NO_._7066'
p2501
asg604
g9
((ltRp2502
sg606
S'42601 - NO'
p2503
ssS'7065'
p2504
(dp2505
g601
(lp2506
S'42401 - SO2_._7065'
p2507
asg604
g9
((ltRp2508
sg606
S'42401 - SO2'
p2509
ssS'7064'
p2510
(dp2511
g601
(lp2512
S'44201 - O3_._7064'
p2513
asg604
g9
((ltRp2514
sg606
S'44201 - O3'
p2515
ssS'7063'
p2516
(dp2517
g601
(lp2518
S'42602 - NO2_._7063'
p2519
asg604
g9
((ltRp2520
sg606
S'42602 - NO2'
p2521
ssS'7062'
p2522
(dp2523
g601
(lp2524
S'42601 - NO_._7062'
p2525
asg604
g9
((ltRp2526
sg606
S'42601 - NO'
p2527
ssS'6961'
p2528
(dp2529
g601
(lp2530
S'42602 - NO2_._6961'
p2531
asg604
g9
((ltRp2532
sg606
S'42602 - NO2'
p2533
ssS'6960'
p2534
(dp2535
g601
(lp2536
S'42601 - NO_._6960'
p2537
asg604
g9
((ltRp2538
sg606
S'42601 - NO'
p2539
ssS'6963'
p2540
(dp2541
g601
(lp2542
S'81102 - PM10_._6963'
p2543
asg604
g9
((ltRp2544
sg606
S'81102 - PM10'
p2545
ssS'6962'
p2546
(dp2547
g601
(lp2548
S'44201 - O3_._6962'
p2549
asg604
g9
((ltRp2550
sg606
S'44201 - O3'
p2551
ssS'6965'
p2552
(dp2553
g601
(lp2554
S'42101 - CO_._6965'
p2555
asg604
g9
((ltRp2556
sg606
S'42101 - CO'
p2557
ssS'6964'
p2558
(dp2559
g601
(lp2560
S'81104 - PM2.5_._6964'
p2561
asg604
g9
((ltRp2562
sg606
S'81104 - PM2.5'
p2563
ssS'6967'
p2564
(dp2565
g601
(lp2566
S'42601 - NO_._6967'
p2567
asg604
g9
((ltRp2568
sg606
S'42601 - NO'
p2569
ssS'6966'
p2570
(dp2571
g601
(lp2572
S'42401 - SO2_._6966'
p2573
asg604
g9
((ltRp2574
sg606
S'42401 - SO2'
p2575
ssS'6969'
p2576
(dp2577
g601
(lp2578
S'44201 - O3_._6969'
p2579
asg604
g9
((ltRp2580
sg606
S'44201 - O3'
p2581
ssS'6968'
p2582
(dp2583
g601
(lp2584
S'42602 - NO2_._6968'
p2585
asg604
g9
((ltRp2586
sg606
S'42602 - NO2'
p2587
ssS'7193'
p2588
(dp2589
g601
(lp2590
S'42401 - SO2_._7193'
p2591
asg604
g9
((ltRp2592
sg606
S'42401 - SO2'
p2593
ssS'7192'
p2594
(dp2595
g601
(lp2596
S'42602 - NO2_._7192'
p2597
asg604
g9
((ltRp2598
sg606
S'42602 - NO2'
p2599
ssS'7191'
p2600
(dp2601
g601
(lp2602
S'42601 - NO_._7191'
p2603
asg604
g9
((ltRp2604
sg606
S'42601 - NO'
p2605
ssS'7195'
p2606
(dp2607
g601
(lp2608
S'42602 - NO2_._7195'
p2609
asg604
g9
((ltRp2610
sg606
S'42602 - NO2'
p2611
ssS'7194'
p2612
(dp2613
g601
(lp2614
S'42601 - NO_._7194'
p2615
asg604
g9
((ltRp2616
sg606
S'42601 - NO'
p2617
ssS'99926'
p2618
(dp2619
g601
(lp2620
S'62101 - TT_._99926'
p2621
asg604
g9
((ltRp2622
sg606
S'62101 - TT'
p2623
ssS'6914'
p2624
(dp2625
g601
(lp2626
S'42101 - CO_._6914'
p2627
asg604
g9
((ltRp2628
sg606
S'42101 - CO'
p2629
ssS'6915'
p2630
(dp2631
g601
(lp2632
S'42401 - SO2_._6915'
p2633
asg604
g9
((ltRp2634
sg606
S'42401 - SO2'
p2635
ssS'6916'
p2636
(dp2637
g601
(lp2638
S'42601 - NO_._6916'
p2639
asg604
g9
((ltRp2640
sg606
S'42601 - NO'
p2641
ssS'6917'
p2642
(dp2643
g601
(lp2644
S'42602 - NO2_._6917'
p2645
asg604
g9
((ltRp2646
sg606
S'42602 - NO2'
p2647
ssS'6910'
p2648
(dp2649
g601
(lp2650
S'89101 - PM1_._6910'
p2651
asg604
g9
((ltRp2652
sg606
S'89101 - PM1'
p2653
ssS'6911'
p2654
(dp2655
g601
(lp2656
S'81102 - PM10_._6911'
p2657
asg604
g9
((ltRp2658
sg606
S'81102 - PM10'
p2659
ssS'6912'
p2660
(dp2661
g601
(lp2662
S'81104 - PM2.5_._6912'
p2663
asg604
g9
((ltRp2664
sg606
S'81104 - PM2.5'
p2665
ssS'6913'
p2666
(dp2667
g601
(lp2668
S'89101 - PM1_._6913'
p2669
asg604
g9
((ltRp2670
sg606
S'89101 - PM1'
p2671
ssS'6918'
p2672
(dp2673
g601
(lp2674
S'44201 - O3_._6918'
p2675
asg604
g9
((ltRp2676
sg606
S'44201 - O3'
p2677
ssS'6919'
p2678
(dp2679
g601
(lp2680
S'81102 - PM10_._6919'
p2681
asg604
g9
((ltRp2682
sg606
S'81102 - PM10'
p2683
ssS'7221'
p2684
(dp2685
g601
(lp2686
S'42601 - NO_._7221'
p2687
asg604
g9
((ltRp2688
sg606
S'42601 - NO'
p2689
ssS'6569'
p2690
(dp2691
g601
(lp2692
S'16111 - Black Carbon_._6569'
p2693
asg604
g9
((ltRp2694
sg606
S'16111 - Black Carbon'
p2695
ssS'99939'
p2696
(dp2697
g601
(lp2698
S'61102 - DD_._99939'
p2699
asg604
g9
((ltRp2700
sg606
S'61102 - DD'
p2701
ssS'7220'
p2702
(dp2703
g601
(lp2704
S'42401 - SO2_._7220'
p2705
asg604
g9
((ltRp2706
sg606
S'42401 - SO2'
p2707
ssS'6564'
p2708
(dp2709
g601
(lp2710
S'81104 - PM2.5_._6564'
p2711
asg604
g9
((ltRp2712
sg606
S'81104 - PM2.5'
p2713
ssS'99938'
p2714
(dp2715
g601
(lp2716
S'62101 - TT_._99938'
p2717
asg604
g9
((ltRp2718
sg606
S'62101 - TT'
p2719
ssS'6561'
p2720
(dp2721
g601
(lp2722
S'42602 - NO2_._6561'
p2723
asg604
g9
((ltRp2724
sg606
S'42602 - NO2'
p2725
ssS'6560'
p2726
(dp2727
g601
(lp2728
S'42601 - NO_._6560'
p2729
asg604
g9
((ltRp2730
sg606
S'42601 - NO'
p2731
ssS'6563'
p2732
(dp2733
g601
(lp2734
S'81102 - PM10_._6563'
p2735
asg604
g9
((ltRp2736
sg606
S'81102 - PM10'
p2737
ssS'6562'
p2738
(dp2739
g601
(lp2740
S'44201 - O3_._6562'
p2741
asg604
g9
((ltRp2742
sg606
S'44201 - O3'
p2743
ssS'10611'
p2744
(dp2745
g601
(lp2746
S'42602 - NO2_._10611'
p2747
asg604
g9
((ltRp2748
sg606
S'42602 - NO2'
p2749
ssS'10610'
p2750
(dp2751
g601
(lp2752
S'81102 - PM10_._10610'
p2753
asg604
g9
((ltRp2754
sg606
S'81102 - PM10'
p2755
ssS'10613'
p2756
(dp2757
g601
(lp2758
S'42601 - NO_._10613'
p2759
asg604
g9
((ltRp2760
sg606
S'42601 - NO'
p2761
ssS'10612'
p2762
(dp2763
g601
(lp2764
S'42601 - NO_._10612'
p2765
asg604
g9
((ltRp2766
sg606
S'42601 - NO'
p2767
ssS'10615'
p2768
(dp2769
g601
(lp2770
S'42401 - SO2_._10615'
p2771
asg604
g9
((ltRp2772
sg606
S'42401 - SO2'
p2773
ssS'10614'
p2774
(dp2775
g601
(lp2776
S'42602 - NO2_._10614'
p2777
asg604
g9
((ltRp2778
sg606
S'42602 - NO2'
p2779
ssS'10616'
p2780
(dp2781
g601
(lp2782
S'42101 - CO_._10616'
p2783
asg604
g9
((ltRp2784
sg606
S'42101 - CO'
p2785
ssS'99935'
p2786
(dp2787
g601
(lp2788
S'62101 - TT_._99935'
p2789
asg604
g9
((ltRp2790
sg606
S'62101 - TT'
p2791
ssS'7115'
p2792
(dp2793
g601
(lp2794
S'44201 - O3_._7115'
p2795
asg604
g9
((ltRp2796
sg606
S'44201 - O3'
p2797
ssS'6709'
p2798
(dp2799
g601
(lp2800
S'42601 - NO_._6709'
p2801
asg604
g9
((ltRp2802
sg606
S'42601 - NO'
p2803
ssS'7229'
p2804
(dp2805
g601
(lp2806
S'42401 - SO2_._7229'
p2807
asg604
g9
((ltRp2808
sg606
S'42401 - SO2'
p2809
ssS'99931'
p2810
(dp2811
g601
(lp2812
S'61110 - WSP-SCA_._99931'
p2813
asg604
g9
((ltRp2814
sg606
S'61110 - WSP-SCA'
p2815
ssS'7228'
p2816
(dp2817
g601
(lp2818
S'42602 - NO2_._7228'
p2819
asg604
g9
((ltRp2820
sg606
S'42602 - NO2'
p2821
ssS'6701'
p2822
(dp2823
g601
(lp2824
S'42601 - NO_._6701'
p2825
asg604
g9
((ltRp2826
sg606
S'42601 - NO'
p2827
ssS'6700'
p2828
(dp2829
g601
(lp2830
S'42401 - SO2_._6700'
p2831
asg604
g9
((ltRp2832
sg606
S'42401 - SO2'
p2833
ssS'6703'
p2834
(dp2835
g601
(lp2836
S'44201 - O3_._6703'
p2837
asg604
g9
((ltRp2838
sg606
S'44201 - O3'
p2839
ssS'6702'
p2840
(dp2841
g601
(lp2842
S'42602 - NO2_._6702'
p2843
asg604
g9
((ltRp2844
sg606
S'42602 - NO2'
p2845
ssS'6704'
p2846
(dp2847
g601
(lp2848
S'81102 - PM10_._6704'
p2849
asg604
g9
((ltRp2850
sg606
S'81102 - PM10'
p2851
ssS'6824'
p2852
(dp2853
g601
(lp2854
S'42401 - SO2_._6824'
p2855
asg604
g9
((ltRp2856
sg606
S'42401 - SO2'
p2857
ssS'6825'
p2858
(dp2859
g601
(lp2860
S'42601 - NO_._6825'
p2861
asg604
g9
((ltRp2862
sg606
S'42601 - NO'
p2863
ssS'6826'
p2864
(dp2865
g601
(lp2866
S'42602 - NO2_._6826'
p2867
asg604
g9
((ltRp2868
sg606
S'42602 - NO2'
p2869
ssS'6828'
p2870
(dp2871
g601
(lp2872
S'42401 - SO2_._6828'
p2873
asg604
g9
((ltRp2874
sg606
S'42401 - SO2'
p2875
ssS'6829'
p2876
(dp2877
g601
(lp2878
S'42601 - NO_._6829'
p2879
asg604
g9
((ltRp2880
sg606
S'42601 - NO'
p2881
ssS'6675'
p2882
(dp2883
g601
(lp2884
S'45204 - o-C6H4-(CH3)2_._6675'
p2885
asg604
g9
((ltRp2886
sg606
S'45204 - o-C6H4-(CH3)2'
p2887
ssS'6674'
p2888
(dp2889
g601
(lp2890
S'45203 - C6H5-C2H5_._6674'
p2891
asg604
g9
((ltRp2892
sg606
S'45203 - C6H5-C2H5'
p2893
ssS'7021'
p2894
(dp2895
g601
(lp2896
S'81102 - PM10_._7021'
p2897
asg604
g9
((ltRp2898
sg606
S'81102 - PM10'
p2899
ssS'7020'
p2900
(dp2901
g601
(lp2902
S'44201 - O3_._7020'
p2903
asg604
g9
((ltRp2904
sg606
S'44201 - O3'
p2905
ssS'6671'
p2906
(dp2907
g601
(lp2908
S'45109 - m,p-C6H4(CH3)2_._6671'
p2909
asg604
g9
((ltRp2910
sg606
S'45109 - m,p-C6H4(CH3)2'
p2911
ssS'7026'
p2912
(dp2913
g601
(lp2914
S'42602 - NO2_._7026'
p2915
asg604
g9
((ltRp2916
sg606
S'42602 - NO2'
p2917
ssS'6673'
p2918
(dp2919
g601
(lp2920
S'45202 - C6H5-CH3_._6673'
p2921
asg604
g9
((ltRp2922
sg606
S'45202 - C6H5-CH3'
p2923
ssS'6672'
p2924
(dp2925
g601
(lp2926
S'45201 - C6H6_._6672'
p2927
asg604
g9
((ltRp2928
sg606
S'45201 - C6H6'
p2929
ssS'7029'
p2930
(dp2931
g601
(lp2932
S'16111 - Black Carbon_._7029'
p2933
asg604
g9
((ltRp2934
sg606
S'16111 - Black Carbon'
p2935
ssS'7023'
p2936
(dp2937
g601
(lp2938
S'89101 - PM1_._7023'
p2939
asg604
g9
((ltRp2940
sg606
S'89101 - PM1'
p2941
ssS'6778'
p2942
(dp2943
g601
(lp2944
S'44201 - O3_._6778'
p2945
asg604
g9
((ltRp2946
sg606
S'44201 - O3'
p2947
ssS'6779'
p2948
(dp2949
g601
(lp2950
S'45109 - m,p-C6H4(CH3)2_._6779'
p2951
asg604
g9
((ltRp2952
sg606
S'45109 - m,p-C6H4(CH3)2'
p2953
ssS'7022'
p2954
(dp2955
g601
(lp2956
S'81104 - PM2.5_._7022'
p2957
asg604
g9
((ltRp2958
sg606
S'81104 - PM2.5'
p2959
ssS'6774'
p2960
(dp2961
g601
(lp2962
S'42401 - SO2_._6774'
p2963
asg604
g9
((ltRp2964
sg606
S'42401 - SO2'
p2965
ssS'6775'
p2966
(dp2967
g601
(lp2968
S'42601 - NO_._6775'
p2969
asg604
g9
((ltRp2970
sg606
S'42601 - NO'
p2971
ssS'6776'
p2972
(dp2973
g601
(lp2974
S'42602 - NO2_._6776'
p2975
asg604
g9
((ltRp2976
sg606
S'42602 - NO2'
p2977
ssS'6771'
p2978
(dp2979
g601
(lp2980
S'81102 - PM10_._6771'
p2981
asg604
g9
((ltRp2982
sg606
S'81102 - PM10'
p2983
ssS'6773'
p2984
(dp2985
g601
(lp2986
S'42101 - CO_._6773'
p2987
asg604
g9
((ltRp2988
sg606
S'42101 - CO'
p2989
ssS'7025'
p2990
(dp2991
g601
(lp2992
S'42601 - NO_._7025'
p2993
asg604
g9
((ltRp2994
sg606
S'42601 - NO'
p2995
ssS'7054'
p2996
(dp2997
g601
(lp2998
S'81102 - PM10_._7054'
p2999
asg604
g9
((ltRp3000
sg606
S'81102 - PM10'
p3001
ssS'7055'
p3002
(dp3003
g601
(lp3004
S'81104 - PM2.5_._7055'
p3005
asg604
g9
((ltRp3006
sg606
S'81104 - PM2.5'
p3007
ssS'7096'
p3008
(dp3009
g601
(lp3010
S'42601 - NO_._7096'
p3011
asg604
g9
((ltRp3012
sg606
S'42601 - NO'
p3013
ssS'7097'
p3014
(dp3015
g601
(lp3016
S'42602 - NO2_._7097'
p3017
asg604
g9
((ltRp3018
sg606
S'42602 - NO2'
p3019
ssS'99900'
p3020
(dp3021
g601
(lp3022
S'61102 - DD_._99900'
p3023
asg604
g9
((ltRp3024
sg606
S'61102 - DD'
p3025
ssS'7095'
p3026
(dp3027
g601
(lp3028
S'42401 - SO2_._7095'
p3029
asg604
g9
((ltRp3030
sg606
S'42401 - SO2'
p3031
ssS'7092'
p3032
(dp3033
g601
(lp3034
S'81102 - PM10_._7092'
p3035
asg604
g9
((ltRp3036
sg606
S'81102 - PM10'
p3037
ssS'99907'
p3038
(dp3039
g601
(lp3040
S'61110 - WSP-SCA_._99907'
p3041
asg604
g9
((ltRp3042
sg606
S'61110 - WSP-SCA'
p3043
ssS'7090'
p3044
(dp3045
g601
(lp3046
S'42602 - NO2_._7090'
p3047
asg604
g9
((ltRp3048
sg606
S'42602 - NO2'
p3049
ssS'7091'
p3050
(dp3051
g601
(lp3052
S'44201 - O3_._7091'
p3053
asg604
g9
((ltRp3054
sg606
S'44201 - O3'
p3055
ssS'7157'
p3056
(dp3057
g601
(lp3058
S'42101 - CO_._7157'
p3059
asg604
g9
((ltRp3060
sg606
S'42101 - CO'
p3061
ssS'7155'
p3062
(dp3063
g601
(lp3064
S'16111 - Black Carbon_._7155'
p3065
asg604
g9
((ltRp3066
sg606
S'16111 - Black Carbon'
p3067
ssS'99909'
p3068
(dp3069
g601
(lp3070
S'61102 - DD_._99909'
p3071
asg604
g9
((ltRp3072
sg606
S'61102 - DD'
p3073
ssS'7153'
p3074
(dp3075
g601
(lp3076
S'89101 - PM1_._7153'
p3077
asg604
g9
((ltRp3078
sg606
S'89101 - PM1'
p3079
ssS'7152'
p3080
(dp3081
g601
(lp3082
S'81104 - PM2.5_._7152'
p3083
asg604
g9
((ltRp3084
sg606
S'81104 - PM2.5'
p3085
ssS'7151'
p3086
(dp3087
g601
(lp3088
S'81102 - PM10_._7151'
p3089
asg604
g9
((ltRp3090
sg606
S'81102 - PM10'
p3091
ssS'6688'
p3092
(dp3093
g601
(lp3094
S'42401 - SO2_._6688'
p3095
asg604
g9
((ltRp3096
sg606
S'42401 - SO2'
p3097
ssS'6689'
p3098
(dp3099
g601
(lp3100
S'42601 - NO_._6689'
p3101
asg604
g9
((ltRp3102
sg606
S'42601 - NO'
p3103
ssS'6687'
p3104
(dp3105
g601
(lp3106
S'16111 - Black Carbon_._6687'
p3107
asg604
g9
((ltRp3108
sg606
S'16111 - Black Carbon'
p3109
ssS'99905'
p3110
(dp3111
g601
(lp3112
S'62101 - TT_._99905'
p3113
asg604
g9
((ltRp3114
sg606
S'62101 - TT'
p3115
ssS'6509'
p3116
(dp3117
g601
(lp3118
S'44201 - O3_._6509'
p3119
asg604
g9
((ltRp3120
sg606
S'44201 - O3'
p3121
ssS'6521'
p3122
(dp3123
g601
(lp3124
S'45203 - C6H5-C2H5_._6521'
p3125
asg604
g9
((ltRp3126
sg606
S'45203 - C6H5-C2H5'
p3127
ssS'6520'
p3128
(dp3129
g601
(lp3130
S'45202 - C6H5-CH3_._6520'
p3131
asg604
g9
((ltRp3132
sg606
S'45202 - C6H5-CH3'
p3133
ssS'6488'
p3134
(dp3135
g601
(lp3136
S'45202 - C6H5-CH3_._6488'
p3137
asg604
g9
((ltRp3138
sg606
S'45202 - C6H5-CH3'
p3139
ssS'6522'
p3140
(dp3141
g601
(lp3142
S'45204 - o-C6H4-(CH3)2_._6522'
p3143
asg604
g9
((ltRp3144
sg606
S'45204 - o-C6H4-(CH3)2'
p3145
ssS'6527'
p3146
(dp3147
g601
(lp3148
S'42601 - NO_._6527'
p3149
asg604
g9
((ltRp3150
sg606
S'42601 - NO'
p3151
ssS'6950'
p3152
(dp3153
g601
(lp3154
S'81102 - PM10_._6950'
p3155
asg604
g9
((ltRp3156
sg606
S'81102 - PM10'
p3157
ssS'6528'
p3158
(dp3159
g601
(lp3160
S'42602 - NO2_._6528'
p3161
asg604
g9
((ltRp3162
sg606
S'42602 - NO2'
p3163
ssS'6952'
p3164
(dp3165
g601
(lp3166
S'89101 - PM1_._6952'
p3167
asg604
g9
((ltRp3168
sg606
S'89101 - PM1'
p3169
ssS'6486'
p3170
(dp3171
g601
(lp3172
S'45109 - m,p-C6H4(CH3)2_._6486'
p3173
asg604
g9
((ltRp3174
sg606
S'45109 - m,p-C6H4(CH3)2'
p3175
ssS'6487'
p3176
(dp3177
g601
(lp3178
S'45201 - C6H6_._6487'
p3179
asg604
g9
((ltRp3180
sg606
S'45201 - C6H6'
p3181
ssS'6956'
p3182
(dp3183
g601
(lp3184
S'44201 - O3_._6956'
p3185
asg604
g9
((ltRp3186
sg606
S'44201 - O3'
p3187
ssS'6957'
p3188
(dp3189
g601
(lp3190
S'81102 - PM10_._6957'
p3191
asg604
g9
((ltRp3192
sg606
S'81102 - PM10'
p3193
ssS'6356'
p3194
(dp3195
g601
(lp3196
S'81104 - PM2.5_._6356'
p3197
asg604
g9
((ltRp3198
sg606
S'81104 - PM2.5'
p3199
ssS'6196'
p3200
(dp3201
g601
(lp3202
S'81102 - PM10_._6196'
p3203
asg604
g9
((ltRp3204
sg606
S'81102 - PM10'
p3205
ssS'6198'
p3206
(dp3207
g601
(lp3208
S'42401 - SO2_._6198'
p3209
asg604
g9
((ltRp3210
sg606
S'42401 - SO2'
p3211
ssS'6199'
p3212
(dp3213
g601
(lp3214
S'42601 - NO_._6199'
p3215
asg604
g9
((ltRp3216
sg606
S'42601 - NO'
p3217
ssS'7148'
p3218
(dp3219
g601
(lp3220
S'81102 - PM10_._7148'
p3221
asg604
g9
((ltRp3222
sg606
S'81102 - PM10'
p3223
ssS'6951'
p3224
(dp3225
g601
(lp3226
S'81104 - PM2.5_._6951'
p3227
asg604
g9
((ltRp3228
sg606
S'81104 - PM2.5'
p3229
ssS'7209'
p3230
(dp3231
g601
(lp3232
S'42601 - NO_._7209'
p3233
asg604
g9
((ltRp3234
sg606
S'42601 - NO'
p3235
ssS'7208'
p3236
(dp3237
g601
(lp3238
S'42401 - SO2_._7208'
p3239
asg604
g9
((ltRp3240
sg606
S'42401 - SO2'
p3241
ssS'6550'
p3242
(dp3243
g601
(lp3244
S'42601 - NO_._6550'
p3245
asg604
g9
((ltRp3246
sg606
S'42601 - NO'
p3247
ssS'6551'
p3248
(dp3249
g601
(lp3250
S'42602 - NO2_._6551'
p3251
asg604
g9
((ltRp3252
sg606
S'42602 - NO2'
p3253
ssS'6552'
p3254
(dp3255
g601
(lp3256
S'81102 - PM10_._6552'
p3257
asg604
g9
((ltRp3258
sg606
S'81102 - PM10'
p3259
ssS'6553'
p3260
(dp3261
g601
(lp3262
S'81104 - PM2.5_._6553'
p3263
asg604
g9
((ltRp3264
sg606
S'81104 - PM2.5'
p3265
ssS'7203'
p3266
(dp3267
g601
(lp3268
S'42601 - NO_._7203'
p3269
asg604
g9
((ltRp3270
sg606
S'42601 - NO'
p3271
ssS'6622'
p3272
(dp3273
g601
(lp3274
S'42602 - NO2_._6622'
p3275
asg604
g9
((ltRp3276
sg606
S'42602 - NO2'
p3277
ssS'7201'
p3278
(dp3279
g601
(lp3280
S'42602 - NO2_._7201'
p3281
asg604
g9
((ltRp3282
sg606
S'42602 - NO2'
p3283
ssS'7200'
p3284
(dp3285
g601
(lp3286
S'42601 - NO_._7200'
p3287
asg604
g9
((ltRp3288
sg606
S'42601 - NO'
p3289
ssS'6558'
p3290
(dp3291
g601
(lp3292
S'42101 - CO_._6558'
p3293
asg604
g9
((ltRp3294
sg606
S'42101 - CO'
p3295
ssS'6559'
p3296
(dp3297
g601
(lp3298
S'42401 - SO2_._6559'
p3299
asg604
g9
((ltRp3300
sg606
S'42401 - SO2'
p3301
ssS'7204'
p3302
(dp3303
g601
(lp3304
S'42602 - NO2_._7204'
p3305
asg604
g9
((ltRp3306
sg606
S'42602 - NO2'
p3307
ssS'7119'
p3308
(dp3309
g601
(lp3310
S'42101 - CO_._7119'
p3311
asg604
g9
((ltRp3312
sg606
S'42101 - CO'
p3313
ssS'6639'
p3314
(dp3315
g601
(lp3316
S'42602 - NO2_._6639'
p3317
asg604
g9
((ltRp3318
sg606
S'42602 - NO2'
p3319
ssS'6731'
p3320
(dp3321
g601
(lp3322
S'44201 - O3_._6731'
p3323
asg604
g9
((ltRp3324
sg606
S'44201 - O3'
p3325
ssS'6732'
p3326
(dp3327
g601
(lp3328
S'45109 - m,p-C6H4(CH3)2_._6732'
p3329
asg604
g9
((ltRp3330
sg606
S'45109 - m,p-C6H4(CH3)2'
p3331
ssS'6733'
p3332
(dp3333
g601
(lp3334
S'45201 - C6H6_._6733'
p3335
asg604
g9
((ltRp3336
sg606
S'45201 - C6H6'
p3337
ssS'6734'
p3338
(dp3339
g601
(lp3340
S'45202 - C6H5-CH3_._6734'
p3341
asg604
g9
((ltRp3342
sg606
S'45202 - C6H5-CH3'
p3343
ssS'6735'
p3344
(dp3345
g601
(lp3346
S'45203 - C6H5-C2H5_._6735'
p3347
asg604
g9
((ltRp3348
sg606
S'45203 - C6H5-C2H5'
p3349
ssS'6736'
p3350
(dp3351
g601
(lp3352
S'45204 - o-C6H4-(CH3)2_._6736'
p3353
asg604
g9
((ltRp3354
sg606
S'45204 - o-C6H4-(CH3)2'
p3355
ssS'6739'
p3356
(dp3357
g601
(lp3358
S'81102 - PM10_._6739'
p3359
asg604
g9
((ltRp3360
sg606
S'81102 - PM10'
p3361
ssS'6633'
p3362
(dp3363
g601
(lp3364
S'16111 - Black Carbon_._6633'
p3365
asg604
g9
((ltRp3366
sg606
S'16111 - Black Carbon'
p3367
ssS'6635'
p3368
(dp3369
g601
(lp3370
S'42101 - CO_._6635'
p3371
asg604
g9
((ltRp3372
sg606
S'42101 - CO'
p3373
ssS'6637'
p3374
(dp3375
g601
(lp3376
S'42401 - SO2_._6637'
p3377
asg604
g9
((ltRp3378
sg606
S'42401 - SO2'
p3379
ssS'6636'
p3380
(dp3381
g601
(lp3382
S'42102 - CO2_._6636'
p3383
asg604
g9
((ltRp3384
sg606
S'42102 - CO2'
p3385
ssS'7111'
p3386
(dp3387
g601
(lp3388
S'42602 - NO2_._7111'
p3389
asg604
g9
((ltRp3390
sg606
S'42602 - NO2'
p3391
ssS'7110'
p3392
(dp3393
g601
(lp3394
S'42601 - NO_._7110'
p3395
asg604
g9
((ltRp3396
sg606
S'42601 - NO'
p3397
ssS'7117'
p3398
(dp3399
g601
(lp3400
S'81102 - PM10_._7117'
p3401
asg604
g9
((ltRp3402
sg606
S'81102 - PM10'
p3403
ssS'6879'
p3404
(dp3405
g601
(lp3406
S'42401 - SO2_._6879'
p3407
asg604
g9
((ltRp3408
sg606
S'42401 - SO2'
p3409
ssS'6875'
p3410
(dp3411
g601
(lp3412
S'42602 - NO2_._6875'
p3413
asg604
g9
((ltRp3414
sg606
S'42602 - NO2'
p3415
ssS'6874'
p3416
(dp3417
g601
(lp3418
S'42601 - NO_._6874'
p3419
asg604
g9
((ltRp3420
sg606
S'42601 - NO'
p3421
ssS'6873'
p3422
(dp3423
g601
(lp3424
S'42401 - SO2_._6873'
p3425
asg604
g9
((ltRp3426
sg606
S'42401 - SO2'
p3427
ssS'6870'
p3428
(dp3429
g601
(lp3430
S'42602 - NO2_._6870'
p3431
asg604
g9
((ltRp3432
sg606
S'42602 - NO2'
p3433
ssS'7052'
p3434
(dp3435
g601
(lp3436
S'45203 - C6H5-C2H5_._7052'
p3437
asg604
g9
((ltRp3438
sg606
S'45203 - C6H5-C2H5'
p3439
ssS'7053'
p3440
(dp3441
g601
(lp3442
S'45204 - o-C6H4-(CH3)2_._7053'
p3443
asg604
g9
((ltRp3444
sg606
S'45204 - o-C6H4-(CH3)2'
p3445
ssS'7050'
p3446
(dp3447
g601
(lp3448
S'45201 - C6H6_._7050'
p3449
asg604
g9
((ltRp3450
sg606
S'45201 - C6H6'
p3451
ssS'7051'
p3452
(dp3453
g601
(lp3454
S'45202 - C6H5-CH3_._7051'
p3455
asg604
g9
((ltRp3456
sg606
S'45202 - C6H5-CH3'
p3457
ssS'6642'
p3458
(dp3459
g601
(lp3460
S'44201 - O3_._6642'
p3461
asg604
g9
((ltRp3462
sg606
S'44201 - O3'
p3463
ssS'6643'
p3464
(dp3465
g601
(lp3466
S'81102 - PM10_._6643'
p3467
asg604
g9
((ltRp3468
sg606
S'81102 - PM10'
p3469
ssS'7125'
p3470
(dp3471
g601
(lp3472
S'81102 - PM10_._7125'
p3473
asg604
g9
((ltRp3474
sg606
S'81102 - PM10'
p3475
ssS'6998'
p3476
(dp3477
g601
(lp3478
S'42602 - NO2_._6998'
p3479
asg604
g9
((ltRp3480
sg606
S'42602 - NO2'
p3481
ssS'6999'
p3482
(dp3483
g601
(lp3484
S'44201 - O3_._6999'
p3485
asg604
g9
((ltRp3486
sg606
S'44201 - O3'
p3487
ssS'6994'
p3488
(dp3489
g601
(lp3490
S'81104 - PM2.5_._6994'
p3491
asg604
g9
((ltRp3492
sg606
S'81104 - PM2.5'
p3493
ssS'6995'
p3494
(dp3495
g601
(lp3496
S'42101 - CO_._6995'
p3497
asg604
g9
((ltRp3498
sg606
S'42101 - CO'
p3499
ssS'6996'
p3500
(dp3501
g601
(lp3502
S'42401 - SO2_._6996'
p3503
asg604
g9
((ltRp3504
sg606
S'42401 - SO2'
p3505
ssS'6997'
p3506
(dp3507
g601
(lp3508
S'42601 - NO_._6997'
p3509
asg604
g9
((ltRp3510
sg606
S'42601 - NO'
p3511
ssS'6990'
p3512
(dp3513
g601
(lp3514
S'42401 - SO2_._6990'
p3515
asg604
g9
((ltRp3516
sg606
S'42401 - SO2'
p3517
ssS'6993'
p3518
(dp3519
g601
(lp3520
S'81102 - PM10_._6993'
p3521
asg604
g9
((ltRp3522
sg606
S'81102 - PM10'
p3523
ssS'6392'
p3524
(dp3525
g601
(lp3526
S'45201 - C6H6_._6392'
p3527
asg604
g9
((ltRp3528
sg606
S'45201 - C6H6'
p3529
ssS'6393'
p3530
(dp3531
g601
(lp3532
S'45202 - C6H5-CH3_._6393'
p3533
asg604
g9
((ltRp3534
sg606
S'45202 - C6H5-CH3'
p3535
ssS'6391'
p3536
(dp3537
g601
(lp3538
S'45109 - m,p-C6H4(CH3)2_._6391'
p3539
asg604
g9
((ltRp3540
sg606
S'45109 - m,p-C6H4(CH3)2'
p3541
ssS'6394'
p3542
(dp3543
g601
(lp3544
S'45203 - C6H5-C2H5_._6394'
p3545
asg604
g9
((ltRp3546
sg606
S'45203 - C6H5-C2H5'
p3547
ssS'6395'
p3548
(dp3549
g601
(lp3550
S'45204 - o-C6H4-(CH3)2_._6395'
p3551
asg604
g9
((ltRp3552
sg606
S'45204 - o-C6H4-(CH3)2'
p3553
ssS'10739'
p3554
(dp3555
g601
(lp3556
S'42101 - CO_._10739'
p3557
asg604
g9
((ltRp3558
sg606
S'42101 - CO'
p3559
ssS'6907'
p3560
(dp3561
g601
(lp3562
S'44201 - O3_._6907'
p3563
asg604
g9
((ltRp3564
sg606
S'44201 - O3'
p3565
ssS'6906'
p3566
(dp3567
g601
(lp3568
S'42602 - NO2_._6906'
p3569
asg604
g9
((ltRp3570
sg606
S'42602 - NO2'
p3571
ssS'6905'
p3572
(dp3573
g601
(lp3574
S'42601 - NO_._6905'
p3575
asg604
g9
((ltRp3576
sg606
S'42601 - NO'
p3577
ssS'6904'
p3578
(dp3579
g601
(lp3580
S'42401 - SO2_._6904'
p3581
asg604
g9
((ltRp3582
sg606
S'42401 - SO2'
p3583
ssS'6902'
p3584
(dp3585
g601
(lp3586
S'89101 - PM1_._6902'
p3587
asg604
g9
((ltRp3588
sg606
S'89101 - PM1'
p3589
ssS'6901'
p3590
(dp3591
g601
(lp3592
S'81104 - PM2.5_._6901'
p3593
asg604
g9
((ltRp3594
sg606
S'81104 - PM2.5'
p3595
ssS'6900'
p3596
(dp3597
g601
(lp3598
S'81102 - PM10_._6900'
p3599
asg604
g9
((ltRp3600
sg606
S'81102 - PM10'
p3601
ssS'6909'
p3602
(dp3603
g601
(lp3604
S'81104 - PM2.5_._6909'
p3605
asg604
g9
((ltRp3606
sg606
S'81104 - PM2.5'
p3607
ssS'6908'
p3608
(dp3609
g601
(lp3610
S'81102 - PM10_._6908'
p3611
asg604
g9
((ltRp3612
sg606
S'81102 - PM10'
p3613
ssS'6518'
p3614
(dp3615
g601
(lp3616
S'45109 - m,p-C6H4(CH3)2_._6518'
p3617
asg604
g9
((ltRp3618
sg606
S'45109 - m,p-C6H4(CH3)2'
p3619
ssS'6519'
p3620
(dp3621
g601
(lp3622
S'45201 - C6H6_._6519'
p3623
asg604
g9
((ltRp3624
sg606
S'45201 - C6H6'
p3625
ssS'6514'
p3626
(dp3627
g601
(lp3628
S'42101 - CO_._6514'
p3629
asg604
g9
((ltRp3630
sg606
S'42101 - CO'
p3631
ssS'6515'
p3632
(dp3633
g601
(lp3634
S'42601 - NO_._6515'
p3635
asg604
g9
((ltRp3636
sg606
S'42601 - NO'
p3637
ssS'6516'
p3638
(dp3639
g601
(lp3640
S'42602 - NO2_._6516'
p3641
asg604
g9
((ltRp3642
sg606
S'42602 - NO2'
p3643
ssS'6517'
p3644
(dp3645
g601
(lp3646
S'44201 - O3_._6517'
p3647
asg604
g9
((ltRp3648
sg606
S'44201 - O3'
p3649
ssS'10602'
p3650
(dp3651
g601
(lp3652
S'16111 - Black Carbon_._10602'
p3653
asg604
g9
((ltRp3654
sg606
S'16111 - Black Carbon'
p3655
ssS'10603'
p3656
(dp3657
g601
(lp3658
S'16111 - Black Carbon_._10603'
p3659
asg604
g9
((ltRp3660
sg606
S'16111 - Black Carbon'
p3661
ssS'10600'
p3662
(dp3663
g601
(lp3664
S'81102 - PM10_._10600'
p3665
asg604
g9
((ltRp3666
sg606
S'81102 - PM10'
p3667
ssS'10601'
p3668
(dp3669
g601
(lp3670
S'42602 - NO2_._10601'
p3671
asg604
g9
((ltRp3672
sg606
S'42602 - NO2'
p3673
ssS'10606'
p3674
(dp3675
g601
(lp3676
S'16111 - Black Carbon_._10606'
p3677
asg604
g9
((ltRp3678
sg606
S'16111 - Black Carbon'
p3679
ssS'10607'
p3680
(dp3681
g601
(lp3682
S'16111 - Black Carbon_._10607'
p3683
asg604
g9
((ltRp3684
sg606
S'16111 - Black Carbon'
p3685
ssS'10604'
p3686
(dp3687
g601
(lp3688
S'16111 - Black Carbon_._10604'
p3689
asg604
g9
((ltRp3690
sg606
S'16111 - Black Carbon'
p3691
ssS'10605'
p3692
(dp3693
g601
(lp3694
S'16111 - Black Carbon_._10605'
p3695
asg604
g9
((ltRp3696
sg606
S'16111 - Black Carbon'
p3697
ssS'10608'
p3698
(dp3699
g601
(lp3700
S'16111 - Black Carbon_._10608'
p3701
asg604
g9
((ltRp3702
sg606
S'16111 - Black Carbon'
p3703
ssS'10609'
p3704
(dp3705
g601
(lp3706
S'16111 - Black Carbon_._10609'
p3707
asg604
g9
((ltRp3708
sg606
S'16111 - Black Carbon'
p3709
ssS'6301'
p3710
(dp3711
g601
(lp3712
S'81102 - PM10_._6301'
p3713
asg604
g9
((ltRp3714
sg606
S'81102 - PM10'
p3715
ssS'99902'
p3716
(dp3717
g601
(lp3718
S'62101 - TT_._99902'
p3719
asg604
g9
((ltRp3720
sg606
S'62101 - TT'
p3721
ssS'99903'
p3722
(dp3723
g601
(lp3724
S'61102 - DD_._99903'
p3725
asg604
g9
((ltRp3726
sg606
S'61102 - DD'
p3727
ssS'99901'
p3728
(dp3729
g601
(lp3730
S'61110 - WSP-SCA_._99901'
p3731
asg604
g9
((ltRp3732
sg606
S'61110 - WSP-SCA'
p3733
ssS'99906'
p3734
(dp3735
g601
(lp3736
S'61102 - DD_._99906'
p3737
asg604
g9
((ltRp3738
sg606
S'61102 - DD'
p3739
ssS'7159'
p3740
(dp3741
g601
(lp3742
S'42601 - NO_._7159'
p3743
asg604
g9
((ltRp3744
sg606
S'42601 - NO'
p3745
ssS'7158'
p3746
(dp3747
g601
(lp3748
S'42401 - SO2_._7158'
p3749
asg604
g9
((ltRp3750
sg606
S'42401 - SO2'
p3751
ssS'7104'
p3752
(dp3753
g601
(lp3754
S'42601 - NO_._7104'
p3755
asg604
g9
((ltRp3756
sg606
S'42601 - NO'
p3757
ssS'99908'
p3758
(dp3759
g601
(lp3760
S'62101 - TT_._99908'
p3761
asg604
g9
((ltRp3762
sg606
S'62101 - TT'
p3763
ssS'7105'
p3764
(dp3765
g601
(lp3766
S'42602 - NO2_._7105'
p3767
asg604
g9
((ltRp3768
sg606
S'42602 - NO2'
p3769
ssS'6832'
p3770
(dp3771
g601
(lp3772
S'44201 - O3_._6832'
p3773
asg604
g9
((ltRp3774
sg606
S'44201 - O3'
p3775
ssS'6830'
p3776
(dp3777
g601
(lp3778
S'42602 - NO2_._6830'
p3779
asg604
g9
((ltRp3780
sg606
S'42602 - NO2'
p3781
ssS'7109'
p3782
(dp3783
g601
(lp3784
S'42401 - SO2_._7109'
p3785
asg604
g9
((ltRp3786
sg606
S'42401 - SO2'
p3787
ssS'7016'
p3788
(dp3789
g601
(lp3790
S'42601 - NO_._7016'
p3791
asg604
g9
((ltRp3792
sg606
S'42601 - NO'
p3793
ssS'6609'
p3794
(dp3795
g601
(lp3796
S'16111 - Black Carbon_._6609'
p3797
asg604
g9
((ltRp3798
sg606
S'16111 - Black Carbon'
p3799
ssS'7014'
p3800
(dp3801
g601
(lp3802
S'42401 - SO2_._7014'
p3803
asg604
g9
((ltRp3804
sg606
S'42401 - SO2'
p3805
ssS'7010'
p3806
(dp3807
g601
(lp3808
S'89101 - PM1_._7010'
p3809
asg604
g9
((ltRp3810
sg606
S'89101 - PM1'
p3811
ssS'6769'
p3812
(dp3813
g601
(lp3814
S'42602 - NO2_._6769'
p3815
asg604
g9
((ltRp3816
sg606
S'42602 - NO2'
p3817
ssS'6768'
p3818
(dp3819
g601
(lp3820
S'42601 - NO_._6768'
p3821
asg604
g9
((ltRp3822
sg606
S'42601 - NO'
p3823
ssS'6767'
p3824
(dp3825
g601
(lp3826
S'42401 - SO2_._6767'
p3827
asg604
g9
((ltRp3828
sg606
S'42401 - SO2'
p3829
ssS'6766'
p3830
(dp3831
g601
(lp3832
S'42101 - CO_._6766'
p3833
asg604
g9
((ltRp3834
sg606
S'42101 - CO'
p3835
ssS'7162'
p3836
(dp3837
g601
(lp3838
S'81102 - PM10_._7162'
p3839
asg604
g9
((ltRp3840
sg606
S'81102 - PM10'
p3841
ssS'6887'
p3842
(dp3843
g601
(lp3844
S'42101 - CO_._6887'
p3845
asg604
g9
((ltRp3846
sg606
S'42101 - CO'
p3847
ssS'6884'
p3848
(dp3849
g601
(lp3850
S'81104 - PM2.5_._6884'
p3851
asg604
g9
((ltRp3852
sg606
S'81104 - PM2.5'
p3853
ssS'6885'
p3854
(dp3855
g601
(lp3856
S'89101 - PM1_._6885'
p3857
asg604
g9
((ltRp3858
sg606
S'89101 - PM1'
p3859
ssS'6883'
p3860
(dp3861
g601
(lp3862
S'81102 - PM10_._6883'
p3863
asg604
g9
((ltRp3864
sg606
S'81102 - PM10'
p3865
ssS'6880'
p3866
(dp3867
g601
(lp3868
S'81102 - PM10_._6880'
p3869
asg604
g9
((ltRp3870
sg606
S'81102 - PM10'
p3871
ssS'6881'
p3872
(dp3873
g601
(lp3874
S'81104 - PM2.5_._6881'
p3875
asg604
g9
((ltRp3876
sg606
S'81104 - PM2.5'
p3877
ssS'6888'
p3878
(dp3879
g601
(lp3880
S'42401 - SO2_._6888'
p3881
asg604
g9
((ltRp3882
sg606
S'42401 - SO2'
p3883
ssS'6889'
p3884
(dp3885
g601
(lp3886
S'42601 - NO_._6889'
p3887
asg604
g9
((ltRp3888
sg606
S'42601 - NO'
p3889
ssS'7081'
p3890
(dp3891
g601
(lp3892
S'45202 - C6H5-CH3_._7081'
p3893
asg604
g9
((ltRp3894
sg606
S'45202 - C6H5-CH3'
p3895
ssS'7080'
p3896
(dp3897
g601
(lp3898
S'45201 - C6H6_._7080'
p3899
asg604
g9
((ltRp3900
sg606
S'45201 - C6H6'
p3901
ssS'7083'
p3902
(dp3903
g601
(lp3904
S'45204 - o-C6H4-(CH3)2_._7083'
p3905
asg604
g9
((ltRp3906
sg606
S'45204 - o-C6H4-(CH3)2'
p3907
ssS'7082'
p3908
(dp3909
g601
(lp3910
S'45203 - C6H5-C2H5_._7082'
p3911
asg604
g9
((ltRp3912
sg606
S'45203 - C6H5-C2H5'
p3913
ssS'7087'
p3914
(dp3915
g601
(lp3916
S'81104 - PM2.5_._7087'
p3917
asg604
g9
((ltRp3918
sg606
S'81104 - PM2.5'
p3919
ssS'7086'
p3920
(dp3921
g601
(lp3922
S'81102 - PM10_._7086'
p3923
asg604
g9
((ltRp3924
sg606
S'81102 - PM10'
p3925
ssS'7089'
p3926
(dp3927
g601
(lp3928
S'42601 - NO_._7089'
p3929
asg604
g9
((ltRp3930
sg606
S'42601 - NO'
p3931
ssS'7163'
p3932
(dp3933
g601
(lp3934
S'81104 - PM2.5_._7163'
p3935
asg604
g9
((ltRp3936
sg606
S'81104 - PM2.5'
p3937
ssS'7160'
p3938
(dp3939
g601
(lp3940
S'42602 - NO2_._7160'
p3941
asg604
g9
((ltRp3942
sg606
S'42602 - NO2'
p3943
ssS'99934'
p3944
(dp3945
g601
(lp3946
S'61110 - WSP-SCA_._99934'
p3947
asg604
g9
((ltRp3948
sg606
S'61110 - WSP-SCA'
p3949
ssS'99933'
p3950
(dp3951
g601
(lp3952
S'61102 - DD_._99933'
p3953
asg604
g9
((ltRp3954
sg606
S'61102 - DD'
p3955
ssS'99932'
p3956
(dp3957
g601
(lp3958
S'62101 - TT_._99932'
p3959
asg604
g9
((ltRp3960
sg606
S'62101 - TT'
p3961
ssS'7164'
p3962
(dp3963
g601
(lp3964
S'89101 - PM1_._7164'
p3965
asg604
g9
((ltRp3966
sg606
S'89101 - PM1'
p3967
ssS'99930'
p3968
(dp3969
g601
(lp3970
S'61102 - DD_._99930'
p3971
asg604
g9
((ltRp3972
sg606
S'61102 - DD'
p3973
ssS'99914'
p3974
(dp3975
g601
(lp3976
S'62101 - TT_._99914'
p3977
asg604
g9
((ltRp3978
sg606
S'62101 - TT'
p3979
ssS'6693'
p3980
(dp3981
g601
(lp3982
S'81102 - PM10_._6693'
p3983
asg604
g9
((ltRp3984
sg606
S'81102 - PM10'
p3985
ssS'7034'
p3986
(dp3987
g601
(lp3988
S'81102 - PM10_._7034'
p3989
asg604
g9
((ltRp3990
sg606
S'81102 - PM10'
p3991
ssS'6690'
p3992
(dp3993
g601
(lp3994
S'42602 - NO2_._6690'
p3995
asg604
g9
((ltRp3996
sg606
S'42602 - NO2'
p3997
ssS'6490'
p3998
(dp3999
g601
(lp4000
S'45204 - o-C6H4-(CH3)2_._6490'
p4001
asg604
g9
((ltRp4002
sg606
S'45204 - o-C6H4-(CH3)2'
p4003
ssS'6949'
p4004
(dp4005
g601
(lp4006
S'44201 - O3_._6949'
p4007
asg604
g9
((ltRp4008
sg606
S'44201 - O3'
p4009
ssS'6948'
p4010
(dp4011
g601
(lp4012
S'42602 - NO2_._6948'
p4013
asg604
g9
((ltRp4014
sg606
S'42602 - NO2'
p4015
ssS'7130'
p4016
(dp4017
g601
(lp4018
S'42401 - SO2_._7130'
p4019
asg604
g9
((ltRp4020
sg606
S'42401 - SO2'
p4021
ssS'6943'
p4022
(dp4023
g601
(lp4024
S'81102 - PM10_._6943'
p4025
asg604
g9
((ltRp4026
sg606
S'81102 - PM10'
p4027
ssS'6942'
p4028
(dp4029
g601
(lp4030
S'44201 - O3_._6942'
p4031
asg604
g9
((ltRp4032
sg606
S'44201 - O3'
p4033
ssS'6941'
p4034
(dp4035
g601
(lp4036
S'42602 - NO2_._6941'
p4037
asg604
g9
((ltRp4038
sg606
S'42602 - NO2'
p4039
ssS'6940'
p4040
(dp4041
g601
(lp4042
S'42601 - NO_._6940'
p4043
asg604
g9
((ltRp4044
sg606
S'42601 - NO'
p4045
ssS'6947'
p4046
(dp4047
g601
(lp4048
S'42601 - NO_._6947'
p4049
asg604
g9
((ltRp4050
sg606
S'42601 - NO'
p4051
ssS'6946'
p4052
(dp4053
g601
(lp4054
S'42401 - SO2_._6946'
p4055
asg604
g9
((ltRp4056
sg606
S'42401 - SO2'
p4057
ssS'6945'
p4058
(dp4059
g601
(lp4060
S'89101 - PM1_._6945'
p4061
asg604
g9
((ltRp4062
sg606
S'89101 - PM1'
p4063
ssS'6944'
p4064
(dp4065
g601
(lp4066
S'81104 - PM2.5_._6944'
p4067
asg604
g9
((ltRp4068
sg606
S'81104 - PM2.5'
p4069
ssS'6343'
p4070
(dp4071
g601
(lp4072
S'16111 - Black Carbon_._6343'
p4073
asg604
g9
((ltRp4074
sg606
S'16111 - Black Carbon'
p4075
ssS'7132'
p4076
(dp4077
g601
(lp4078
S'42602 - NO2_._7132'
p4079
asg604
g9
((ltRp4080
sg606
S'42602 - NO2'
p4081
ssS'6347'
p4082
(dp4083
g601
(lp4084
S'42601 - NO_._6347'
p4085
asg604
g9
((ltRp4086
sg606
S'42601 - NO'
p4087
ssS'6348'
p4088
(dp4089
g601
(lp4090
S'42602 - NO2_._6348'
p4091
asg604
g9
((ltRp4092
sg606
S'42602 - NO2'
p4093
ssS'6337'
p4094
(dp4095
g601
(lp4096
S'81104 - PM2.5_._6337'
p4097
asg604
g9
((ltRp4098
sg606
S'81104 - PM2.5'
p4099
ssS'7234'
p4100
(dp4101
g601
(lp4102
S'42602 - NO2_._7234'
p4103
asg604
g9
((ltRp4104
sg606
S'42602 - NO2'
p4105
ssS'7232'
p4106
(dp4107
g601
(lp4108
S'42401 - SO2_._7232'
p4109
asg604
g9
((ltRp4110
sg606
S'42401 - SO2'
p4111
ssS'7233'
p4112
(dp4113
g601
(lp4114
S'42601 - NO_._7233'
p4115
asg604
g9
((ltRp4116
sg606
S'42601 - NO'
p4117
ssS'7230'
p4118
(dp4119
g601
(lp4120
S'42601 - NO_._7230'
p4121
asg604
g9
((ltRp4122
sg606
S'42601 - NO'
p4123
ssS'7231'
p4124
(dp4125
g601
(lp4126
S'42602 - NO2_._7231'
p4127
asg604
g9
((ltRp4128
sg606
S'42602 - NO2'
p4129
ssS'6958'
p4130
(dp4131
g601
(lp4132
S'81104 - PM2.5_._6958'
p4133
asg604
g9
((ltRp4134
sg606
S'81104 - PM2.5'
p4135
ssS'7008'
p4136
(dp4137
g601
(lp4138
S'81102 - PM10_._7008'
p4139
asg604
g9
((ltRp4140
sg606
S'81102 - PM10'
p4141
ssS'6549'
p4142
(dp4143
g601
(lp4144
S'42401 - SO2_._6549'
p4145
asg604
g9
((ltRp4146
sg606
S'42401 - SO2'
p4147
ssS'6548'
p4148
(dp4149
g601
(lp4150
S'42242 - Hg_._6548'
p4151
asg604
g9
((ltRp4152
sg606
S'42242 - Hg'
p4153
ssS'6334'
p4154
(dp4155
g601
(lp4156
S'81102 - PM10_._6334'
p4157
asg604
g9
((ltRp4158
sg606
S'81102 - PM10'
p4159
ssS'6335'
p4160
(dp4161
g601
(lp4162
S'16111 - Black Carbon_._6335'
p4163
asg604
g9
((ltRp4164
sg606
S'16111 - Black Carbon'
p4165
ssS'6489'
p4166
(dp4167
g601
(lp4168
S'45203 - C6H5-C2H5_._6489'
p4169
asg604
g9
((ltRp4170
sg606
S'45203 - C6H5-C2H5'
p4171
sssS'accesConstraints'
p4172
S'http://creativecommons.org/licenses/by-nc-nd/3.0/'
p4173
sb.