(i__main__
SOS
p1
(dp2
S'accessConstraints'
p3
S''
sS'name'
p4
S'SOS of IRCEL - CELINE'
p5
sS'url'
p6
S'http://sos.irceline.be/sos?'
p7
sS'responseFormat'
p8
c__builtin__
set
p9
((lp10
S'application/zip'
p11
aS'http://www.opengis.net/om/2.0'
p12
atRp13
sS'organisation'
p14
S'IRCEL - CELINE'
p15
sS'minTime'
p16
S'2011-01-01T02:00:00+01:00'
p17
sS'costs'
p18
S'NONE'
p19
sS'version'
p20
g9
((lp21
S'1.0.0'
p22
aS'2.0.0'
p23
atRp24
sS'error'
p25
I00
sS'featureofinterest'
p26
(dp27
sS'procedure'
p28
(dp29
S'6723'
p30
(dp31
S'offerings'
p32
(lp33
S'42101 - CO_._6723'
p34
asS'FOI'
p35
g9
((ltRp36
sS'obsProperty'
p37
S'42101 - CO'
p38
ssS'6722'
p39
(dp40
g32
(lp41
S'44201 - O3_._6722'
p42
asg35
g9
((ltRp43
sg37
S'44201 - O3'
p44
ssS'6726'
p45
(dp46
g32
(lp47
S'42602 - NO2_._6726'
p48
asg35
g9
((lp49
S'BETN045'
p50
atRp51
sg37
S'42602 - NO2'
p52
ssS'6725'
p53
(dp54
g32
(lp55
S'42601 - NO_._6725'
p56
asg35
g9
((lp57
S'BETN045'
p58
atRp59
sg37
S'42601 - NO'
p60
ssS'6724'
p61
(dp62
g32
(lp63
S'42401 - SO2_._6724'
p64
asg35
g9
((lp65
S'BETN045'
p66
atRp67
sg37
S'42401 - SO2'
p68
ssS'6842'
p69
(dp70
g32
(lp71
S'45201 - C6H6_._6842'
p72
asg35
g9
((lp73
S'BELR833'
p74
atRp75
sg37
S'45201 - C6H6'
p76
ssS'7003'
p77
(dp78
g32
(lp79
S'42101 - CO_._7003'
p80
asg35
g9
((lp81
S'BETR223'
p82
atRp83
sg37
S'42101 - CO'
p84
ssS'6954'
p85
(dp86
g32
(lp87
S'42601 - NO_._6954'
p88
asg35
g9
((ltRp89
sg37
S'42601 - NO'
p90
ssS'6955'
p91
(dp92
g32
(lp93
S'42602 - NO2_._6955'
p94
asg35
g9
((ltRp95
sg37
S'42602 - NO2'
p96
ssS'99904'
p97
(dp98
g32
(lp99
S'61110 - WSP-SCA_._99904'
p100
asg35
g9
((ltRp101
sg37
S'61110 - WSP-SCA'
p102
ssS'7045'
p103
(dp104
g32
(lp105
S'42401 - SO2_._7045'
p106
asg35
g9
((ltRp107
sg37
S'42401 - SO2'
p108
ssS'6151'
p109
(dp110
g32
(lp111
S'16111 - Black Carbon_._6151'
p112
asg35
g9
((ltRp113
sg37
S'16111 - Black Carbon'
p114
ssS'6152'
p115
(dp116
g32
(lp117
S'81102 - PM10_._6152'
p118
asg35
g9
((ltRp119
sg37
S'81102 - PM10'
p120
ssS'6153'
p121
(dp122
g32
(lp123
S'81102 - PM10_._6153'
p124
asg35
g9
((ltRp125
sg37
S'81102 - PM10'
p126
ssS'6154'
p127
(dp128
g32
(lp129
S'81104 - PM2.5_._6154'
p130
asg35
g9
((ltRp131
sg37
S'81104 - PM2.5'
p132
ssS'6155'
p133
(dp134
g32
(lp135
S'81104 - PM2.5_._6155'
p136
asg35
g9
((ltRp137
sg37
S'81104 - PM2.5'
p138
ssS'6156'
p139
(dp140
g32
(lp141
S'81104 - PM2.5_._6156'
p142
asg35
g9
((ltRp143
sg37
S'81104 - PM2.5'
p144
ssS'6157'
p145
(dp146
g32
(lp147
S'81102 - PM10_._6157'
p148
asg35
g9
((ltRp149
sg37
S'81102 - PM10'
p150
ssS'6158'
p151
(dp152
g32
(lp153
S'81104 - PM2.5_._6158'
p154
asg35
g9
((ltRp155
sg37
S'81104 - PM2.5'
p156
ssS'6843'
p157
(dp158
g32
(lp159
S'45202 - C6H5-CH3_._6843'
p160
asg35
g9
((ltRp161
sg37
S'45202 - C6H5-CH3'
p162
ssS'6840'
p163
(dp164
g32
(lp165
S'16111 - Black Carbon_._6840'
p166
asg35
g9
((ltRp167
sg37
S'16111 - Black Carbon'
p168
ssS'6841'
p169
(dp170
g32
(lp171
S'45109 - m,p-C6H4(CH3)2_._6841'
p172
asg35
g9
((ltRp173
sg37
S'45109 - m,p-C6H4(CH3)2'
p174
ssS'7049'
p175
(dp176
g32
(lp177
S'45109 - m,p-C6H4(CH3)2_._7049'
p178
asg35
g9
((ltRp179
sg37
S'45109 - m,p-C6H4(CH3)2'
p180
ssS'7048'
p181
(dp182
g32
(lp183
S'44201 - O3_._7048'
p184
asg35
g9
((ltRp185
sg37
S'44201 - O3'
p186
ssS'6844'
p187
(dp188
g32
(lp189
S'45203 - C6H5-C2H5_._6844'
p190
asg35
g9
((ltRp191
sg37
S'45203 - C6H5-C2H5'
p192
ssS'6845'
p193
(dp194
g32
(lp195
S'45204 - o-C6H4-(CH3)2_._6845'
p196
asg35
g9
((ltRp197
sg37
S'45204 - o-C6H4-(CH3)2'
p198
ssS'6794'
p199
(dp200
g32
(lp201
S'81102 - PM10_._6794'
p202
asg35
g9
((ltRp203
sg37
S'81102 - PM10'
p204
ssS'6792'
p205
(dp206
g32
(lp207
S'42602 - NO2_._6792'
p208
asg35
g9
((ltRp209
sg37
S'42602 - NO2'
p210
ssS'6793'
p211
(dp212
g32
(lp213
S'44201 - O3_._6793'
p214
asg35
g9
((ltRp215
sg37
S'44201 - O3'
p216
ssS'6791'
p217
(dp218
g32
(lp219
S'42601 - NO_._6791'
p220
asg35
g9
((ltRp221
sg37
S'42601 - NO'
p222
ssS'99999'
p223
(dp224
g32
(lp225
S'81104 - PM2.5_._99999'
p226
asg35
g9
((ltRp227
sg37
S'81104 - PM2.5'
p228
ssS'99998'
p229
(dp230
g32
(lp231
S'81104 - PM2.5_._99998'
p232
asg35
g9
((ltRp233
sg37
S'81104 - PM2.5'
p234
ssS'6988'
p235
(dp236
g32
(lp237
S'16111 - Black Carbon_._6988'
p238
asg35
g9
((ltRp239
sg37
S'16111 - Black Carbon'
p240
ssS'99993'
p241
(dp242
g32
(lp243
S'90500 - PN1'
p244
asg35
g9
((ltRp245
sg37
S'90500 - PN1'
p246
ssS'99995'
p247
(dp248
g32
(lp249
S'81104 - PM2.5_._99995'
p250
asg35
g9
((ltRp251
sg37
S'81104 - PM2.5'
p252
ssS'99994'
p253
(dp254
g32
(lp255
S'81104 - PM2.5_._99994'
p256
asg35
g9
((ltRp257
sg37
S'81104 - PM2.5'
p258
ssS'99997'
p259
(dp260
g32
(lp261
S'81104 - PM2.5_._99997'
p262
asg35
g9
((ltRp263
sg37
S'81104 - PM2.5'
p264
ssS'99996'
p265
(dp266
g32
(lp267
S'81104 - PM2.5_._99996'
p268
asg35
g9
((ltRp269
sg37
S'81104 - PM2.5'
p270
ssS'6386'
p271
(dp272
g32
(lp273
S'42242 - Hg_._6386'
p274
asg35
g9
((ltRp275
sg37
S'42242 - Hg'
p276
ssS'100016'
p277
(dp278
g32
(lp279
S'81104 - PM2.5_._100016'
p280
asg35
g9
((ltRp281
sg37
S'81104 - PM2.5'
p282
ssS'100017'
p283
(dp284
g32
(lp285
S'81104 - PM2.5_._100017'
p286
asg35
g9
((ltRp287
sg37
S'81104 - PM2.5'
p288
ssS'100014'
p289
(dp290
g32
(lp291
S'81104 - PM2.5_._100014'
p292
asg35
g9
((ltRp293
sg37
S'81104 - PM2.5'
p294
ssS'100015'
p295
(dp296
g32
(lp297
S'81104 - PM2.5_._100015'
p298
asg35
g9
((ltRp299
sg37
S'81104 - PM2.5'
p300
ssS'100012'
p301
(dp302
g32
(lp303
S'81104 - PM2.5_._100012'
p304
asg35
g9
((ltRp305
sg37
S'81104 - PM2.5'
p306
ssS'100013'
p307
(dp308
g32
(lp309
S'81104 - PM2.5_._100013'
p310
asg35
g9
((ltRp311
sg37
S'81104 - PM2.5'
p312
ssS'100010'
p313
(dp314
g32
(lp315
S'81104 - PM2.5_._100010'
p316
asg35
g9
((ltRp317
sg37
S'81104 - PM2.5'
p318
ssS'100011'
p319
(dp320
g32
(lp321
S'81104 - PM2.5_._100011'
p322
asg35
g9
((ltRp323
sg37
S'81104 - PM2.5'
p324
ssS'100018'
p325
(dp326
g32
(lp327
S'81104 - PM2.5_._100018'
p328
asg35
g9
((ltRp329
sg37
S'81104 - PM2.5'
p330
ssS'10703'
p331
(dp332
g32
(lp333
S'42602 - NO2_._10703'
p334
asg35
g9
((ltRp335
sg37
S'42602 - NO2'
p336
ssS'10702'
p337
(dp338
g32
(lp339
S'42601 - NO_._10702'
p340
asg35
g9
((ltRp341
sg37
S'42601 - NO'
p342
ssS'10701'
p343
(dp344
g32
(lp345
S'44201 - O3_._10701'
p346
asg35
g9
((ltRp347
sg37
S'44201 - O3'
p348
ssS'10700'
p349
(dp350
g32
(lp351
S'42602 - NO2_._10700'
p352
asg35
g9
((ltRp353
sg37
S'42602 - NO2'
p354
ssS'10706'
p355
(dp356
g32
(lp357
S'16111 - Black Carbon_._10706'
p358
asg35
g9
((ltRp359
sg37
S'16111 - Black Carbon'
p360
ssS'10705'
p361
(dp362
g32
(lp363
S'81104 - PM2.5_._10705'
p364
asg35
g9
((ltRp365
sg37
S'81104 - PM2.5'
p366
ssS'10704'
p367
(dp368
g32
(lp369
S'81102 - PM10_._10704'
p370
asg35
g9
((ltRp371
sg37
S'81102 - PM10'
p372
ssS'6932'
p373
(dp374
g32
(lp375
S'42401 - SO2_._6932'
p376
asg35
g9
((ltRp377
sg37
S'42401 - SO2'
p378
ssS'6933'
p379
(dp380
g32
(lp381
S'42601 - NO_._6933'
p382
asg35
g9
((ltRp383
sg37
S'42601 - NO'
p384
ssS'6930'
p385
(dp386
g32
(lp387
S'42101 - CO_._6930'
p388
asg35
g9
((ltRp389
sg37
S'42101 - CO'
p390
ssS'6931'
p391
(dp392
g32
(lp393
S'42242 - Hg_._6931'
p394
asg35
g9
((ltRp395
sg37
S'42242 - Hg'
p396
ssS'6936'
p397
(dp398
g32
(lp399
S'81102 - PM10_._6936'
p400
asg35
g9
((ltRp401
sg37
S'81102 - PM10'
p402
ssS'6937'
p403
(dp404
g32
(lp405
S'81104 - PM2.5_._6937'
p406
asg35
g9
((ltRp407
sg37
S'81104 - PM2.5'
p408
ssS'6934'
p409
(dp410
g32
(lp411
S'42602 - NO2_._6934'
p412
asg35
g9
((ltRp413
sg37
S'42602 - NO2'
p414
ssS'6935'
p415
(dp416
g32
(lp417
S'44201 - O3_._6935'
p418
asg35
g9
((ltRp419
sg37
S'44201 - O3'
p420
ssS'6938'
p421
(dp422
g32
(lp423
S'89101 - PM1_._6938'
p424
asg35
g9
((ltRp425
sg37
S'89101 - PM1'
p426
ssS'6939'
p427
(dp428
g32
(lp429
S'42401 - SO2_._6939'
p430
asg35
g9
((ltRp431
sg37
S'42401 - SO2'
p432
ssS'6271'
p433
(dp434
g32
(lp435
S'42601 - NO_._6271'
p436
asg35
g9
((ltRp437
sg37
S'42601 - NO'
p438
ssS'6273'
p439
(dp440
g32
(lp441
S'45109 - m,p-C6H4(CH3)2_._6273'
p442
asg35
g9
((ltRp443
sg37
S'45109 - m,p-C6H4(CH3)2'
p444
ssS'6272'
p445
(dp446
g32
(lp447
S'42602 - NO2_._6272'
p448
asg35
g9
((ltRp449
sg37
S'42602 - NO2'
p450
ssS'6275'
p451
(dp452
g32
(lp453
S'45202 - C6H5-CH3_._6275'
p454
asg35
g9
((ltRp455
sg37
S'45202 - C6H5-CH3'
p456
ssS'6274'
p457
(dp458
g32
(lp459
S'45201 - C6H6_._6274'
p460
asg35
g9
((ltRp461
sg37
S'45201 - C6H6'
p462
ssS'6277'
p463
(dp464
g32
(lp465
S'45204 - o-C6H4-(CH3)2_._6277'
p466
asg35
g9
((ltRp467
sg37
S'45204 - o-C6H4-(CH3)2'
p468
ssS'6276'
p469
(dp470
g32
(lp471
S'45203 - C6H5-C2H5_._6276'
p472
asg35
g9
((ltRp473
sg37
S'45203 - C6H5-C2H5'
p474
ssS'6503'
p475
(dp476
g32
(lp477
S'42601 - NO_._6503'
p478
asg35
g9
((ltRp479
sg37
S'42601 - NO'
p480
ssS'6502'
p481
(dp482
g32
(lp483
S'42401 - SO2_._6502'
p484
asg35
g9
((ltRp485
sg37
S'42401 - SO2'
p486
ssS'6501'
p487
(dp488
g32
(lp489
S'42102 - CO2_._6501'
p490
asg35
g9
((ltRp491
sg37
S'42102 - CO2'
p492
ssS'6500'
p493
(dp494
g32
(lp495
S'42101 - CO_._6500'
p496
asg35
g9
((ltRp497
sg37
S'42101 - CO'
p498
ssS'6507'
p499
(dp500
g32
(lp501
S'42601 - NO_._6507'
p502
asg35
g9
((ltRp503
sg37
S'42601 - NO'
p504
ssS'6506'
p505
(dp506
g32
(lp507
S'42101 - CO_._6506'
p508
asg35
g9
((ltRp509
sg37
S'42101 - CO'
p510
ssS'6504'
p511
(dp512
g32
(lp513
S'42602 - NO2_._6504'
p514
asg35
g9
((ltRp515
sg37
S'42602 - NO2'
p516
ssS'7009'
p517
(dp518
g32
(lp519
S'81104 - PM2.5_._7009'
p520
asg35
g9
((ltRp521
sg37
S'81104 - PM2.5'
p522
ssS'99925'
p523
(dp524
g32
(lp525
S'61110 - WSP-SCA_._99925'
p526
asg35
g9
((ltRp527
sg37
S'61110 - WSP-SCA'
p528
ssS'99937'
p529
(dp530
g32
(lp531
S'61110 - WSP-SCA_._99937'
p532
asg35
g9
((ltRp533
sg37
S'61110 - WSP-SCA'
p534
ssS'6430'
p535
(dp536
g32
(lp537
S'42401 - SO2_._6430'
p538
asg35
g9
((ltRp539
sg37
S'42401 - SO2'
p540
ssS'6204'
p541
(dp542
g32
(lp543
S'45203 - C6H5-C2H5_._6204'
p544
asg35
g9
((ltRp545
sg37
S'45203 - C6H5-C2H5'
p546
ssS'6205'
p547
(dp548
g32
(lp549
S'45204 - o-C6H4-(CH3)2_._6205'
p550
asg35
g9
((ltRp551
sg37
S'45204 - o-C6H4-(CH3)2'
p552
ssS'6206'
p553
(dp554
g32
(lp555
S'81102 - PM10_._6206'
p556
asg35
g9
((ltRp557
sg37
S'81102 - PM10'
p558
ssS'6207'
p559
(dp560
g32
(lp561
S'42242 - Hg_._6207'
p562
asg35
g9
((ltRp563
sg37
S'42242 - Hg'
p564
ssS'6200'
p565
(dp566
g32
(lp567
S'42602 - NO2_._6200'
p568
asg35
g9
((ltRp569
sg37
S'42602 - NO2'
p570
ssS'6201'
p571
(dp572
g32
(lp573
S'45109 - m,p-C6H4(CH3)2_._6201'
p574
asg35
g9
((ltRp575
sg37
S'45109 - m,p-C6H4(CH3)2'
p576
ssS'6202'
p577
(dp578
g32
(lp579
S'45201 - C6H6_._6202'
p580
asg35
g9
((ltRp581
sg37
S'45201 - C6H6'
p582
ssS'6203'
p583
(dp584
g32
(lp585
S'45202 - C6H5-CH3_._6203'
p586
asg35
g9
((ltRp587
sg37
S'45202 - C6H5-CH3'
p588
ssS'6809'
p589
(dp590
g32
(lp591
S'42401 - SO2_._6809'
p592
asg35
g9
((ltRp593
sg37
S'42401 - SO2'
p594
ssS'6804'
p595
(dp596
g32
(lp597
S'81102 - PM10_._6804'
p598
asg35
g9
((ltRp599
sg37
S'81102 - PM10'
p600
ssS'6802'
p601
(dp602
g32
(lp603
S'42601 - NO_._6802'
p604
asg35
g9
((ltRp605
sg37
S'42601 - NO'
p606
ssS'6803'
p607
(dp608
g32
(lp609
S'42602 - NO2_._6803'
p610
asg35
g9
((ltRp611
sg37
S'42602 - NO2'
p612
ssS'6800'
p613
(dp614
g32
(lp615
S'16111 - Black Carbon_._6800'
p616
asg35
g9
((ltRp617
sg37
S'16111 - Black Carbon'
p618
ssS'6801'
p619
(dp620
g32
(lp621
S'42401 - SO2_._6801'
p622
asg35
g9
((ltRp623
sg37
S'42401 - SO2'
p624
ssS'6613'
p625
(dp626
g32
(lp627
S'42401 - SO2_._6613'
p628
asg35
g9
((ltRp629
sg37
S'42401 - SO2'
p630
ssS'6612'
p631
(dp632
g32
(lp633
S'42102 - CO2_._6612'
p634
asg35
g9
((ltRp635
sg37
S'42102 - CO2'
p636
ssS'6611'
p637
(dp638
g32
(lp639
S'42101 - CO_._6611'
p640
asg35
g9
((ltRp641
sg37
S'42101 - CO'
p642
ssS'99927'
p643
(dp644
g32
(lp645
S'61102 - DD_._99927'
p646
asg35
g9
((ltRp647
sg37
S'61102 - DD'
p648
ssS'6615'
p649
(dp650
g32
(lp651
S'42602 - NO2_._6615'
p652
asg35
g9
((ltRp653
sg37
S'42602 - NO2'
p654
ssS'6614'
p655
(dp656
g32
(lp657
S'42601 - NO_._6614'
p658
asg35
g9
((ltRp659
sg37
S'42601 - NO'
p660
ssS'7001'
p661
(dp662
g32
(lp663
S'81104 - PM2.5_._7001'
p664
asg35
g9
((ltRp665
sg37
S'81104 - PM2.5'
p666
ssS'7000'
p667
(dp668
g32
(lp669
S'81102 - PM10_._7000'
p670
asg35
g9
((ltRp671
sg37
S'81102 - PM10'
p672
ssS'6619'
p673
(dp674
g32
(lp675
S'42102 - CO2_._6619'
p676
asg35
g9
((ltRp677
sg37
S'42102 - CO2'
p678
ssS'7005'
p679
(dp680
g32
(lp681
S'42601 - NO_._7005'
p682
asg35
g9
((ltRp683
sg37
S'42601 - NO'
p684
ssS'7004'
p685
(dp686
g32
(lp687
S'42401 - SO2_._7004'
p688
asg35
g9
((ltRp689
sg37
S'42401 - SO2'
p690
ssS'7006'
p691
(dp692
g32
(lp693
S'42602 - NO2_._7006'
p694
asg35
g9
((ltRp695
sg37
S'42602 - NO2'
p696
ssS'6752'
p697
(dp698
g32
(lp699
S'42601 - NO_._6752'
p700
asg35
g9
((ltRp701
sg37
S'42601 - NO'
p702
ssS'6753'
p703
(dp704
g32
(lp705
S'42602 - NO2_._6753'
p706
asg35
g9
((ltRp707
sg37
S'42602 - NO2'
p708
ssS'6750'
p709
(dp710
g32
(lp711
S'42101 - CO_._6750'
p712
asg35
g9
((ltRp713
sg37
S'42101 - CO'
p714
ssS'99916'
p715
(dp716
g32
(lp717
S'61110 - WSP-SCA_._99916'
p718
asg35
g9
((ltRp719
sg37
S'61110 - WSP-SCA'
p720
ssS'7177'
p721
(dp722
g32
(lp723
S'42602 - NO2_._7177'
p724
asg35
g9
((ltRp725
sg37
S'42602 - NO2'
p726
ssS'99919'
p727
(dp728
g32
(lp729
S'61110 - WSP-SCA_._99919'
p730
asg35
g9
((ltRp731
sg37
S'61110 - WSP-SCA'
p732
ssS'7176'
p733
(dp734
g32
(lp735
S'42601 - NO_._7176'
p736
asg35
g9
((ltRp737
sg37
S'42601 - NO'
p738
ssS'99940'
p739
(dp740
g32
(lp741
S'61110 - WSP-SCA_._99940'
p742
asg35
g9
((ltRp743
sg37
S'61110 - WSP-SCA'
p744
ssS'99918'
p745
(dp746
g32
(lp747
S'61102 - DD_._99918'
p748
asg35
g9
((ltRp749
sg37
S'61102 - DD'
p750
ssS'99941'
p751
(dp752
g32
(lp753
S'62101 - TT_._99941'
p754
asg35
g9
((ltRp755
sg37
S'62101 - TT'
p756
ssS'99915'
p757
(dp758
g32
(lp759
S'61102 - DD_._99915'
p760
asg35
g9
((ltRp761
sg37
S'61102 - DD'
p762
ssS'6891'
p763
(dp764
g32
(lp765
S'44201 - O3_._6891'
p766
asg35
g9
((ltRp767
sg37
S'44201 - O3'
p768
ssS'6890'
p769
(dp770
g32
(lp771
S'42602 - NO2_._6890'
p772
asg35
g9
((ltRp773
sg37
S'42602 - NO2'
p774
ssS'6893'
p775
(dp776
g32
(lp777
S'81104 - PM2.5_._6893'
p778
asg35
g9
((ltRp779
sg37
S'81104 - PM2.5'
p780
ssS'6892'
p781
(dp782
g32
(lp783
S'81102 - PM10_._6892'
p784
asg35
g9
((ltRp785
sg37
S'81102 - PM10'
p786
ssS'6895'
p787
(dp788
g32
(lp789
S'42101 - CO_._6895'
p790
asg35
g9
((ltRp791
sg37
S'42101 - CO'
p792
ssS'6894'
p793
(dp794
g32
(lp795
S'89101 - PM1_._6894'
p796
asg35
g9
((ltRp797
sg37
S'89101 - PM1'
p798
ssS'6897'
p799
(dp800
g32
(lp801
S'42601 - NO_._6897'
p802
asg35
g9
((ltRp803
sg37
S'42601 - NO'
p804
ssS'6896'
p805
(dp806
g32
(lp807
S'42401 - SO2_._6896'
p808
asg35
g9
((ltRp809
sg37
S'42401 - SO2'
p810
ssS'6899'
p811
(dp812
g32
(lp813
S'44201 - O3_._6899'
p814
asg35
g9
((ltRp815
sg37
S'44201 - O3'
p816
ssS'6898'
p817
(dp818
g32
(lp819
S'42602 - NO2_._6898'
p820
asg35
g9
((ltRp821
sg37
S'42602 - NO2'
p822
ssS'7179'
p823
(dp824
g32
(lp825
S'42601 - NO_._7179'
p826
asg35
g9
((ltRp827
sg37
S'42601 - NO'
p828
ssS'99928'
p829
(dp830
g32
(lp831
S'61110 - WSP-SCA_._99928'
p832
asg35
g9
((ltRp833
sg37
S'61110 - WSP-SCA'
p834
ssS'99929'
p835
(dp836
g32
(lp837
S'62101 - TT_._99929'
p838
asg35
g9
((ltRp839
sg37
S'62101 - TT'
p840
ssS'7078'
p841
(dp842
g32
(lp843
S'44201 - O3_._7078'
p844
asg35
g9
((ltRp845
sg37
S'44201 - O3'
p846
ssS'7079'
p847
(dp848
g32
(lp849
S'45109 - m,p-C6H4(CH3)2_._7079'
p850
asg35
g9
((ltRp851
sg37
S'45109 - m,p-C6H4(CH3)2'
p852
ssS'7074'
p853
(dp854
g32
(lp855
S'42602 - NO2_._7074'
p856
asg35
g9
((ltRp857
sg37
S'42602 - NO2'
p858
ssS'99921'
p859
(dp860
g32
(lp861
S'61102 - DD_._99921'
p862
asg35
g9
((ltRp863
sg37
S'61102 - DD'
p864
ssS'99922'
p865
(dp866
g32
(lp867
S'61110 - WSP-SCA_._99922'
p868
asg35
g9
((ltRp869
sg37
S'61110 - WSP-SCA'
p870
ssS'99923'
p871
(dp872
g32
(lp873
S'62101 - TT_._99923'
p874
asg35
g9
((ltRp875
sg37
S'62101 - TT'
p876
ssS'99924'
p877
(dp878
g32
(lp879
S'61102 - DD_._99924'
p880
asg35
g9
((ltRp881
sg37
S'61102 - DD'
p882
ssS'7071'
p883
(dp884
g32
(lp885
S'42101 - CO_._7071'
p886
asg35
g9
((ltRp887
sg37
S'42101 - CO'
p888
ssS'7072'
p889
(dp890
g32
(lp891
S'42401 - SO2_._7072'
p892
asg35
g9
((ltRp893
sg37
S'42401 - SO2'
p894
ssS'7073'
p895
(dp896
g32
(lp897
S'42601 - NO_._7073'
p898
asg35
g9
((ltRp899
sg37
S'42601 - NO'
p900
ssS'6972'
p901
(dp902
g32
(lp903
S'89101 - PM1_._6972'
p904
asg35
g9
((ltRp905
sg37
S'89101 - PM1'
p906
ssS'6970'
p907
(dp908
g32
(lp909
S'81102 - PM10_._6970'
p910
asg35
g9
((ltRp911
sg37
S'81102 - PM10'
p912
ssS'6971'
p913
(dp914
g32
(lp915
S'81104 - PM2.5_._6971'
p916
asg35
g9
((ltRp917
sg37
S'81104 - PM2.5'
p918
ssS'6508'
p919
(dp920
g32
(lp921
S'42602 - NO2_._6508'
p922
asg35
g9
((ltRp923
sg37
S'42602 - NO2'
p924
ssS'10688'
p925
(dp926
g32
(lp927
S'42601 - NO_._10688'
p928
asg35
g9
((ltRp929
sg37
S'42601 - NO'
p930
ssS'99920'
p931
(dp932
g32
(lp933
S'62101 - TT_._99920'
p934
asg35
g9
((ltRp935
sg37
S'62101 - TT'
p936
ssS'10689'
p937
(dp938
g32
(lp939
S'42602 - NO2_._10689'
p940
asg35
g9
((ltRp941
sg37
S'42602 - NO2'
p942
ssS'7180'
p943
(dp944
g32
(lp945
S'42602 - NO2_._7180'
p946
asg35
g9
((ltRp947
sg37
S'42602 - NO2'
p948
ssS'7041'
p949
(dp950
g32
(lp951
S'44201 - O3_._7041'
p952
asg35
g9
((ltRp953
sg37
S'44201 - O3'
p954
ssS'7182'
p955
(dp956
g32
(lp957
S'42601 - NO_._7182'
p958
asg35
g9
((ltRp959
sg37
S'42601 - NO'
p960
ssS'7183'
p961
(dp962
g32
(lp963
S'42602 - NO2_._7183'
p964
asg35
g9
((ltRp965
sg37
S'42602 - NO2'
p966
ssS'7185'
p967
(dp968
g32
(lp969
S'42601 - NO_._7185'
p970
asg35
g9
((ltRp971
sg37
S'42601 - NO'
p972
ssS'7186'
p973
(dp974
g32
(lp975
S'42602 - NO2_._7186'
p976
asg35
g9
((ltRp977
sg37
S'42602 - NO2'
p978
ssS'7040'
p979
(dp980
g32
(lp981
S'42602 - NO2_._7040'
p982
asg35
g9
((ltRp983
sg37
S'42602 - NO2'
p984
ssS'7207'
p985
(dp986
g32
(lp987
S'42602 - NO2_._7207'
p988
asg35
g9
((ltRp989
sg37
S'42602 - NO2'
p990
ssS'7042'
p991
(dp992
g32
(lp993
S'81102 - PM10_._7042'
p994
asg35
g9
((ltRp995
sg37
S'81102 - PM10'
p996
ssS'7206'
p997
(dp998
g32
(lp999
S'42601 - NO_._7206'
p1000
asg35
g9
((ltRp1001
sg37
S'42601 - NO'
p1002
ssS'10699'
p1003
(dp1004
g32
(lp1005
S'42601 - NO_._10699'
p1006
asg35
g9
((ltRp1007
sg37
S'42601 - NO'
p1008
ssS'10698'
p1009
(dp1010
g32
(lp1011
S'42602 - NO2_._10698'
p1012
asg35
g9
((ltRp1013
sg37
S'42602 - NO2'
p1014
ssS'7223'
p1015
(dp1016
g32
(lp1017
S'42401 - SO2_._7223'
p1018
asg35
g9
((ltRp1019
sg37
S'42401 - SO2'
p1020
ssS'7222'
p1021
(dp1022
g32
(lp1023
S'42602 - NO2_._7222'
p1024
asg35
g9
((ltRp1025
sg37
S'42602 - NO2'
p1026
ssS'7225'
p1027
(dp1028
g32
(lp1029
S'42602 - NO2_._7225'
p1030
asg35
g9
((ltRp1031
sg37
S'42602 - NO2'
p1032
ssS'7224'
p1033
(dp1034
g32
(lp1035
S'42601 - NO_._7224'
p1036
asg35
g9
((ltRp1037
sg37
S'42601 - NO'
p1038
ssS'7227'
p1039
(dp1040
g32
(lp1041
S'42601 - NO_._7227'
p1042
asg35
g9
((ltRp1043
sg37
S'42601 - NO'
p1044
ssS'7226'
p1045
(dp1046
g32
(lp1047
S'42401 - SO2_._7226'
p1048
asg35
g9
((ltRp1049
sg37
S'42401 - SO2'
p1050
ssS'10691'
p1051
(dp1052
g32
(lp1053
S'81102 - PM10_._10691'
p1054
asg35
g9
((ltRp1055
sg37
S'81102 - PM10'
p1056
ssS'10690'
p1057
(dp1058
g32
(lp1059
S'16111 - Black Carbon_._10690'
p1060
asg35
g9
((ltRp1061
sg37
S'16111 - Black Carbon'
p1062
ssS'10693'
p1063
(dp1064
g32
(lp1065
S'16111 - Black Carbon_._10693'
p1066
asg35
g9
((ltRp1067
sg37
S'16111 - Black Carbon'
p1068
ssS'10692'
p1069
(dp1070
g32
(lp1071
S'81104 - PM2.5_._10692'
p1072
asg35
g9
((ltRp1073
sg37
S'81104 - PM2.5'
p1074
ssS'10697'
p1075
(dp1076
g32
(lp1077
S'42601 - NO_._10697'
p1078
asg35
g9
((ltRp1079
sg37
S'42601 - NO'
p1080
ssS'10696'
p1081
(dp1082
g32
(lp1083
S'42601 - NO_._10696'
p1084
asg35
g9
((ltRp1085
sg37
S'42601 - NO'
p1086
ssS'6572'
p1087
(dp1088
g32
(lp1089
S'42401 - SO2_._6572'
p1090
asg35
g9
((ltRp1091
sg37
S'42401 - SO2'
p1092
ssS'6573'
p1093
(dp1094
g32
(lp1095
S'42601 - NO_._6573'
p1096
asg35
g9
((ltRp1097
sg37
S'42601 - NO'
p1098
ssS'6571'
p1099
(dp1100
g32
(lp1101
S'42101 - CO_._6571'
p1102
asg35
g9
((ltRp1103
sg37
S'42101 - CO'
p1104
ssS'6577'
p1105
(dp1106
g32
(lp1107
S'44201 - O3_._6577'
p1108
asg35
g9
((ltRp1109
sg37
S'44201 - O3'
p1110
ssS'6574'
p1111
(dp1112
g32
(lp1113
S'42602 - NO2_._6574'
p1114
asg35
g9
((ltRp1115
sg37
S'42602 - NO2'
p1116
ssS'7122'
p1117
(dp1118
g32
(lp1119
S'42602 - NO2_._7122'
p1120
asg35
g9
((ltRp1121
sg37
S'42602 - NO2'
p1122
ssS'6578'
p1123
(dp1124
g32
(lp1125
S'81102 - PM10_._6578'
p1126
asg35
g9
((ltRp1127
sg37
S'81102 - PM10'
p1128
ssS'6579'
p1129
(dp1130
g32
(lp1131
S'81104 - PM2.5_._6579'
p1132
asg35
g9
((ltRp1133
sg37
S'81104 - PM2.5'
p1134
ssS'6324'
p1135
(dp1136
g32
(lp1137
S'81102 - PM10_._6324'
p1138
asg35
g9
((ltRp1139
sg37
S'81102 - PM10'
p1140
ssS'6323'
p1141
(dp1142
g32
(lp1143
S'42602 - NO2_._6323'
p1144
asg35
g9
((ltRp1145
sg37
S'42602 - NO2'
p1146
ssS'6322'
p1147
(dp1148
g32
(lp1149
S'42601 - NO_._6322'
p1150
asg35
g9
((ltRp1151
sg37
S'42601 - NO'
p1152
ssS'7121'
p1153
(dp1154
g32
(lp1155
S'42601 - NO_._7121'
p1156
asg35
g9
((ltRp1157
sg37
S'42601 - NO'
p1158
ssS'6718'
p1159
(dp1160
g32
(lp1161
S'42602 - NO2_._6718'
p1162
asg35
g9
((ltRp1163
sg37
S'42602 - NO2'
p1164
ssS'6719'
p1165
(dp1166
g32
(lp1167
S'44201 - O3_._6719'
p1168
asg35
g9
((ltRp1169
sg37
S'44201 - O3'
p1170
ssS'6716'
p1171
(dp1172
g32
(lp1173
S'81102 - PM10_._6716'
p1174
asg35
g9
((ltRp1175
sg37
S'81102 - PM10'
p1176
ssS'6717'
p1177
(dp1178
g32
(lp1179
S'42601 - NO_._6717'
p1180
asg35
g9
((ltRp1181
sg37
S'42601 - NO'
p1182
ssS'6714'
p1183
(dp1184
g32
(lp1185
S'42602 - NO2_._6714'
p1186
asg35
g9
((ltRp1187
sg37
S'42602 - NO2'
p1188
ssS'6715'
p1189
(dp1190
g32
(lp1191
S'44201 - O3_._6715'
p1192
asg35
g9
((ltRp1193
sg37
S'44201 - O3'
p1194
ssS'6712'
p1195
(dp1196
g32
(lp1197
S'42401 - SO2_._6712'
p1198
asg35
g9
((ltRp1199
sg37
S'42401 - SO2'
p1200
ssS'6713'
p1201
(dp1202
g32
(lp1203
S'42601 - NO_._6713'
p1204
asg35
g9
((ltRp1205
sg37
S'42601 - NO'
p1206
ssS'6710'
p1207
(dp1208
g32
(lp1209
S'42602 - NO2_._6710'
p1210
asg35
g9
((ltRp1211
sg37
S'42602 - NO2'
p1212
ssS'6711'
p1213
(dp1214
g32
(lp1215
S'44201 - O3_._6711'
p1216
asg35
g9
((ltRp1217
sg37
S'44201 - O3'
p1218
ssS'6855'
p1219
(dp1220
g32
(lp1221
S'81104 - PM2.5_._6855'
p1222
asg35
g9
((ltRp1223
sg37
S'81104 - PM2.5'
p1224
ssS'6854'
p1225
(dp1226
g32
(lp1227
S'81102 - PM10_._6854'
p1228
asg35
g9
((ltRp1229
sg37
S'81102 - PM10'
p1230
ssS'6857'
p1231
(dp1232
g32
(lp1233
S'42601 - NO_._6857'
p1234
asg35
g9
((ltRp1235
sg37
S'42601 - NO'
p1236
ssS'6856'
p1237
(dp1238
g32
(lp1239
S'42401 - SO2_._6856'
p1240
asg35
g9
((ltRp1241
sg37
S'42401 - SO2'
p1242
ssS'6851'
p1243
(dp1244
g32
(lp1245
S'42601 - NO_._6851'
p1246
asg35
g9
((ltRp1247
sg37
S'42601 - NO'
p1248
ssS'6853'
p1249
(dp1250
g32
(lp1251
S'44201 - O3_._6853'
p1252
asg35
g9
((ltRp1253
sg37
S'44201 - O3'
p1254
ssS'6852'
p1255
(dp1256
g32
(lp1257
S'42602 - NO2_._6852'
p1258
asg35
g9
((ltRp1259
sg37
S'42602 - NO2'
p1260
ssS'6858'
p1261
(dp1262
g32
(lp1263
S'42602 - NO2_._6858'
p1264
asg35
g9
((ltRp1265
sg37
S'42602 - NO2'
p1266
ssS'7031'
p1267
(dp1268
g32
(lp1269
S'42601 - NO_._7031'
p1270
asg35
g9
((ltRp1271
sg37
S'42601 - NO'
p1272
ssS'7032'
p1273
(dp1274
g32
(lp1275
S'42602 - NO2_._7032'
p1276
asg35
g9
((ltRp1277
sg37
S'42602 - NO2'
p1278
ssS'7033'
p1279
(dp1280
g32
(lp1281
S'44201 - O3_._7033'
p1282
asg35
g9
((ltRp1283
sg37
S'44201 - O3'
p1284
ssS'6147'
p1285
(dp1286
g32
(lp1287
S'16111 - Black Carbon_._6147'
p1288
asg35
g9
((ltRp1289
sg37
S'16111 - Black Carbon'
p1290
ssS'7017'
p1291
(dp1292
g32
(lp1293
S'42602 - NO2_._7017'
p1294
asg35
g9
((ltRp1295
sg37
S'42602 - NO2'
p1296
ssS'7131'
p1297
(dp1298
g32
(lp1299
S'42601 - NO_._7131'
p1300
asg35
g9
((ltRp1301
sg37
S'42601 - NO'
p1302
ssS'7039'
p1303
(dp1304
g32
(lp1305
S'42601 - NO_._7039'
p1306
asg35
g9
((ltRp1307
sg37
S'42601 - NO'
p1308
ssS'6149'
p1309
(dp1310
g32
(lp1311
S'81102 - PM10_._6149'
p1312
asg35
g9
((ltRp1313
sg37
S'81102 - PM10'
p1314
ssS'6148'
p1315
(dp1316
g32
(lp1317
S'81102 - PM10_._6148'
p1318
asg35
g9
((ltRp1319
sg37
S'81102 - PM10'
p1320
ssS'7135'
p1321
(dp1322
g32
(lp1323
S'81102 - PM10_._7135'
p1324
asg35
g9
((ltRp1325
sg37
S'81102 - PM10'
p1326
ssS'7137'
p1327
(dp1328
g32
(lp1329
S'89101 - PM1_._7137'
p1330
asg35
g9
((ltRp1331
sg37
S'89101 - PM1'
p1332
ssS'7136'
p1333
(dp1334
g32
(lp1335
S'81104 - PM2.5_._7136'
p1336
asg35
g9
((ltRp1337
sg37
S'81104 - PM2.5'
p1338
ssS'6781'
p1339
(dp1340
g32
(lp1341
S'45202 - C6H5-CH3_._6781'
p1342
asg35
g9
((ltRp1343
sg37
S'45202 - C6H5-CH3'
p1344
ssS'6780'
p1345
(dp1346
g32
(lp1347
S'45201 - C6H6_._6780'
p1348
asg35
g9
((ltRp1349
sg37
S'45201 - C6H6'
p1350
ssS'6783'
p1351
(dp1352
g32
(lp1353
S'45204 - o-C6H4-(CH3)2_._6783'
p1354
asg35
g9
((ltRp1355
sg37
S'45204 - o-C6H4-(CH3)2'
p1356
ssS'6782'
p1357
(dp1358
g32
(lp1359
S'45203 - C6H5-C2H5_._6782'
p1360
asg35
g9
((ltRp1361
sg37
S'45203 - C6H5-C2H5'
p1362
ssS'6787'
p1363
(dp1364
g32
(lp1365
S'81104 - PM2.5_._6787'
p1366
asg35
g9
((ltRp1367
sg37
S'81104 - PM2.5'
p1368
ssS'6786'
p1369
(dp1370
g32
(lp1371
S'81102 - PM10_._6786'
p1372
asg35
g9
((ltRp1373
sg37
S'81102 - PM10'
p1374
ssS'6789'
p1375
(dp1376
g32
(lp1377
S'81104 - PM2.5_._6789'
p1378
asg35
g9
((ltRp1379
sg37
S'81104 - PM2.5'
p1380
ssS'6788'
p1381
(dp1382
g32
(lp1383
S'81102 - PM10_._6788'
p1384
asg35
g9
((ltRp1385
sg37
S'81102 - PM10'
p1386
ssS'7044'
p1387
(dp1388
g32
(lp1389
S'42242 - Hg_._7044'
p1390
asg35
g9
((ltRp1391
sg37
S'42242 - Hg'
p1392
ssS'99911'
p1393
(dp1394
g32
(lp1395
S'62101 - TT_._99911'
p1396
asg35
g9
((ltRp1397
sg37
S'62101 - TT'
p1398
ssS'99910'
p1399
(dp1400
g32
(lp1401
S'61110 - WSP-SCA_._99910'
p1402
asg35
g9
((ltRp1403
sg37
S'61110 - WSP-SCA'
p1404
ssS'99913'
p1405
(dp1406
g32
(lp1407
S'61110 - WSP-SCA_._99913'
p1408
asg35
g9
((ltRp1409
sg37
S'61110 - WSP-SCA'
p1410
ssS'99912'
p1411
(dp1412
g32
(lp1413
S'61102 - DD_._99912'
p1414
asg35
g9
((ltRp1415
sg37
S'61102 - DD'
p1416
ssS'7047'
p1417
(dp1418
g32
(lp1419
S'42602 - NO2_._7047'
p1420
asg35
g9
((ltRp1421
sg37
S'42602 - NO2'
p1422
ssS'7149'
p1423
(dp1424
g32
(lp1425
S'81104 - PM2.5_._7149'
p1426
asg35
g9
((ltRp1427
sg37
S'81104 - PM2.5'
p1428
ssS'99917'
p1429
(dp1430
g32
(lp1431
S'62101 - TT_._99917'
p1432
asg35
g9
((ltRp1433
sg37
S'62101 - TT'
p1434
ssS'6638'
p1435
(dp1436
g32
(lp1437
S'42601 - NO_._6638'
p1438
asg35
g9
((ltRp1439
sg37
S'42601 - NO'
p1440
ssS'7144'
p1441
(dp1442
g32
(lp1443
S'81104 - PM2.5_._7144'
p1444
asg35
g9
((ltRp1445
sg37
S'81104 - PM2.5'
p1446
ssS'7145'
p1447
(dp1448
g32
(lp1449
S'89101 - PM1_._7145'
p1450
asg35
g9
((ltRp1451
sg37
S'89101 - PM1'
p1452
ssS'7147'
p1453
(dp1454
g32
(lp1455
S'42401 - SO2_._7147'
p1456
asg35
g9
((ltRp1457
sg37
S'42401 - SO2'
p1458
ssS'7140'
p1459
(dp1460
g32
(lp1461
S'42601 - NO_._7140'
p1462
asg35
g9
((ltRp1463
sg37
S'42601 - NO'
p1464
ssS'7141'
p1465
(dp1466
g32
(lp1467
S'42602 - NO2_._7141'
p1468
asg35
g9
((ltRp1469
sg37
S'42602 - NO2'
p1470
ssS'7142'
p1471
(dp1472
g32
(lp1473
S'44201 - O3_._7142'
p1474
asg35
g9
((ltRp1475
sg37
S'44201 - O3'
p1476
ssS'7143'
p1477
(dp1478
g32
(lp1479
S'81102 - PM10_._7143'
p1480
asg35
g9
((ltRp1481
sg37
S'81102 - PM10'
p1482
ssS'100005'
p1483
(dp1484
g32
(lp1485
S'81104 - PM2.5_._100005'
p1486
asg35
g9
((ltRp1487
sg37
S'81104 - PM2.5'
p1488
ssS'100004'
p1489
(dp1490
g32
(lp1491
S'81104 - PM2.5_._100004'
p1492
asg35
g9
((ltRp1493
sg37
S'81104 - PM2.5'
p1494
ssS'100006'
p1495
(dp1496
g32
(lp1497
S'81104 - PM2.5_._100006'
p1498
asg35
g9
((ltRp1499
sg37
S'81104 - PM2.5'
p1500
ssS'100001'
p1501
(dp1502
g32
(lp1503
S'81104 - PM2.5_._100001'
p1504
asg35
g9
((ltRp1505
sg37
S'81104 - PM2.5'
p1506
ssS'100003'
p1507
(dp1508
g32
(lp1509
S'81104 - PM2.5_._100003'
p1510
asg35
g9
((ltRp1511
sg37
S'81104 - PM2.5'
p1512
ssS'100002'
p1513
(dp1514
g32
(lp1515
S'81104 - PM2.5_._100002'
p1516
asg35
g9
((ltRp1517
sg37
S'81104 - PM2.5'
p1518
ssS'7129'
p1519
(dp1520
g32
(lp1521
S'42101 - CO_._7129'
p1522
asg35
g9
((ltRp1523
sg37
S'42101 - CO'
p1524
ssS'100009'
p1525
(dp1526
g32
(lp1527
S'81104 - PM2.5_._100009'
p1528
asg35
g9
((ltRp1529
sg37
S'81104 - PM2.5'
p1530
ssS'100008'
p1531
(dp1532
g32
(lp1533
S'81104 - PM2.5_._100008'
p1534
asg35
g9
((ltRp1535
sg37
S'81104 - PM2.5'
p1536
ssS'7046'
p1537
(dp1538
g32
(lp1539
S'42601 - NO_._7046'
p1540
asg35
g9
((ltRp1541
sg37
S'42601 - NO'
p1542
ssS'99936'
p1543
(dp1544
g32
(lp1545
S'61102 - DD_._99936'
p1546
asg35
g9
((ltRp1547
sg37
S'61102 - DD'
p1548
ssS'6532'
p1549
(dp1550
g32
(lp1551
S'81104 - PM2.5_._6532'
p1552
asg35
g9
((ltRp1553
sg37
S'81104 - PM2.5'
p1554
ssS'6928'
p1555
(dp1556
g32
(lp1557
S'16111 - Black Carbon_._6928'
p1558
asg35
g9
((ltRp1559
sg37
S'16111 - Black Carbon'
p1560
ssS'6530'
p1561
(dp1562
g32
(lp1563
S'44201 - O3_._6530'
p1564
asg35
g9
((ltRp1565
sg37
S'44201 - O3'
p1566
ssS'6531'
p1567
(dp1568
g32
(lp1569
S'81102 - PM10_._6531'
p1570
asg35
g9
((ltRp1571
sg37
S'81102 - PM10'
p1572
ssS'6925'
p1573
(dp1574
g32
(lp1575
S'44201 - O3_._6925'
p1576
asg35
g9
((ltRp1577
sg37
S'44201 - O3'
p1578
ssS'6924'
p1579
(dp1580
g32
(lp1581
S'42602 - NO2_._6924'
p1582
asg35
g9
((ltRp1583
sg37
S'42602 - NO2'
p1584
ssS'6927'
p1585
(dp1586
g32
(lp1587
S'81104 - PM2.5_._6927'
p1588
asg35
g9
((ltRp1589
sg37
S'81104 - PM2.5'
p1590
ssS'6926'
p1591
(dp1592
g32
(lp1593
S'81102 - PM10_._6926'
p1594
asg35
g9
((ltRp1595
sg37
S'81102 - PM10'
p1596
ssS'6921'
p1597
(dp1598
g32
(lp1599
S'89101 - PM1_._6921'
p1600
asg35
g9
((ltRp1601
sg37
S'89101 - PM1'
p1602
ssS'6920'
p1603
(dp1604
g32
(lp1605
S'81104 - PM2.5_._6920'
p1606
asg35
g9
((ltRp1607
sg37
S'81104 - PM2.5'
p1608
ssS'6923'
p1609
(dp1610
g32
(lp1611
S'42601 - NO_._6923'
p1612
asg35
g9
((ltRp1613
sg37
S'42601 - NO'
p1614
ssS'6284'
p1615
(dp1616
g32
(lp1617
S'45202 - C6H5-CH3_._6284'
p1618
asg35
g9
((ltRp1619
sg37
S'45202 - C6H5-CH3'
p1620
ssS'6285'
p1621
(dp1622
g32
(lp1623
S'45203 - C6H5-C2H5_._6285'
p1624
asg35
g9
((ltRp1625
sg37
S'45203 - C6H5-C2H5'
p1626
ssS'6286'
p1627
(dp1628
g32
(lp1629
S'45204 - o-C6H4-(CH3)2_._6286'
p1630
asg35
g9
((ltRp1631
sg37
S'45204 - o-C6H4-(CH3)2'
p1632
ssS'6280'
p1633
(dp1634
g32
(lp1635
S'42601 - NO_._6280'
p1636
asg35
g9
((ltRp1637
sg37
S'42601 - NO'
p1638
ssS'6281'
p1639
(dp1640
g32
(lp1641
S'42602 - NO2_._6281'
p1642
asg35
g9
((ltRp1643
sg37
S'42602 - NO2'
p1644
ssS'6282'
p1645
(dp1646
g32
(lp1647
S'45109 - m,p-C6H4(CH3)2_._6282'
p1648
asg35
g9
((ltRp1649
sg37
S'45109 - m,p-C6H4(CH3)2'
p1650
ssS'6283'
p1651
(dp1652
g32
(lp1653
S'45201 - C6H6_._6283'
p1654
asg35
g9
((ltRp1655
sg37
S'45201 - C6H6'
p1656
ssS'6368'
p1657
(dp1658
g32
(lp1659
S'81102 - PM10_._6368'
p1660
asg35
g9
((ltRp1661
sg37
S'81102 - PM10'
p1662
ssS'6361'
p1663
(dp1664
g32
(lp1665
S'42602 - NO2_._6361'
p1666
asg35
g9
((ltRp1667
sg37
S'42602 - NO2'
p1668
ssS'6360'
p1669
(dp1670
g32
(lp1671
S'42601 - NO_._6360'
p1672
asg35
g9
((ltRp1673
sg37
S'42601 - NO'
p1674
ssS'7218'
p1675
(dp1676
g32
(lp1677
S'42601 - NO_._7218'
p1678
asg35
g9
((ltRp1679
sg37
S'42601 - NO'
p1680
ssS'7219'
p1681
(dp1682
g32
(lp1683
S'42602 - NO2_._7219'
p1684
asg35
g9
((ltRp1685
sg37
S'42602 - NO2'
p1686
ssS'6407'
p1687
(dp1688
g32
(lp1689
S'42401 - SO2_._6407'
p1690
asg35
g9
((ltRp1691
sg37
S'42401 - SO2'
p1692
ssS'7210'
p1693
(dp1694
g32
(lp1695
S'42602 - NO2_._7210'
p1696
asg35
g9
((ltRp1697
sg37
S'42602 - NO2'
p1698
ssS'7217'
p1699
(dp1700
g32
(lp1701
S'42401 - SO2_._7217'
p1702
asg35
g9
((ltRp1703
sg37
S'42401 - SO2'
p1704
ssS'6217'
p1705
(dp1706
g32
(lp1707
S'42602 - NO2_._6217'
p1708
asg35
g9
((ltRp1709
sg37
S'42602 - NO2'
p1710
ssS'6216'
p1711
(dp1712
g32
(lp1713
S'42601 - NO_._6216'
p1714
asg35
g9
((ltRp1715
sg37
S'42601 - NO'
p1716
ssS'6215'
p1717
(dp1718
g32
(lp1719
S'42401 - SO2_._6215'
p1720
asg35
g9
((ltRp1721
sg37
S'42401 - SO2'
p1722
ssS'6218'
p1723
(dp1724
g32
(lp1725
S'81102 - PM10_._6218'
p1726
asg35
g9
((ltRp1727
sg37
S'81102 - PM10'
p1728
ssS'6813'
p1729
(dp1730
g32
(lp1731
S'42601 - NO_._6813'
p1732
asg35
g9
((ltRp1733
sg37
S'42601 - NO'
p1734
ssS'6812'
p1735
(dp1736
g32
(lp1737
S'42401 - SO2_._6812'
p1738
asg35
g9
((ltRp1739
sg37
S'42401 - SO2'
p1740
ssS'6815'
p1741
(dp1742
g32
(lp1743
S'42401 - SO2_._6815'
p1744
asg35
g9
((ltRp1745
sg37
S'42401 - SO2'
p1746
ssS'6814'
p1747
(dp1748
g32
(lp1749
S'42602 - NO2_._6814'
p1750
asg35
g9
((ltRp1751
sg37
S'42602 - NO2'
p1752
ssS'6817'
p1753
(dp1754
g32
(lp1755
S'42602 - NO2_._6817'
p1756
asg35
g9
((ltRp1757
sg37
S'42602 - NO2'
p1758
ssS'6816'
p1759
(dp1760
g32
(lp1761
S'42601 - NO_._6816'
p1762
asg35
g9
((ltRp1763
sg37
S'42601 - NO'
p1764
ssS'6744'
p1765
(dp1766
g32
(lp1767
S'44201 - O3_._6744'
p1768
asg35
g9
((ltRp1769
sg37
S'44201 - O3'
p1770
ssS'6747'
p1771
(dp1772
g32
(lp1773
S'42602 - NO2_._6747'
p1774
asg35
g9
((ltRp1775
sg37
S'42602 - NO2'
p1776
ssS'6746'
p1777
(dp1778
g32
(lp1779
S'42601 - NO_._6746'
p1780
asg35
g9
((ltRp1781
sg37
S'42601 - NO'
p1782
ssS'6740'
p1783
(dp1784
g32
(lp1785
S'81104 - PM2.5_._6740'
p1786
asg35
g9
((ltRp1787
sg37
S'81104 - PM2.5'
p1788
ssS'6743'
p1789
(dp1790
g32
(lp1791
S'42602 - NO2_._6743'
p1792
asg35
g9
((ltRp1793
sg37
S'42602 - NO2'
p1794
ssS'6742'
p1795
(dp1796
g32
(lp1797
S'42601 - NO_._6742'
p1798
asg35
g9
((ltRp1799
sg37
S'42601 - NO'
p1800
ssS'6626'
p1801
(dp1802
g32
(lp1803
S'81102 - PM10_._6626'
p1804
asg35
g9
((ltRp1805
sg37
S'81102 - PM10'
p1806
ssS'6627'
p1807
(dp1808
g32
(lp1809
S'81104 - PM2.5_._6627'
p1810
asg35
g9
((ltRp1811
sg37
S'81104 - PM2.5'
p1812
ssS'6625'
p1813
(dp1814
g32
(lp1815
S'44201 - O3_._6625'
p1816
asg35
g9
((ltRp1817
sg37
S'44201 - O3'
p1818
ssS'6749'
p1819
(dp1820
g32
(lp1821
S'81102 - PM10_._6749'
p1822
asg35
g9
((ltRp1823
sg37
S'81102 - PM10'
p1824
ssS'6748'
p1825
(dp1826
g32
(lp1827
S'44201 - O3_._6748'
p1828
asg35
g9
((ltRp1829
sg37
S'44201 - O3'
p1830
ssS'6620'
p1831
(dp1832
g32
(lp1833
S'42401 - SO2_._6620'
p1834
asg35
g9
((ltRp1835
sg37
S'42401 - SO2'
p1836
ssS'6621'
p1837
(dp1838
g32
(lp1839
S'42601 - NO_._6621'
p1840
asg35
g9
((ltRp1841
sg37
S'42601 - NO'
p1842
ssS'7120'
p1843
(dp1844
g32
(lp1845
S'42401 - SO2_._7120'
p1846
asg35
g9
((ltRp1847
sg37
S'42401 - SO2'
p1848
ssS'7103'
p1849
(dp1850
g32
(lp1851
S'42401 - SO2_._7103'
p1852
asg35
g9
((ltRp1853
sg37
S'42401 - SO2'
p1854
ssS'6868'
p1855
(dp1856
g32
(lp1857
S'42401 - SO2_._6868'
p1858
asg35
g9
((ltRp1859
sg37
S'42401 - SO2'
p1860
ssS'6869'
p1861
(dp1862
g32
(lp1863
S'42601 - NO_._6869'
p1864
asg35
g9
((ltRp1865
sg37
S'42601 - NO'
p1866
ssS'7106'
p1867
(dp1868
g32
(lp1869
S'81102 - PM10_._7106'
p1870
asg35
g9
((ltRp1871
sg37
S'81102 - PM10'
p1872
ssS'7107'
p1873
(dp1874
g32
(lp1875
S'81104 - PM2.5_._7107'
p1876
asg35
g9
((ltRp1877
sg37
S'81104 - PM2.5'
p1878
ssS'6864'
p1879
(dp1880
g32
(lp1881
S'42401 - SO2_._6864'
p1882
asg35
g9
((ltRp1883
sg37
S'42401 - SO2'
p1884
ssS'6865'
p1885
(dp1886
g32
(lp1887
S'42601 - NO_._6865'
p1888
asg35
g9
((ltRp1889
sg37
S'42601 - NO'
p1890
ssS'6866'
p1891
(dp1892
g32
(lp1893
S'42602 - NO2_._6866'
p1894
asg35
g9
((ltRp1895
sg37
S'42602 - NO2'
p1896
ssS'6860'
p1897
(dp1898
g32
(lp1899
S'42401 - SO2_._6860'
p1900
asg35
g9
((ltRp1901
sg37
S'42401 - SO2'
p1902
ssS'6861'
p1903
(dp1904
g32
(lp1905
S'42601 - NO_._6861'
p1906
asg35
g9
((ltRp1907
sg37
S'42601 - NO'
p1908
ssS'6862'
p1909
(dp1910
g32
(lp1911
S'42602 - NO2_._6862'
p1912
asg35
g9
((ltRp1913
sg37
S'42602 - NO2'
p1914
ssS'7069'
p1915
(dp1916
g32
(lp1917
S'81102 - PM10_._7069'
p1918
asg35
g9
((ltRp1919
sg37
S'81102 - PM10'
p1920
ssS'7068'
p1921
(dp1922
g32
(lp1923
S'44201 - O3_._7068'
p1924
asg35
g9
((ltRp1925
sg37
S'44201 - O3'
p1926
ssS'7067'
p1927
(dp1928
g32
(lp1929
S'42602 - NO2_._7067'
p1930
asg35
g9
((ltRp1931
sg37
S'42602 - NO2'
p1932
ssS'7066'
p1933
(dp1934
g32
(lp1935
S'42601 - NO_._7066'
p1936
asg35
g9
((ltRp1937
sg37
S'42601 - NO'
p1938
ssS'7065'
p1939
(dp1940
g32
(lp1941
S'42401 - SO2_._7065'
p1942
asg35
g9
((ltRp1943
sg37
S'42401 - SO2'
p1944
ssS'7064'
p1945
(dp1946
g32
(lp1947
S'44201 - O3_._7064'
p1948
asg35
g9
((ltRp1949
sg37
S'44201 - O3'
p1950
ssS'7063'
p1951
(dp1952
g32
(lp1953
S'42602 - NO2_._7063'
p1954
asg35
g9
((ltRp1955
sg37
S'42602 - NO2'
p1956
ssS'7062'
p1957
(dp1958
g32
(lp1959
S'42601 - NO_._7062'
p1960
asg35
g9
((ltRp1961
sg37
S'42601 - NO'
p1962
ssS'6961'
p1963
(dp1964
g32
(lp1965
S'42602 - NO2_._6961'
p1966
asg35
g9
((ltRp1967
sg37
S'42602 - NO2'
p1968
ssS'6960'
p1969
(dp1970
g32
(lp1971
S'42601 - NO_._6960'
p1972
asg35
g9
((ltRp1973
sg37
S'42601 - NO'
p1974
ssS'6963'
p1975
(dp1976
g32
(lp1977
S'81102 - PM10_._6963'
p1978
asg35
g9
((ltRp1979
sg37
S'81102 - PM10'
p1980
ssS'6962'
p1981
(dp1982
g32
(lp1983
S'44201 - O3_._6962'
p1984
asg35
g9
((ltRp1985
sg37
S'44201 - O3'
p1986
ssS'6965'
p1987
(dp1988
g32
(lp1989
S'42101 - CO_._6965'
p1990
asg35
g9
((ltRp1991
sg37
S'42101 - CO'
p1992
ssS'6964'
p1993
(dp1994
g32
(lp1995
S'81104 - PM2.5_._6964'
p1996
asg35
g9
((ltRp1997
sg37
S'81104 - PM2.5'
p1998
ssS'6967'
p1999
(dp2000
g32
(lp2001
S'42601 - NO_._6967'
p2002
asg35
g9
((ltRp2003
sg37
S'42601 - NO'
p2004
ssS'6966'
p2005
(dp2006
g32
(lp2007
S'42401 - SO2_._6966'
p2008
asg35
g9
((ltRp2009
sg37
S'42401 - SO2'
p2010
ssS'6969'
p2011
(dp2012
g32
(lp2013
S'44201 - O3_._6969'
p2014
asg35
g9
((ltRp2015
sg37
S'44201 - O3'
p2016
ssS'6968'
p2017
(dp2018
g32
(lp2019
S'42602 - NO2_._6968'
p2020
asg35
g9
((ltRp2021
sg37
S'42602 - NO2'
p2022
ssS'7193'
p2023
(dp2024
g32
(lp2025
S'42401 - SO2_._7193'
p2026
asg35
g9
((ltRp2027
sg37
S'42401 - SO2'
p2028
ssS'7192'
p2029
(dp2030
g32
(lp2031
S'42602 - NO2_._7192'
p2032
asg35
g9
((ltRp2033
sg37
S'42602 - NO2'
p2034
ssS'7191'
p2035
(dp2036
g32
(lp2037
S'42601 - NO_._7191'
p2038
asg35
g9
((ltRp2039
sg37
S'42601 - NO'
p2040
ssS'7195'
p2041
(dp2042
g32
(lp2043
S'42602 - NO2_._7195'
p2044
asg35
g9
((ltRp2045
sg37
S'42602 - NO2'
p2046
ssS'7194'
p2047
(dp2048
g32
(lp2049
S'42601 - NO_._7194'
p2050
asg35
g9
((ltRp2051
sg37
S'42601 - NO'
p2052
ssS'99926'
p2053
(dp2054
g32
(lp2055
S'62101 - TT_._99926'
p2056
asg35
g9
((ltRp2057
sg37
S'62101 - TT'
p2058
ssS'6914'
p2059
(dp2060
g32
(lp2061
S'42101 - CO_._6914'
p2062
asg35
g9
((ltRp2063
sg37
S'42101 - CO'
p2064
ssS'6915'
p2065
(dp2066
g32
(lp2067
S'42401 - SO2_._6915'
p2068
asg35
g9
((ltRp2069
sg37
S'42401 - SO2'
p2070
ssS'6916'
p2071
(dp2072
g32
(lp2073
S'42601 - NO_._6916'
p2074
asg35
g9
((ltRp2075
sg37
S'42601 - NO'
p2076
ssS'6917'
p2077
(dp2078
g32
(lp2079
S'42602 - NO2_._6917'
p2080
asg35
g9
((ltRp2081
sg37
S'42602 - NO2'
p2082
ssS'6910'
p2083
(dp2084
g32
(lp2085
S'89101 - PM1_._6910'
p2086
asg35
g9
((ltRp2087
sg37
S'89101 - PM1'
p2088
ssS'6911'
p2089
(dp2090
g32
(lp2091
S'81102 - PM10_._6911'
p2092
asg35
g9
((ltRp2093
sg37
S'81102 - PM10'
p2094
ssS'6912'
p2095
(dp2096
g32
(lp2097
S'81104 - PM2.5_._6912'
p2098
asg35
g9
((ltRp2099
sg37
S'81104 - PM2.5'
p2100
ssS'6913'
p2101
(dp2102
g32
(lp2103
S'89101 - PM1_._6913'
p2104
asg35
g9
((ltRp2105
sg37
S'89101 - PM1'
p2106
ssS'6918'
p2107
(dp2108
g32
(lp2109
S'44201 - O3_._6918'
p2110
asg35
g9
((ltRp2111
sg37
S'44201 - O3'
p2112
ssS'6919'
p2113
(dp2114
g32
(lp2115
S'81102 - PM10_._6919'
p2116
asg35
g9
((ltRp2117
sg37
S'81102 - PM10'
p2118
ssS'7221'
p2119
(dp2120
g32
(lp2121
S'42601 - NO_._7221'
p2122
asg35
g9
((ltRp2123
sg37
S'42601 - NO'
p2124
ssS'6569'
p2125
(dp2126
g32
(lp2127
S'16111 - Black Carbon_._6569'
p2128
asg35
g9
((ltRp2129
sg37
S'16111 - Black Carbon'
p2130
ssS'99939'
p2131
(dp2132
g32
(lp2133
S'61102 - DD_._99939'
p2134
asg35
g9
((ltRp2135
sg37
S'61102 - DD'
p2136
ssS'7220'
p2137
(dp2138
g32
(lp2139
S'42401 - SO2_._7220'
p2140
asg35
g9
((ltRp2141
sg37
S'42401 - SO2'
p2142
ssS'6564'
p2143
(dp2144
g32
(lp2145
S'81104 - PM2.5_._6564'
p2146
asg35
g9
((ltRp2147
sg37
S'81104 - PM2.5'
p2148
ssS'99938'
p2149
(dp2150
g32
(lp2151
S'62101 - TT_._99938'
p2152
asg35
g9
((ltRp2153
sg37
S'62101 - TT'
p2154
ssS'6561'
p2155
(dp2156
g32
(lp2157
S'42602 - NO2_._6561'
p2158
asg35
g9
((ltRp2159
sg37
S'42602 - NO2'
p2160
ssS'6560'
p2161
(dp2162
g32
(lp2163
S'42601 - NO_._6560'
p2164
asg35
g9
((ltRp2165
sg37
S'42601 - NO'
p2166
ssS'6563'
p2167
(dp2168
g32
(lp2169
S'81102 - PM10_._6563'
p2170
asg35
g9
((ltRp2171
sg37
S'81102 - PM10'
p2172
ssS'6562'
p2173
(dp2174
g32
(lp2175
S'44201 - O3_._6562'
p2176
asg35
g9
((ltRp2177
sg37
S'44201 - O3'
p2178
ssS'10611'
p2179
(dp2180
g32
(lp2181
S'42602 - NO2_._10611'
p2182
asg35
g9
((ltRp2183
sg37
S'42602 - NO2'
p2184
ssS'10610'
p2185
(dp2186
g32
(lp2187
S'81102 - PM10_._10610'
p2188
asg35
g9
((ltRp2189
sg37
S'81102 - PM10'
p2190
ssS'10613'
p2191
(dp2192
g32
(lp2193
S'42601 - NO_._10613'
p2194
asg35
g9
((ltRp2195
sg37
S'42601 - NO'
p2196
ssS'10612'
p2197
(dp2198
g32
(lp2199
S'42601 - NO_._10612'
p2200
asg35
g9
((ltRp2201
sg37
S'42601 - NO'
p2202
ssS'10615'
p2203
(dp2204
g32
(lp2205
S'42401 - SO2_._10615'
p2206
asg35
g9
((ltRp2207
sg37
S'42401 - SO2'
p2208
ssS'10614'
p2209
(dp2210
g32
(lp2211
S'42602 - NO2_._10614'
p2212
asg35
g9
((ltRp2213
sg37
S'42602 - NO2'
p2214
ssS'10616'
p2215
(dp2216
g32
(lp2217
S'42101 - CO_._10616'
p2218
asg35
g9
((ltRp2219
sg37
S'42101 - CO'
p2220
ssS'99935'
p2221
(dp2222
g32
(lp2223
S'62101 - TT_._99935'
p2224
asg35
g9
((ltRp2225
sg37
S'62101 - TT'
p2226
ssS'7115'
p2227
(dp2228
g32
(lp2229
S'44201 - O3_._7115'
p2230
asg35
g9
((ltRp2231
sg37
S'44201 - O3'
p2232
ssS'6709'
p2233
(dp2234
g32
(lp2235
S'42601 - NO_._6709'
p2236
asg35
g9
((ltRp2237
sg37
S'42601 - NO'
p2238
ssS'7229'
p2239
(dp2240
g32
(lp2241
S'42401 - SO2_._7229'
p2242
asg35
g9
((ltRp2243
sg37
S'42401 - SO2'
p2244
ssS'99931'
p2245
(dp2246
g32
(lp2247
S'61110 - WSP-SCA_._99931'
p2248
asg35
g9
((ltRp2249
sg37
S'61110 - WSP-SCA'
p2250
ssS'7228'
p2251
(dp2252
g32
(lp2253
S'42602 - NO2_._7228'
p2254
asg35
g9
((ltRp2255
sg37
S'42602 - NO2'
p2256
ssS'6701'
p2257
(dp2258
g32
(lp2259
S'42601 - NO_._6701'
p2260
asg35
g9
((ltRp2261
sg37
S'42601 - NO'
p2262
ssS'6700'
p2263
(dp2264
g32
(lp2265
S'42401 - SO2_._6700'
p2266
asg35
g9
((ltRp2267
sg37
S'42401 - SO2'
p2268
ssS'6703'
p2269
(dp2270
g32
(lp2271
S'44201 - O3_._6703'
p2272
asg35
g9
((ltRp2273
sg37
S'44201 - O3'
p2274
ssS'6702'
p2275
(dp2276
g32
(lp2277
S'42602 - NO2_._6702'
p2278
asg35
g9
((ltRp2279
sg37
S'42602 - NO2'
p2280
ssS'6704'
p2281
(dp2282
g32
(lp2283
S'81102 - PM10_._6704'
p2284
asg35
g9
((ltRp2285
sg37
S'81102 - PM10'
p2286
ssS'6824'
p2287
(dp2288
g32
(lp2289
S'42401 - SO2_._6824'
p2290
asg35
g9
((ltRp2291
sg37
S'42401 - SO2'
p2292
ssS'6825'
p2293
(dp2294
g32
(lp2295
S'42601 - NO_._6825'
p2296
asg35
g9
((ltRp2297
sg37
S'42601 - NO'
p2298
ssS'6826'
p2299
(dp2300
g32
(lp2301
S'42602 - NO2_._6826'
p2302
asg35
g9
((ltRp2303
sg37
S'42602 - NO2'
p2304
ssS'6828'
p2305
(dp2306
g32
(lp2307
S'42401 - SO2_._6828'
p2308
asg35
g9
((ltRp2309
sg37
S'42401 - SO2'
p2310
ssS'6829'
p2311
(dp2312
g32
(lp2313
S'42601 - NO_._6829'
p2314
asg35
g9
((ltRp2315
sg37
S'42601 - NO'
p2316
ssS'6675'
p2317
(dp2318
g32
(lp2319
S'45204 - o-C6H4-(CH3)2_._6675'
p2320
asg35
g9
((ltRp2321
sg37
S'45204 - o-C6H4-(CH3)2'
p2322
ssS'6674'
p2323
(dp2324
g32
(lp2325
S'45203 - C6H5-C2H5_._6674'
p2326
asg35
g9
((ltRp2327
sg37
S'45203 - C6H5-C2H5'
p2328
ssS'7021'
p2329
(dp2330
g32
(lp2331
S'81102 - PM10_._7021'
p2332
asg35
g9
((ltRp2333
sg37
S'81102 - PM10'
p2334
ssS'7020'
p2335
(dp2336
g32
(lp2337
S'44201 - O3_._7020'
p2338
asg35
g9
((ltRp2339
sg37
S'44201 - O3'
p2340
ssS'6671'
p2341
(dp2342
g32
(lp2343
S'45109 - m,p-C6H4(CH3)2_._6671'
p2344
asg35
g9
((ltRp2345
sg37
S'45109 - m,p-C6H4(CH3)2'
p2346
ssS'7026'
p2347
(dp2348
g32
(lp2349
S'42602 - NO2_._7026'
p2350
asg35
g9
((ltRp2351
sg37
S'42602 - NO2'
p2352
ssS'6673'
p2353
(dp2354
g32
(lp2355
S'45202 - C6H5-CH3_._6673'
p2356
asg35
g9
((ltRp2357
sg37
S'45202 - C6H5-CH3'
p2358
ssS'6672'
p2359
(dp2360
g32
(lp2361
S'45201 - C6H6_._6672'
p2362
asg35
g9
((ltRp2363
sg37
S'45201 - C6H6'
p2364
ssS'7029'
p2365
(dp2366
g32
(lp2367
S'16111 - Black Carbon_._7029'
p2368
asg35
g9
((ltRp2369
sg37
S'16111 - Black Carbon'
p2370
ssS'7023'
p2371
(dp2372
g32
(lp2373
S'89101 - PM1_._7023'
p2374
asg35
g9
((ltRp2375
sg37
S'89101 - PM1'
p2376
ssS'6778'
p2377
(dp2378
g32
(lp2379
S'44201 - O3_._6778'
p2380
asg35
g9
((ltRp2381
sg37
S'44201 - O3'
p2382
ssS'6779'
p2383
(dp2384
g32
(lp2385
S'45109 - m,p-C6H4(CH3)2_._6779'
p2386
asg35
g9
((ltRp2387
sg37
S'45109 - m,p-C6H4(CH3)2'
p2388
ssS'7022'
p2389
(dp2390
g32
(lp2391
S'81104 - PM2.5_._7022'
p2392
asg35
g9
((ltRp2393
sg37
S'81104 - PM2.5'
p2394
ssS'6774'
p2395
(dp2396
g32
(lp2397
S'42401 - SO2_._6774'
p2398
asg35
g9
((ltRp2399
sg37
S'42401 - SO2'
p2400
ssS'6775'
p2401
(dp2402
g32
(lp2403
S'42601 - NO_._6775'
p2404
asg35
g9
((ltRp2405
sg37
S'42601 - NO'
p2406
ssS'6776'
p2407
(dp2408
g32
(lp2409
S'42602 - NO2_._6776'
p2410
asg35
g9
((ltRp2411
sg37
S'42602 - NO2'
p2412
ssS'6771'
p2413
(dp2414
g32
(lp2415
S'81102 - PM10_._6771'
p2416
asg35
g9
((ltRp2417
sg37
S'81102 - PM10'
p2418
ssS'6773'
p2419
(dp2420
g32
(lp2421
S'42101 - CO_._6773'
p2422
asg35
g9
((ltRp2423
sg37
S'42101 - CO'
p2424
ssS'7025'
p2425
(dp2426
g32
(lp2427
S'42601 - NO_._7025'
p2428
asg35
g9
((ltRp2429
sg37
S'42601 - NO'
p2430
ssS'7054'
p2431
(dp2432
g32
(lp2433
S'81102 - PM10_._7054'
p2434
asg35
g9
((ltRp2435
sg37
S'81102 - PM10'
p2436
ssS'7055'
p2437
(dp2438
g32
(lp2439
S'81104 - PM2.5_._7055'
p2440
asg35
g9
((ltRp2441
sg37
S'81104 - PM2.5'
p2442
ssS'7096'
p2443
(dp2444
g32
(lp2445
S'42601 - NO_._7096'
p2446
asg35
g9
((ltRp2447
sg37
S'42601 - NO'
p2448
ssS'7097'
p2449
(dp2450
g32
(lp2451
S'42602 - NO2_._7097'
p2452
asg35
g9
((ltRp2453
sg37
S'42602 - NO2'
p2454
ssS'99900'
p2455
(dp2456
g32
(lp2457
S'61102 - DD_._99900'
p2458
asg35
g9
((ltRp2459
sg37
S'61102 - DD'
p2460
ssS'7095'
p2461
(dp2462
g32
(lp2463
S'42401 - SO2_._7095'
p2464
asg35
g9
((ltRp2465
sg37
S'42401 - SO2'
p2466
ssS'7092'
p2467
(dp2468
g32
(lp2469
S'81102 - PM10_._7092'
p2470
asg35
g9
((ltRp2471
sg37
S'81102 - PM10'
p2472
ssS'99907'
p2473
(dp2474
g32
(lp2475
S'61110 - WSP-SCA_._99907'
p2476
asg35
g9
((ltRp2477
sg37
S'61110 - WSP-SCA'
p2478
ssS'7090'
p2479
(dp2480
g32
(lp2481
S'42602 - NO2_._7090'
p2482
asg35
g9
((ltRp2483
sg37
S'42602 - NO2'
p2484
ssS'7091'
p2485
(dp2486
g32
(lp2487
S'44201 - O3_._7091'
p2488
asg35
g9
((ltRp2489
sg37
S'44201 - O3'
p2490
ssS'7157'
p2491
(dp2492
g32
(lp2493
S'42101 - CO_._7157'
p2494
asg35
g9
((ltRp2495
sg37
S'42101 - CO'
p2496
ssS'7155'
p2497
(dp2498
g32
(lp2499
S'16111 - Black Carbon_._7155'
p2500
asg35
g9
((ltRp2501
sg37
S'16111 - Black Carbon'
p2502
ssS'99909'
p2503
(dp2504
g32
(lp2505
S'61102 - DD_._99909'
p2506
asg35
g9
((ltRp2507
sg37
S'61102 - DD'
p2508
ssS'7153'
p2509
(dp2510
g32
(lp2511
S'89101 - PM1_._7153'
p2512
asg35
g9
((ltRp2513
sg37
S'89101 - PM1'
p2514
ssS'7152'
p2515
(dp2516
g32
(lp2517
S'81104 - PM2.5_._7152'
p2518
asg35
g9
((ltRp2519
sg37
S'81104 - PM2.5'
p2520
ssS'7151'
p2521
(dp2522
g32
(lp2523
S'81102 - PM10_._7151'
p2524
asg35
g9
((ltRp2525
sg37
S'81102 - PM10'
p2526
ssS'6688'
p2527
(dp2528
g32
(lp2529
S'42401 - SO2_._6688'
p2530
asg35
g9
((ltRp2531
sg37
S'42401 - SO2'
p2532
ssS'6689'
p2533
(dp2534
g32
(lp2535
S'42601 - NO_._6689'
p2536
asg35
g9
((ltRp2537
sg37
S'42601 - NO'
p2538
ssS'6687'
p2539
(dp2540
g32
(lp2541
S'16111 - Black Carbon_._6687'
p2542
asg35
g9
((ltRp2543
sg37
S'16111 - Black Carbon'
p2544
ssS'99905'
p2545
(dp2546
g32
(lp2547
S'62101 - TT_._99905'
p2548
asg35
g9
((ltRp2549
sg37
S'62101 - TT'
p2550
ssS'6509'
p2551
(dp2552
g32
(lp2553
S'44201 - O3_._6509'
p2554
asg35
g9
((ltRp2555
sg37
S'44201 - O3'
p2556
ssS'6521'
p2557
(dp2558
g32
(lp2559
S'45203 - C6H5-C2H5_._6521'
p2560
asg35
g9
((ltRp2561
sg37
S'45203 - C6H5-C2H5'
p2562
ssS'6520'
p2563
(dp2564
g32
(lp2565
S'45202 - C6H5-CH3_._6520'
p2566
asg35
g9
((ltRp2567
sg37
S'45202 - C6H5-CH3'
p2568
ssS'6488'
p2569
(dp2570
g32
(lp2571
S'45202 - C6H5-CH3_._6488'
p2572
asg35
g9
((ltRp2573
sg37
S'45202 - C6H5-CH3'
p2574
ssS'6522'
p2575
(dp2576
g32
(lp2577
S'45204 - o-C6H4-(CH3)2_._6522'
p2578
asg35
g9
((ltRp2579
sg37
S'45204 - o-C6H4-(CH3)2'
p2580
ssS'6527'
p2581
(dp2582
g32
(lp2583
S'42601 - NO_._6527'
p2584
asg35
g9
((ltRp2585
sg37
S'42601 - NO'
p2586
ssS'6950'
p2587
(dp2588
g32
(lp2589
S'81102 - PM10_._6950'
p2590
asg35
g9
((ltRp2591
sg37
S'81102 - PM10'
p2592
ssS'6528'
p2593
(dp2594
g32
(lp2595
S'42602 - NO2_._6528'
p2596
asg35
g9
((ltRp2597
sg37
S'42602 - NO2'
p2598
ssS'6952'
p2599
(dp2600
g32
(lp2601
S'89101 - PM1_._6952'
p2602
asg35
g9
((ltRp2603
sg37
S'89101 - PM1'
p2604
ssS'6486'
p2605
(dp2606
g32
(lp2607
S'45109 - m,p-C6H4(CH3)2_._6486'
p2608
asg35
g9
((ltRp2609
sg37
S'45109 - m,p-C6H4(CH3)2'
p2610
ssS'6487'
p2611
(dp2612
g32
(lp2613
S'45201 - C6H6_._6487'
p2614
asg35
g9
((ltRp2615
sg37
S'45201 - C6H6'
p2616
ssS'6956'
p2617
(dp2618
g32
(lp2619
S'44201 - O3_._6956'
p2620
asg35
g9
((ltRp2621
sg37
S'44201 - O3'
p2622
ssS'6957'
p2623
(dp2624
g32
(lp2625
S'81102 - PM10_._6957'
p2626
asg35
g9
((ltRp2627
sg37
S'81102 - PM10'
p2628
ssS'6356'
p2629
(dp2630
g32
(lp2631
S'81104 - PM2.5_._6356'
p2632
asg35
g9
((ltRp2633
sg37
S'81104 - PM2.5'
p2634
ssS'6196'
p2635
(dp2636
g32
(lp2637
S'81102 - PM10_._6196'
p2638
asg35
g9
((ltRp2639
sg37
S'81102 - PM10'
p2640
ssS'6198'
p2641
(dp2642
g32
(lp2643
S'42401 - SO2_._6198'
p2644
asg35
g9
((ltRp2645
sg37
S'42401 - SO2'
p2646
ssS'6199'
p2647
(dp2648
g32
(lp2649
S'42601 - NO_._6199'
p2650
asg35
g9
((ltRp2651
sg37
S'42601 - NO'
p2652
ssS'7148'
p2653
(dp2654
g32
(lp2655
S'81102 - PM10_._7148'
p2656
asg35
g9
((ltRp2657
sg37
S'81102 - PM10'
p2658
ssS'6951'
p2659
(dp2660
g32
(lp2661
S'81104 - PM2.5_._6951'
p2662
asg35
g9
((ltRp2663
sg37
S'81104 - PM2.5'
p2664
ssS'7209'
p2665
(dp2666
g32
(lp2667
S'42601 - NO_._7209'
p2668
asg35
g9
((ltRp2669
sg37
S'42601 - NO'
p2670
ssS'7208'
p2671
(dp2672
g32
(lp2673
S'42401 - SO2_._7208'
p2674
asg35
g9
((ltRp2675
sg37
S'42401 - SO2'
p2676
ssS'6550'
p2677
(dp2678
g32
(lp2679
S'42601 - NO_._6550'
p2680
asg35
g9
((ltRp2681
sg37
S'42601 - NO'
p2682
ssS'6551'
p2683
(dp2684
g32
(lp2685
S'42602 - NO2_._6551'
p2686
asg35
g9
((ltRp2687
sg37
S'42602 - NO2'
p2688
ssS'6552'
p2689
(dp2690
g32
(lp2691
S'81102 - PM10_._6552'
p2692
asg35
g9
((ltRp2693
sg37
S'81102 - PM10'
p2694
ssS'6553'
p2695
(dp2696
g32
(lp2697
S'81104 - PM2.5_._6553'
p2698
asg35
g9
((ltRp2699
sg37
S'81104 - PM2.5'
p2700
ssS'7203'
p2701
(dp2702
g32
(lp2703
S'42601 - NO_._7203'
p2704
asg35
g9
((ltRp2705
sg37
S'42601 - NO'
p2706
ssS'6622'
p2707
(dp2708
g32
(lp2709
S'42602 - NO2_._6622'
p2710
asg35
g9
((ltRp2711
sg37
S'42602 - NO2'
p2712
ssS'7201'
p2713
(dp2714
g32
(lp2715
S'42602 - NO2_._7201'
p2716
asg35
g9
((ltRp2717
sg37
S'42602 - NO2'
p2718
ssS'7200'
p2719
(dp2720
g32
(lp2721
S'42601 - NO_._7200'
p2722
asg35
g9
((ltRp2723
sg37
S'42601 - NO'
p2724
ssS'6558'
p2725
(dp2726
g32
(lp2727
S'42101 - CO_._6558'
p2728
asg35
g9
((ltRp2729
sg37
S'42101 - CO'
p2730
ssS'6559'
p2731
(dp2732
g32
(lp2733
S'42401 - SO2_._6559'
p2734
asg35
g9
((ltRp2735
sg37
S'42401 - SO2'
p2736
ssS'7204'
p2737
(dp2738
g32
(lp2739
S'42602 - NO2_._7204'
p2740
asg35
g9
((ltRp2741
sg37
S'42602 - NO2'
p2742
ssS'7119'
p2743
(dp2744
g32
(lp2745
S'42101 - CO_._7119'
p2746
asg35
g9
((ltRp2747
sg37
S'42101 - CO'
p2748
ssS'6639'
p2749
(dp2750
g32
(lp2751
S'42602 - NO2_._6639'
p2752
asg35
g9
((ltRp2753
sg37
S'42602 - NO2'
p2754
ssS'6731'
p2755
(dp2756
g32
(lp2757
S'44201 - O3_._6731'
p2758
asg35
g9
((ltRp2759
sg37
S'44201 - O3'
p2760
ssS'6732'
p2761
(dp2762
g32
(lp2763
S'45109 - m,p-C6H4(CH3)2_._6732'
p2764
asg35
g9
((ltRp2765
sg37
S'45109 - m,p-C6H4(CH3)2'
p2766
ssS'6733'
p2767
(dp2768
g32
(lp2769
S'45201 - C6H6_._6733'
p2770
asg35
g9
((ltRp2771
sg37
S'45201 - C6H6'
p2772
ssS'6734'
p2773
(dp2774
g32
(lp2775
S'45202 - C6H5-CH3_._6734'
p2776
asg35
g9
((ltRp2777
sg37
S'45202 - C6H5-CH3'
p2778
ssS'6735'
p2779
(dp2780
g32
(lp2781
S'45203 - C6H5-C2H5_._6735'
p2782
asg35
g9
((ltRp2783
sg37
S'45203 - C6H5-C2H5'
p2784
ssS'6736'
p2785
(dp2786
g32
(lp2787
S'45204 - o-C6H4-(CH3)2_._6736'
p2788
asg35
g9
((ltRp2789
sg37
S'45204 - o-C6H4-(CH3)2'
p2790
ssS'6739'
p2791
(dp2792
g32
(lp2793
S'81102 - PM10_._6739'
p2794
asg35
g9
((ltRp2795
sg37
S'81102 - PM10'
p2796
ssS'6633'
p2797
(dp2798
g32
(lp2799
S'16111 - Black Carbon_._6633'
p2800
asg35
g9
((ltRp2801
sg37
S'16111 - Black Carbon'
p2802
ssS'6635'
p2803
(dp2804
g32
(lp2805
S'42101 - CO_._6635'
p2806
asg35
g9
((ltRp2807
sg37
S'42101 - CO'
p2808
ssS'6637'
p2809
(dp2810
g32
(lp2811
S'42401 - SO2_._6637'
p2812
asg35
g9
((ltRp2813
sg37
S'42401 - SO2'
p2814
ssS'6636'
p2815
(dp2816
g32
(lp2817
S'42102 - CO2_._6636'
p2818
asg35
g9
((ltRp2819
sg37
S'42102 - CO2'
p2820
ssS'7111'
p2821
(dp2822
g32
(lp2823
S'42602 - NO2_._7111'
p2824
asg35
g9
((ltRp2825
sg37
S'42602 - NO2'
p2826
ssS'7110'
p2827
(dp2828
g32
(lp2829
S'42601 - NO_._7110'
p2830
asg35
g9
((ltRp2831
sg37
S'42601 - NO'
p2832
ssS'7117'
p2833
(dp2834
g32
(lp2835
S'81102 - PM10_._7117'
p2836
asg35
g9
((ltRp2837
sg37
S'81102 - PM10'
p2838
ssS'6879'
p2839
(dp2840
g32
(lp2841
S'42401 - SO2_._6879'
p2842
asg35
g9
((ltRp2843
sg37
S'42401 - SO2'
p2844
ssS'6875'
p2845
(dp2846
g32
(lp2847
S'42602 - NO2_._6875'
p2848
asg35
g9
((ltRp2849
sg37
S'42602 - NO2'
p2850
ssS'6874'
p2851
(dp2852
g32
(lp2853
S'42601 - NO_._6874'
p2854
asg35
g9
((ltRp2855
sg37
S'42601 - NO'
p2856
ssS'6873'
p2857
(dp2858
g32
(lp2859
S'42401 - SO2_._6873'
p2860
asg35
g9
((ltRp2861
sg37
S'42401 - SO2'
p2862
ssS'6870'
p2863
(dp2864
g32
(lp2865
S'42602 - NO2_._6870'
p2866
asg35
g9
((ltRp2867
sg37
S'42602 - NO2'
p2868
ssS'7052'
p2869
(dp2870
g32
(lp2871
S'45203 - C6H5-C2H5_._7052'
p2872
asg35
g9
((ltRp2873
sg37
S'45203 - C6H5-C2H5'
p2874
ssS'7053'
p2875
(dp2876
g32
(lp2877
S'45204 - o-C6H4-(CH3)2_._7053'
p2878
asg35
g9
((ltRp2879
sg37
S'45204 - o-C6H4-(CH3)2'
p2880
ssS'7050'
p2881
(dp2882
g32
(lp2883
S'45201 - C6H6_._7050'
p2884
asg35
g9
((ltRp2885
sg37
S'45201 - C6H6'
p2886
ssS'7051'
p2887
(dp2888
g32
(lp2889
S'45202 - C6H5-CH3_._7051'
p2890
asg35
g9
((ltRp2891
sg37
S'45202 - C6H5-CH3'
p2892
ssS'6642'
p2893
(dp2894
g32
(lp2895
S'44201 - O3_._6642'
p2896
asg35
g9
((ltRp2897
sg37
S'44201 - O3'
p2898
ssS'6643'
p2899
(dp2900
g32
(lp2901
S'81102 - PM10_._6643'
p2902
asg35
g9
((ltRp2903
sg37
S'81102 - PM10'
p2904
ssS'7125'
p2905
(dp2906
g32
(lp2907
S'81102 - PM10_._7125'
p2908
asg35
g9
((ltRp2909
sg37
S'81102 - PM10'
p2910
ssS'6998'
p2911
(dp2912
g32
(lp2913
S'42602 - NO2_._6998'
p2914
asg35
g9
((ltRp2915
sg37
S'42602 - NO2'
p2916
ssS'6999'
p2917
(dp2918
g32
(lp2919
S'44201 - O3_._6999'
p2920
asg35
g9
((ltRp2921
sg37
S'44201 - O3'
p2922
ssS'6994'
p2923
(dp2924
g32
(lp2925
S'81104 - PM2.5_._6994'
p2926
asg35
g9
((ltRp2927
sg37
S'81104 - PM2.5'
p2928
ssS'6995'
p2929
(dp2930
g32
(lp2931
S'42101 - CO_._6995'
p2932
asg35
g9
((ltRp2933
sg37
S'42101 - CO'
p2934
ssS'6996'
p2935
(dp2936
g32
(lp2937
S'42401 - SO2_._6996'
p2938
asg35
g9
((ltRp2939
sg37
S'42401 - SO2'
p2940
ssS'6997'
p2941
(dp2942
g32
(lp2943
S'42601 - NO_._6997'
p2944
asg35
g9
((ltRp2945
sg37
S'42601 - NO'
p2946
ssS'6990'
p2947
(dp2948
g32
(lp2949
S'42401 - SO2_._6990'
p2950
asg35
g9
((ltRp2951
sg37
S'42401 - SO2'
p2952
ssS'6993'
p2953
(dp2954
g32
(lp2955
S'81102 - PM10_._6993'
p2956
asg35
g9
((ltRp2957
sg37
S'81102 - PM10'
p2958
ssS'6392'
p2959
(dp2960
g32
(lp2961
S'45201 - C6H6_._6392'
p2962
asg35
g9
((ltRp2963
sg37
S'45201 - C6H6'
p2964
ssS'6393'
p2965
(dp2966
g32
(lp2967
S'45202 - C6H5-CH3_._6393'
p2968
asg35
g9
((ltRp2969
sg37
S'45202 - C6H5-CH3'
p2970
ssS'6391'
p2971
(dp2972
g32
(lp2973
S'45109 - m,p-C6H4(CH3)2_._6391'
p2974
asg35
g9
((ltRp2975
sg37
S'45109 - m,p-C6H4(CH3)2'
p2976
ssS'6394'
p2977
(dp2978
g32
(lp2979
S'45203 - C6H5-C2H5_._6394'
p2980
asg35
g9
((ltRp2981
sg37
S'45203 - C6H5-C2H5'
p2982
ssS'6395'
p2983
(dp2984
g32
(lp2985
S'45204 - o-C6H4-(CH3)2_._6395'
p2986
asg35
g9
((ltRp2987
sg37
S'45204 - o-C6H4-(CH3)2'
p2988
ssS'10739'
p2989
(dp2990
g32
(lp2991
S'42101 - CO_._10739'
p2992
asg35
g9
((ltRp2993
sg37
S'42101 - CO'
p2994
ssS'6907'
p2995
(dp2996
g32
(lp2997
S'44201 - O3_._6907'
p2998
asg35
g9
((ltRp2999
sg37
S'44201 - O3'
p3000
ssS'6906'
p3001
(dp3002
g32
(lp3003
S'42602 - NO2_._6906'
p3004
asg35
g9
((ltRp3005
sg37
S'42602 - NO2'
p3006
ssS'6905'
p3007
(dp3008
g32
(lp3009
S'42601 - NO_._6905'
p3010
asg35
g9
((ltRp3011
sg37
S'42601 - NO'
p3012
ssS'6904'
p3013
(dp3014
g32
(lp3015
S'42401 - SO2_._6904'
p3016
asg35
g9
((ltRp3017
sg37
S'42401 - SO2'
p3018
ssS'6902'
p3019
(dp3020
g32
(lp3021
S'89101 - PM1_._6902'
p3022
asg35
g9
((ltRp3023
sg37
S'89101 - PM1'
p3024
ssS'6901'
p3025
(dp3026
g32
(lp3027
S'81104 - PM2.5_._6901'
p3028
asg35
g9
((ltRp3029
sg37
S'81104 - PM2.5'
p3030
ssS'6900'
p3031
(dp3032
g32
(lp3033
S'81102 - PM10_._6900'
p3034
asg35
g9
((ltRp3035
sg37
S'81102 - PM10'
p3036
ssS'6909'
p3037
(dp3038
g32
(lp3039
S'81104 - PM2.5_._6909'
p3040
asg35
g9
((ltRp3041
sg37
S'81104 - PM2.5'
p3042
ssS'6908'
p3043
(dp3044
g32
(lp3045
S'81102 - PM10_._6908'
p3046
asg35
g9
((ltRp3047
sg37
S'81102 - PM10'
p3048
ssS'6518'
p3049
(dp3050
g32
(lp3051
S'45109 - m,p-C6H4(CH3)2_._6518'
p3052
asg35
g9
((ltRp3053
sg37
S'45109 - m,p-C6H4(CH3)2'
p3054
ssS'6519'
p3055
(dp3056
g32
(lp3057
S'45201 - C6H6_._6519'
p3058
asg35
g9
((ltRp3059
sg37
S'45201 - C6H6'
p3060
ssS'6514'
p3061
(dp3062
g32
(lp3063
S'42101 - CO_._6514'
p3064
asg35
g9
((ltRp3065
sg37
S'42101 - CO'
p3066
ssS'6515'
p3067
(dp3068
g32
(lp3069
S'42601 - NO_._6515'
p3070
asg35
g9
((ltRp3071
sg37
S'42601 - NO'
p3072
ssS'6516'
p3073
(dp3074
g32
(lp3075
S'42602 - NO2_._6516'
p3076
asg35
g9
((ltRp3077
sg37
S'42602 - NO2'
p3078
ssS'6517'
p3079
(dp3080
g32
(lp3081
S'44201 - O3_._6517'
p3082
asg35
g9
((ltRp3083
sg37
S'44201 - O3'
p3084
ssS'10602'
p3085
(dp3086
g32
(lp3087
S'16111 - Black Carbon_._10602'
p3088
asg35
g9
((ltRp3089
sg37
S'16111 - Black Carbon'
p3090
ssS'10603'
p3091
(dp3092
g32
(lp3093
S'16111 - Black Carbon_._10603'
p3094
asg35
g9
((ltRp3095
sg37
S'16111 - Black Carbon'
p3096
ssS'10600'
p3097
(dp3098
g32
(lp3099
S'81102 - PM10_._10600'
p3100
asg35
g9
((ltRp3101
sg37
S'81102 - PM10'
p3102
ssS'10601'
p3103
(dp3104
g32
(lp3105
S'42602 - NO2_._10601'
p3106
asg35
g9
((ltRp3107
sg37
S'42602 - NO2'
p3108
ssS'10606'
p3109
(dp3110
g32
(lp3111
S'16111 - Black Carbon_._10606'
p3112
asg35
g9
((ltRp3113
sg37
S'16111 - Black Carbon'
p3114
ssS'10607'
p3115
(dp3116
g32
(lp3117
S'16111 - Black Carbon_._10607'
p3118
asg35
g9
((ltRp3119
sg37
S'16111 - Black Carbon'
p3120
ssS'10604'
p3121
(dp3122
g32
(lp3123
S'16111 - Black Carbon_._10604'
p3124
asg35
g9
((ltRp3125
sg37
S'16111 - Black Carbon'
p3126
ssS'10605'
p3127
(dp3128
g32
(lp3129
S'16111 - Black Carbon_._10605'
p3130
asg35
g9
((ltRp3131
sg37
S'16111 - Black Carbon'
p3132
ssS'10608'
p3133
(dp3134
g32
(lp3135
S'16111 - Black Carbon_._10608'
p3136
asg35
g9
((ltRp3137
sg37
S'16111 - Black Carbon'
p3138
ssS'10609'
p3139
(dp3140
g32
(lp3141
S'16111 - Black Carbon_._10609'
p3142
asg35
g9
((ltRp3143
sg37
S'16111 - Black Carbon'
p3144
ssS'6301'
p3145
(dp3146
g32
(lp3147
S'81102 - PM10_._6301'
p3148
asg35
g9
((ltRp3149
sg37
S'81102 - PM10'
p3150
ssS'99902'
p3151
(dp3152
g32
(lp3153
S'62101 - TT_._99902'
p3154
asg35
g9
((ltRp3155
sg37
S'62101 - TT'
p3156
ssS'99903'
p3157
(dp3158
g32
(lp3159
S'61102 - DD_._99903'
p3160
asg35
g9
((ltRp3161
sg37
S'61102 - DD'
p3162
ssS'99901'
p3163
(dp3164
g32
(lp3165
S'61110 - WSP-SCA_._99901'
p3166
asg35
g9
((ltRp3167
sg37
S'61110 - WSP-SCA'
p3168
ssS'99906'
p3169
(dp3170
g32
(lp3171
S'61102 - DD_._99906'
p3172
asg35
g9
((ltRp3173
sg37
S'61102 - DD'
p3174
ssS'7159'
p3175
(dp3176
g32
(lp3177
S'42601 - NO_._7159'
p3178
asg35
g9
((ltRp3179
sg37
S'42601 - NO'
p3180
ssS'7158'
p3181
(dp3182
g32
(lp3183
S'42401 - SO2_._7158'
p3184
asg35
g9
((ltRp3185
sg37
S'42401 - SO2'
p3186
ssS'7104'
p3187
(dp3188
g32
(lp3189
S'42601 - NO_._7104'
p3190
asg35
g9
((ltRp3191
sg37
S'42601 - NO'
p3192
ssS'99908'
p3193
(dp3194
g32
(lp3195
S'62101 - TT_._99908'
p3196
asg35
g9
((ltRp3197
sg37
S'62101 - TT'
p3198
ssS'7105'
p3199
(dp3200
g32
(lp3201
S'42602 - NO2_._7105'
p3202
asg35
g9
((ltRp3203
sg37
S'42602 - NO2'
p3204
ssS'6832'
p3205
(dp3206
g32
(lp3207
S'44201 - O3_._6832'
p3208
asg35
g9
((ltRp3209
sg37
S'44201 - O3'
p3210
ssS'6830'
p3211
(dp3212
g32
(lp3213
S'42602 - NO2_._6830'
p3214
asg35
g9
((ltRp3215
sg37
S'42602 - NO2'
p3216
ssS'7109'
p3217
(dp3218
g32
(lp3219
S'42401 - SO2_._7109'
p3220
asg35
g9
((ltRp3221
sg37
S'42401 - SO2'
p3222
ssS'7016'
p3223
(dp3224
g32
(lp3225
S'42601 - NO_._7016'
p3226
asg35
g9
((ltRp3227
sg37
S'42601 - NO'
p3228
ssS'6609'
p3229
(dp3230
g32
(lp3231
S'16111 - Black Carbon_._6609'
p3232
asg35
g9
((ltRp3233
sg37
S'16111 - Black Carbon'
p3234
ssS'7014'
p3235
(dp3236
g32
(lp3237
S'42401 - SO2_._7014'
p3238
asg35
g9
((ltRp3239
sg37
S'42401 - SO2'
p3240
ssS'7010'
p3241
(dp3242
g32
(lp3243
S'89101 - PM1_._7010'
p3244
asg35
g9
((ltRp3245
sg37
S'89101 - PM1'
p3246
ssS'6769'
p3247
(dp3248
g32
(lp3249
S'42602 - NO2_._6769'
p3250
asg35
g9
((ltRp3251
sg37
S'42602 - NO2'
p3252
ssS'6768'
p3253
(dp3254
g32
(lp3255
S'42601 - NO_._6768'
p3256
asg35
g9
((ltRp3257
sg37
S'42601 - NO'
p3258
ssS'6767'
p3259
(dp3260
g32
(lp3261
S'42401 - SO2_._6767'
p3262
asg35
g9
((ltRp3263
sg37
S'42401 - SO2'
p3264
ssS'6766'
p3265
(dp3266
g32
(lp3267
S'42101 - CO_._6766'
p3268
asg35
g9
((ltRp3269
sg37
S'42101 - CO'
p3270
ssS'7162'
p3271
(dp3272
g32
(lp3273
S'81102 - PM10_._7162'
p3274
asg35
g9
((ltRp3275
sg37
S'81102 - PM10'
p3276
ssS'6887'
p3277
(dp3278
g32
(lp3279
S'42101 - CO_._6887'
p3280
asg35
g9
((ltRp3281
sg37
S'42101 - CO'
p3282
ssS'6884'
p3283
(dp3284
g32
(lp3285
S'81104 - PM2.5_._6884'
p3286
asg35
g9
((ltRp3287
sg37
S'81104 - PM2.5'
p3288
ssS'6885'
p3289
(dp3290
g32
(lp3291
S'89101 - PM1_._6885'
p3292
asg35
g9
((ltRp3293
sg37
S'89101 - PM1'
p3294
ssS'6883'
p3295
(dp3296
g32
(lp3297
S'81102 - PM10_._6883'
p3298
asg35
g9
((ltRp3299
sg37
S'81102 - PM10'
p3300
ssS'6880'
p3301
(dp3302
g32
(lp3303
S'81102 - PM10_._6880'
p3304
asg35
g9
((ltRp3305
sg37
S'81102 - PM10'
p3306
ssS'6881'
p3307
(dp3308
g32
(lp3309
S'81104 - PM2.5_._6881'
p3310
asg35
g9
((ltRp3311
sg37
S'81104 - PM2.5'
p3312
ssS'6888'
p3313
(dp3314
g32
(lp3315
S'42401 - SO2_._6888'
p3316
asg35
g9
((ltRp3317
sg37
S'42401 - SO2'
p3318
ssS'6889'
p3319
(dp3320
g32
(lp3321
S'42601 - NO_._6889'
p3322
asg35
g9
((ltRp3323
sg37
S'42601 - NO'
p3324
ssS'7081'
p3325
(dp3326
g32
(lp3327
S'45202 - C6H5-CH3_._7081'
p3328
asg35
g9
((ltRp3329
sg37
S'45202 - C6H5-CH3'
p3330
ssS'7080'
p3331
(dp3332
g32
(lp3333
S'45201 - C6H6_._7080'
p3334
asg35
g9
((ltRp3335
sg37
S'45201 - C6H6'
p3336
ssS'7083'
p3337
(dp3338
g32
(lp3339
S'45204 - o-C6H4-(CH3)2_._7083'
p3340
asg35
g9
((ltRp3341
sg37
S'45204 - o-C6H4-(CH3)2'
p3342
ssS'7082'
p3343
(dp3344
g32
(lp3345
S'45203 - C6H5-C2H5_._7082'
p3346
asg35
g9
((ltRp3347
sg37
S'45203 - C6H5-C2H5'
p3348
ssS'7087'
p3349
(dp3350
g32
(lp3351
S'81104 - PM2.5_._7087'
p3352
asg35
g9
((ltRp3353
sg37
S'81104 - PM2.5'
p3354
ssS'7086'
p3355
(dp3356
g32
(lp3357
S'81102 - PM10_._7086'
p3358
asg35
g9
((ltRp3359
sg37
S'81102 - PM10'
p3360
ssS'7089'
p3361
(dp3362
g32
(lp3363
S'42601 - NO_._7089'
p3364
asg35
g9
((ltRp3365
sg37
S'42601 - NO'
p3366
ssS'7163'
p3367
(dp3368
g32
(lp3369
S'81104 - PM2.5_._7163'
p3370
asg35
g9
((ltRp3371
sg37
S'81104 - PM2.5'
p3372
ssS'7160'
p3373
(dp3374
g32
(lp3375
S'42602 - NO2_._7160'
p3376
asg35
g9
((ltRp3377
sg37
S'42602 - NO2'
p3378
ssS'99934'
p3379
(dp3380
g32
(lp3381
S'61110 - WSP-SCA_._99934'
p3382
asg35
g9
((ltRp3383
sg37
S'61110 - WSP-SCA'
p3384
ssS'99933'
p3385
(dp3386
g32
(lp3387
S'61102 - DD_._99933'
p3388
asg35
g9
((ltRp3389
sg37
S'61102 - DD'
p3390
ssS'99932'
p3391
(dp3392
g32
(lp3393
S'62101 - TT_._99932'
p3394
asg35
g9
((ltRp3395
sg37
S'62101 - TT'
p3396
ssS'7164'
p3397
(dp3398
g32
(lp3399
S'89101 - PM1_._7164'
p3400
asg35
g9
((ltRp3401
sg37
S'89101 - PM1'
p3402
ssS'99930'
p3403
(dp3404
g32
(lp3405
S'61102 - DD_._99930'
p3406
asg35
g9
((ltRp3407
sg37
S'61102 - DD'
p3408
ssS'99914'
p3409
(dp3410
g32
(lp3411
S'62101 - TT_._99914'
p3412
asg35
g9
((ltRp3413
sg37
S'62101 - TT'
p3414
ssS'6693'
p3415
(dp3416
g32
(lp3417
S'81102 - PM10_._6693'
p3418
asg35
g9
((ltRp3419
sg37
S'81102 - PM10'
p3420
ssS'7034'
p3421
(dp3422
g32
(lp3423
S'81102 - PM10_._7034'
p3424
asg35
g9
((ltRp3425
sg37
S'81102 - PM10'
p3426
ssS'6690'
p3427
(dp3428
g32
(lp3429
S'42602 - NO2_._6690'
p3430
asg35
g9
((ltRp3431
sg37
S'42602 - NO2'
p3432
ssS'6490'
p3433
(dp3434
g32
(lp3435
S'45204 - o-C6H4-(CH3)2_._6490'
p3436
asg35
g9
((ltRp3437
sg37
S'45204 - o-C6H4-(CH3)2'
p3438
ssS'6949'
p3439
(dp3440
g32
(lp3441
S'44201 - O3_._6949'
p3442
asg35
g9
((ltRp3443
sg37
S'44201 - O3'
p3444
ssS'6948'
p3445
(dp3446
g32
(lp3447
S'42602 - NO2_._6948'
p3448
asg35
g9
((ltRp3449
sg37
S'42602 - NO2'
p3450
ssS'7130'
p3451
(dp3452
g32
(lp3453
S'42401 - SO2_._7130'
p3454
asg35
g9
((ltRp3455
sg37
S'42401 - SO2'
p3456
ssS'6943'
p3457
(dp3458
g32
(lp3459
S'81102 - PM10_._6943'
p3460
asg35
g9
((ltRp3461
sg37
S'81102 - PM10'
p3462
ssS'6942'
p3463
(dp3464
g32
(lp3465
S'44201 - O3_._6942'
p3466
asg35
g9
((ltRp3467
sg37
S'44201 - O3'
p3468
ssS'6941'
p3469
(dp3470
g32
(lp3471
S'42602 - NO2_._6941'
p3472
asg35
g9
((ltRp3473
sg37
S'42602 - NO2'
p3474
ssS'6940'
p3475
(dp3476
g32
(lp3477
S'42601 - NO_._6940'
p3478
asg35
g9
((ltRp3479
sg37
S'42601 - NO'
p3480
ssS'6947'
p3481
(dp3482
g32
(lp3483
S'42601 - NO_._6947'
p3484
asg35
g9
((ltRp3485
sg37
S'42601 - NO'
p3486
ssS'6946'
p3487
(dp3488
g32
(lp3489
S'42401 - SO2_._6946'
p3490
asg35
g9
((ltRp3491
sg37
S'42401 - SO2'
p3492
ssS'6945'
p3493
(dp3494
g32
(lp3495
S'89101 - PM1_._6945'
p3496
asg35
g9
((ltRp3497
sg37
S'89101 - PM1'
p3498
ssS'6944'
p3499
(dp3500
g32
(lp3501
S'81104 - PM2.5_._6944'
p3502
asg35
g9
((ltRp3503
sg37
S'81104 - PM2.5'
p3504
ssS'6343'
p3505
(dp3506
g32
(lp3507
S'16111 - Black Carbon_._6343'
p3508
asg35
g9
((ltRp3509
sg37
S'16111 - Black Carbon'
p3510
ssS'7132'
p3511
(dp3512
g32
(lp3513
S'42602 - NO2_._7132'
p3514
asg35
g9
((ltRp3515
sg37
S'42602 - NO2'
p3516
ssS'6347'
p3517
(dp3518
g32
(lp3519
S'42601 - NO_._6347'
p3520
asg35
g9
((ltRp3521
sg37
S'42601 - NO'
p3522
ssS'6348'
p3523
(dp3524
g32
(lp3525
S'42602 - NO2_._6348'
p3526
asg35
g9
((ltRp3527
sg37
S'42602 - NO2'
p3528
ssS'6337'
p3529
(dp3530
g32
(lp3531
S'81104 - PM2.5_._6337'
p3532
asg35
g9
((ltRp3533
sg37
S'81104 - PM2.5'
p3534
ssS'7234'
p3535
(dp3536
g32
(lp3537
S'42602 - NO2_._7234'
p3538
asg35
g9
((ltRp3539
sg37
S'42602 - NO2'
p3540
ssS'7232'
p3541
(dp3542
g32
(lp3543
S'42401 - SO2_._7232'
p3544
asg35
g9
((ltRp3545
sg37
S'42401 - SO2'
p3546
ssS'7233'
p3547
(dp3548
g32
(lp3549
S'42601 - NO_._7233'
p3550
asg35
g9
((ltRp3551
sg37
S'42601 - NO'
p3552
ssS'7230'
p3553
(dp3554
g32
(lp3555
S'42601 - NO_._7230'
p3556
asg35
g9
((ltRp3557
sg37
S'42601 - NO'
p3558
ssS'7231'
p3559
(dp3560
g32
(lp3561
S'42602 - NO2_._7231'
p3562
asg35
g9
((ltRp3563
sg37
S'42602 - NO2'
p3564
ssS'6958'
p3565
(dp3566
g32
(lp3567
S'81104 - PM2.5_._6958'
p3568
asg35
g9
((ltRp3569
sg37
S'81104 - PM2.5'
p3570
ssS'7008'
p3571
(dp3572
g32
(lp3573
S'81102 - PM10_._7008'
p3574
asg35
g9
((ltRp3575
sg37
S'81102 - PM10'
p3576
ssS'6549'
p3577
(dp3578
g32
(lp3579
S'42401 - SO2_._6549'
p3580
asg35
g9
((ltRp3581
sg37
S'42401 - SO2'
p3582
ssS'6548'
p3583
(dp3584
g32
(lp3585
S'42242 - Hg_._6548'
p3586
asg35
g9
((ltRp3587
sg37
S'42242 - Hg'
p3588
ssS'6334'
p3589
(dp3590
g32
(lp3591
S'81102 - PM10_._6334'
p3592
asg35
g9
((ltRp3593
sg37
S'81102 - PM10'
p3594
ssS'6335'
p3595
(dp3596
g32
(lp3597
S'16111 - Black Carbon_._6335'
p3598
asg35
g9
((ltRp3599
sg37
S'16111 - Black Carbon'
p3600
ssS'6489'
p3601
(dp3602
g32
(lp3603
S'45203 - C6H5-C2H5_._6489'
p3604
asg35
g9
((ltRp3605
sg37
S'45203 - C6H5-C2H5'
p3606
sssS'accesConstraints'
p3607
S'http://creativecommons.org/licenses/by-nc-nd/3.0/'
p3608
sb.